libqt5scintilla2.so.12 libqt5scintilla2-12v5 #MINVER#
 Scintilla_LinkLexers@Base 2.8.4
 UTF8BytesOfLead@Base 2.8.4
 _Z10FoldSMLDocjiiPP8WordListR8Accessor@Base 2.8.4
 _Z10HandleSkipRjjR8Accessor@Base 2.8.4
 _Z10HandleWordRjjR8AccessorPP8WordList@Base 2.8.4
 _Z10IsOperatori@Base 2.8.4
 _Z10StringCopyIcLj200EEvRAT0__T_PKS0_@Base 2.9
 _Z10StringCopyIcLj2EEvRAT0__T_PKS0_@Base 2.9
 _Z10StringCopyIcLj7EEvRAT0__T_PKS0_@Base 2.9
 _Z10UTF8LengthPKwj@Base 2.8.4
 _Z10isoperatori@Base 2.8.4
 _Z10iswordchari@Base 2.8.4
 _Z11CaseConverti14CaseConversion@Base 2.8.4
 _Z11FoldCamlDocjiiPP8WordListR8Accessor@Base 2.8.4
 _Z11HandleSpaceRjjR8Accessor@Base 2.8.4
 _Z11IsLowerCasei@Base 2.8.4
 _Z11IsUpperCasei@Base 2.8.4
 _Z11MatchNoCaseR8AccessorRjPKc@Base 2.8.4
 _Z11UTF16LengthPKcj@Base 2.9
 _Z11UTF8IsAsciii@Base 2.8.4
 _Z11escapeValueh@Base 2.8.4
 _Z11isspacechari@Base 2.8.4
 _Z11iswordstarti@Base 2.8.4
 _Z11qLowerBoundI11QStringList7QStringENT_14const_iteratorERKS2_RKT0_@Base 2.8.4
 _Z11qUncompressRK10QByteArray@Base 2.8.4
 _Z12ConverterFor14CaseConversion@Base 2.8.4
 _Z12DrawTabArrowP7Surface10PRectanglei@Base 2.8.4
 _Z12HandleStringRjjR8Accessor@Base 2.8.4
 _Z12IsAWordStarti@Base 2.8.4
 _Z12IsSpaceOrTabi@Base 2.8.4
 _Z12UTF8ClassifyPKhi@Base 2.8.4
 _Z12isGCOperatori@Base 2.8.4
 _Z13HandleIntegerRjjR8Accessor@Base 2.8.4
 _Z13InvertedLight13ColourDesired@Base 2.8.4
 _Z13IsALabelStarti@Base 2.8.4
 _Z13IsASpaceOrTabi@Base 2.8.4
 _Z13IsCssOperatori@Base 2.8.4
 _Z13IsLineEndCharc@Base 2.8.4
 _Z13MakeUpperCasec@Base 2.8.4
 _Z13UTF16FromUTF8PKcjPwj@Base 2.9
 _Z13UTF32FromUTF8PKcjPjj@Base 2.9
 _Z13UTF8DrawBytesPKhi@Base 2.8.4
 _Z13UTF8FromUTF16PKwjPcj@Base 2.8.4
 _Z13isAveOperatorc@Base 2.8.4
 _Z13isTALoperatorc@Base 2.8.4
 _Z13isTALwordcharc@Base 2.8.4
 _Z13qvariant_castI11QTextFormatET_RK8QVariant@Base 2.8.4
 _Z14DrawStyledTextP7SurfaceRK9ViewStylei10PRectangleRK10StyledTextjj9DrawPhase@Base 2.9
 _Z14DrawWrapMarkerP7Surface10PRectangleb13ColourDesired@Base 2.9
 _Z14IsAlphaNumerici@Base 2.8.4
 _Z14MatchUpperCaseR8AccessoriPKc@Base 2.8.4
 _Z14UTF8CharLengthh@Base 2.8.4
 _Z14isTACLoperatorc@Base 2.8.4
 _Z14isTACLwordcharc@Base 2.8.4
 _Z14isTALwordstartc@Base 2.8.4
 _Z15ColouriseSMLDocjiiPP8WordListR8Accessor@Base 2.8.4
 _Z15IsACommentStarti@Base 2.8.4
 _Z15IsAHexCharacterib@Base 2.8.4
 _Z15MatchIgnoreCaseR8AccessoriPKc@Base 2.8.4
 _Z15RoundXYPositionf@Base 2.9
 _Z15UTF8IsSeparatorPKh@Base 2.8.4
 _Z15UTF8IsTrailBytei@Base 2.8.4
 _Z15UnicodeFromUTF8PKh@Base 2.8.4
 _Z15ValidStyledTextRK9ViewStylejRK10StyledText@Base 2.9
 _Z15WidestLineWidthP7SurfaceRK9ViewStyleiRK10StyledText@Base 2.9
 _Z15isCOBOLoperatorc@Base 2.8.4
 _Z15isCOBOLwordcharc@Base 2.8.4
 _Z15isTACLwordstartc@Base 2.8.4
 _Z15qMapLessThanKeyI7QStringEbRKT_S3_@Base 2.8.4
 _Z15qMapLessThanKeyIiEbRKT_S2_@Base 2.8.4
 _Z16ColouriseCamlDocjiiPP8WordListR8Accessor@Base 2.8.4
 _Z16GetNextWordUpperR8AccessorjiPc@Base 2.8.4
 _Z16isCOBOLwordstartc@Base 2.8.4
 _Z16isMMIXALOperatorc@Base 2.8.4
 _Z17CaseConvertStringPcjPKcj14CaseConversion@Base 2.9
 _Z17CreateRegexSearchP12CharClassify@Base 2.8.4
 _Z17HandleCommentLineRjjR8Accessorb@Base 2.8.4
 _Z17IsALabelCharacteri@Base 2.8.4
 _Z18HandleCommentBlockRjjR8Accessorb@Base 2.8.4
 _Z19CategoriseCharacteri@Base 2.8.4
 _Z19DrawTextNoClipPhaseP7Surface10PRectangleRK5StylefPKci9DrawPhase@Base 2.9
 _Z22CompareCaseInsensitivePKcS0_@Base 2.8.4
 _Z22ControlCharacterStringh@Base 2.8.4
 _Z22NestingLevelLookBehindjR8Accessor@Base 2.8.4
 _Z23CompareNCaseInsensitivePKcS0_j@Base 2.9
 _Z23IsANumericBaseCharacterib@Base 2.8.4
 _Z23SetNumericConstantStateR12StyleContext@Base 2.8.4
 _Z23UTF16FromUTF32CharacterjPw@Base 2.9
 _Z25UTF8BytesOfLeadInitialisev@Base 2.8.4
 _Z4qAbsIiET_RKS0_@Base 2.8.4
 _Z4qMaxIiERKT_S2_S2_@Base 2.8.4
 _Z5IsEOLi@Base 2.8.4
 _Z5issmli@Base 2.8.4
 _Z5qRgbaiiii@Base 2.8.4
 _Z5qSwapI12QFontPrivateEvR28QExplicitlySharedDataPointerIT_ES4_@Base 2.9.2+dfsg
 _Z5qSwapIP12QFontPrivateEvRT_S3_@Base 2.9.2+dfsg
 _Z5qSwapIP15QTypedArrayDataIcEEvRT_S4_@Base 2.9.2+dfsg
 _Z5qSwapIP15QTypedArrayDataItEEvRT_S4_@Base 2.9.2+dfsg
 _Z5qSwapIP7QObjectEvRT_S3_@Base 2.9.3
 _Z5qSwapIP8QMapDataI7QString5QListI5QPairIjjEEEEvRT_S9_@Base 2.8.4
 _Z5qSwapIP8QMapDataI7QStringS1_EEvRT_S5_@Base 2.8.4
 _Z5qSwapIP8QMapDataIi7QPixmapEEvRT_S5_@Base 2.8.4
 _Z5qSwapIPN15QtSharedPointer20ExternalRefCountDataEEvRT_S4_@Base 2.9.3
 _Z5qSwapIPN9QListData4DataEEvRT_S4_@Base 2.8.4
 _Z5qSwapIjEvRT_S1_@Base 2.9.2+dfsg
 _Z6iscamli@Base 2.8.4
 _Z6issmldi@Base 2.8.4
 _Z6issmlfi@Base 2.8.4
 _Z6qRoundd@Base 2.8.4
 _Z7IsASCIIi@Base 2.8.4
 _Z7IsAlphai@Base 2.8.4
 _Z7Maximumii@Base 2.8.4
 _Z7iscamlfi@Base 2.8.4
 _Z7qstrlenPKc@Base 2.8.4
 _Z7qt_noopv@Base 2.8.4
 _Z8IsADigiti@Base 2.8.4
 _Z8IsADigitii@Base 2.8.4
 _Z8IsASpacei@Base 2.8.4
 _Z9HandleParRjR8Accessor@Base 2.8.4
 _Z9UTF8IsNELPKh@Base 2.8.4
 _Z9qCompressRK10QByteArrayi@Base 2.8.4
 _ZN10CaseFolderC1Ev@Base 2.8.4
 _ZN10CaseFolderC2Ev@Base 2.8.4
 _ZN10CaseFolderD0Ev@Base 2.8.4
 _ZN10CaseFolderD1Ev@Base 2.8.4
 _ZN10CaseFolderD2Ev@Base 2.8.4
 _ZN10CellBuffer10InsertLineEiib@Base 2.8.4
 _ZN10CellBuffer10RemoveLineEi@Base 2.8.4
 _ZN10CellBuffer10SetPerLineEP7PerLine@Base 2.8.4
 _ZN10CellBuffer10SetStyleAtEic@Base 2.9
 _ZN10CellBuffer11DeleteCharsEiiRb@Base 2.8.4
 _ZN10CellBuffer11SetReadOnlyEb@Base 2.8.4
 _ZN10CellBuffer11SetStyleForEiic@Base 2.9
 _ZN10CellBuffer12InsertStringEiPKciRb@Base 2.8.4
 _ZN10CellBuffer12RangePointerEii@Base 2.8.4
 _ZN10CellBuffer12SetSavePointEv@Base 2.8.4
 _ZN10CellBuffer13AddUndoActionEib@Base 2.8.4
 _ZN10CellBuffer13BufferPointerEv@Base 2.8.4
 _ZN10CellBuffer13EndUndoActionEv@Base 2.8.4
 _ZN10CellBuffer13ResetLineEndsEv@Base 2.8.4
 _ZN10CellBuffer14TentativeStartEv@Base 2.9
 _ZN10CellBuffer14TentativeStepsEv@Base 2.9
 _ZN10CellBuffer15BeginUndoActionEv@Base 2.8.4
 _ZN10CellBuffer15PerformRedoStepEv@Base 2.8.4
 _ZN10CellBuffer15PerformUndoStepEv@Base 2.8.4
 _ZN10CellBuffer15SetLineEndTypesEi@Base 2.8.4
 _ZN10CellBuffer15TentativeCommitEv@Base 2.9
 _ZN10CellBuffer16BasicDeleteCharsEii@Base 2.8.4
 _ZN10CellBuffer17BasicInsertStringEiPKci@Base 2.8.4
 _ZN10CellBuffer17DeleteUndoHistoryEv@Base 2.8.4
 _ZN10CellBuffer17SetUndoCollectionEb@Base 2.8.4
 _ZN10CellBuffer8AllocateEi@Base 2.8.4
 _ZN10CellBuffer9StartRedoEv@Base 2.8.4
 _ZN10CellBuffer9StartUndoEv@Base 2.8.4
 _ZN10CellBufferC1Ev@Base 2.8.4
 _ZN10CellBufferC2Ev@Base 2.8.4
 _ZN10CellBufferD1Ev@Base 2.8.4
 _ZN10CellBufferD2Ev@Base 2.8.4
 _ZN10DecorationC1Ei@Base 2.8.4
 _ZN10DecorationC2Ei@Base 2.8.4
 _ZN10DecorationD1Ev@Base 2.8.4
 _ZN10DecorationD2Ev@Base 2.8.4
 _ZN10DocWatcherC1Ev@Base 2.8.4
 _ZN10DocWatcherC2Ev@Base 2.8.4
 _ZN10DocWatcherD0Ev@Base 2.8.4
 _ZN10DocWatcherD1Ev@Base 2.8.4
 _ZN10DocWatcherD2Ev@Base 2.8.4
 _ZN10LexerBasic11PrivateCallEiPv@Base 2.8.4
 _ZN10LexerBasic11PropertySetEPKcS1_@Base 2.8.4
 _ZN10LexerBasic11WordListSetEiPKc@Base 2.8.4
 _ZN10LexerBasic12PropertyTypeEPKc@Base 2.8.4
 _ZN10LexerBasic13PropertyNamesEv@Base 2.8.4
 _ZN10LexerBasic16DescribePropertyEPKc@Base 2.8.4
 _ZN10LexerBasic20DescribeWordListSetsEv@Base 2.8.4
 _ZN10LexerBasic21LexerFactoryFreeBasicEv@Base 2.8.4
 _ZN10LexerBasic21LexerFactoryPureBasicEv@Base 2.8.4
 _ZN10LexerBasic22LexerFactoryBlitzBasicEv@Base 2.8.4
 _ZN10LexerBasic3LexEjiiP9IDocument@Base 2.8.4
 _ZN10LexerBasic4FoldEjiiP9IDocument@Base 2.8.4
 _ZN10LexerBasic7ReleaseEv@Base 2.8.4
 _ZN10LexerBasicC1EcPFiPKcRiEPKS1_@Base 2.8.4
 _ZN10LexerBasicC2EcPFiPKcRiEPKS1_@Base 2.8.4
 _ZN10LexerBasicD0Ev@Base 2.8.4
 _ZN10LexerBasicD1Ev@Base 2.8.4
 _ZN10LexerBasicD2Ev@Base 2.8.4
 _ZN10LexerLaTeX10truncModesEi@Base 2.8.4
 _ZN10LexerLaTeX10truncSavesEi@Base 2.8.4
 _ZN10LexerLaTeX17LexerFactoryLaTeXEv@Base 2.8.4
 _ZN10LexerLaTeX3LexEjiiP9IDocument@Base 2.8.4
 _ZN10LexerLaTeX4FoldEjiiP9IDocument@Base 2.8.4
 _ZN10LexerLaTeX7getModeEi@Base 2.8.4
 _ZN10LexerLaTeX7getSaveEiR13latexFoldSave@Base 2.8.4
 _ZN10LexerLaTeX7setModeEii@Base 2.8.4
 _ZN10LexerLaTeX7setSaveEiRK13latexFoldSave@Base 2.8.4
 _ZN10LexerLaTeXC1Ev@Base 2.8.4
 _ZN10LexerLaTeXC2Ev@Base 2.8.4
 _ZN10LexerLaTeXD0Ev@Base 2.8.4
 _ZN10LexerLaTeXD1Ev@Base 2.8.4
 _ZN10LexerLaTeXD2Ev@Base 2.8.4
 _ZN10LineLayout10InvalidateENS_10validLevelE@Base 2.8.4
 _ZN10LineLayout12SetLineStartEii@Base 2.8.4
 _ZN10LineLayout18SetBracesHighlightE5RangePKicib@Base 2.9
 _ZN10LineLayout22RestoreBracesHighlightE5RangePKib@Base 2.9
 _ZN10LineLayout4FreeEv@Base 2.8.4
 _ZN10LineLayout6ResizeEi@Base 2.8.4
 _ZN10LineLayoutC1Ei@Base 2.8.4
 _ZN10LineLayoutC2Ei@Base 2.8.4
 _ZN10LineLayoutD0Ev@Base 2.8.4
 _ZN10LineLayoutD1Ev@Base 2.8.4
 _ZN10LineLayoutD2Ev@Base 2.8.4
 _ZN10LineLevels10InsertLineEi@Base 2.8.4
 _ZN10LineLevels10RemoveLineEi@Base 2.8.4
 _ZN10LineLevels11ClearLevelsEv@Base 2.8.4
 _ZN10LineLevels12ExpandLevelsEi@Base 2.8.4
 _ZN10LineLevels4InitEv@Base 2.8.4
 _ZN10LineLevels8SetLevelEiii@Base 2.8.4
 _ZN10LineLevelsC1Ev@Base 2.8.4
 _ZN10LineLevelsC2Ev@Base 2.8.4
 _ZN10LineLevelsD0Ev@Base 2.8.4
 _ZN10LineLevelsD1Ev@Base 2.8.4
 _ZN10LineLevelsD2Ev@Base 2.8.4
 _ZN10LineMarker12SetRGBAImageE5PointfPKh@Base 2.8.4
 _ZN10LineMarker6SetXPMEPKPKc@Base 2.8.4
 _ZN10LineMarker6SetXPMEPKc@Base 2.8.4
 _ZN10LineMarkerC1Ev@Base 2.8.4
 _ZN10LineMarkerC2Ev@Base 2.8.4
 _ZN10LineMarkerD1Ev@Base 2.8.4
 _ZN10LineMarkerD2Ev@Base 2.8.4
 _ZN10LineMarkeraSERKS_@Base 2.8.4
 _ZN10LineVector10InsertLineEiib@Base 2.8.4
 _ZN10LineVector10InsertTextEii@Base 2.8.4
 _ZN10LineVector10RemoveLineEi@Base 2.8.4
 _ZN10LineVector10SetPerLineEP7PerLine@Base 2.8.4
 _ZN10LineVector12SetLineStartEii@Base 2.8.4
 _ZN10LineVector4InitEv@Base 2.8.4
 _ZN10LineVectorC1Ev@Base 2.8.4
 _ZN10LineVectorC2Ev@Base 2.8.4
 _ZN10LineVectorD1Ev@Base 2.8.4
 _ZN10LineVectorD2Ev@Base 2.8.4
 _ZN10MarginView11PaintMarginEP7Surfacei10PRectangleS2_RK9EditModelRK9ViewStyle@Base 2.9
 _ZN10MarginView12DropGraphicsEb@Base 2.9
 _ZN10MarginView14RefreshPixMapsEP7SurfacePvRK9ViewStyle@Base 2.9
 _ZN10MarginView16AllocateGraphicsERK9ViewStyle@Base 2.9
 _ZN10MarginViewC1Ev@Base 2.9
 _ZN10MarginViewC2Ev@Base 2.9
 _ZN10OptionSetDC1Ev@Base 2.8.4
 _ZN10OptionSetDC2Ev@Base 2.8.4
 _ZN10OptionSetDD0Ev@Base 2.8.4
 _ZN10OptionSetDD1Ev@Base 2.8.4
 _ZN10OptionSetDD2Ev@Base 2.8.4
 _ZN10OptionsAsmC1Ev@Base 2.8.4
 _ZN10OptionsAsmC2Ev@Base 2.8.4
 _ZN10OptionsAsmD1Ev@Base 2.8.4
 _ZN10OptionsAsmD2Ev@Base 2.8.4
 _ZN10OptionsSQLC1Ev@Base 2.8.4
 _ZN10OptionsSQLC2Ev@Base 2.8.4
 _ZN10PRectangle4MoveEff@Base 2.8.4
 _ZN10PRectangle8FromIntsEiiii@Base 2.9
 _ZN10PRectangleC1Effff@Base 2.8.4
 _ZN10PRectangleC2Effff@Base 2.8.4
 _ZN10QArrayData10sharedNullEv@Base 2.8.4
 _ZN10QArrayData4dataEv@Base 2.8.4
 _ZN10QAtomicOpsIiE3refIiEEbRSt6atomicIT_E@Base 2.9.2+dfsg
 _ZN10QAtomicOpsIiE4loadIiEET_RKSt6atomicIS2_E@Base 2.9.2+dfsg
 _ZN10QAtomicOpsIiE5derefIiEEbRSt6atomicIT_E@Base 2.9.2+dfsg
 _ZN10QByteArray4dataEv@Base 2.8.4
 _ZN10QByteArray6detachEv@Base 2.8.4
 _ZN10QByteArrayC1ERKS_@Base 2.8.4
 _ZN10QByteArrayC1Ev@Base 2.8.4
 _ZN10QByteArrayC2ERKS_@Base 2.8.4
 _ZN10QByteArrayC2Ev@Base 2.8.4
 _ZN10QByteArrayD1Ev@Base 2.8.4
 _ZN10QByteArrayD2Ev@Base 2.8.4
 _ZN10QByteArrayaSEOS_@Base 2.9.2+dfsg
 _ZN10QByteArraypLEc@Base 2.8.4
 _ZN10QDropEvent20acceptProposedActionEv@Base 2.8.4
 _ZN10QsciLexerD11qt_metacallEN11QMetaObject4CallEiPPv@Base 2.8.4
 _ZN10QsciLexerD11qt_metacastEPKc@Base 2.8.4
 _ZN10QsciLexerD13setAtElsePropEv@Base 2.8.4
 _ZN10QsciLexerD13setFoldAtElseEb@Base 2.8.4
 _ZN10QsciLexerD14readPropertiesER9QSettingsRK7QString@Base 2.8.4
 _ZN10QsciLexerD14setCommentPropEv@Base 2.8.4
 _ZN10QsciLexerD14setCompactPropEv@Base 2.8.4
 _ZN10QsciLexerD14setFoldCompactEb@Base 2.8.4
 _ZN10QsciLexerD15setFoldCommentsEb@Base 2.8.4
 _ZN10QsciLexerD16staticMetaObjectE@Base 2.8.4
 _ZN10QsciLexerD17refreshPropertiesEv@Base 2.8.4
 _ZN10QsciLexerD2trEPKcS1_i@Base 2.8.4
 _ZN10QsciLexerDC1EP7QObject@Base 2.8.4
 _ZN10QsciLexerDC2EP7QObject@Base 2.8.4
 _ZN10QsciLexerDD0Ev@Base 2.8.4
 _ZN10QsciLexerDD1Ev@Base 2.8.4
 _ZN10QsciLexerDD2Ev@Base 2.8.4
 _ZN10StyledTextC1EjPKcbiPKh@Base 2.9
 _ZN10StyledTextC2EjPKcbiPKh@Base 2.9
 _ZN10WorkNeeded4NeedENS_9workItemsEi@Base 2.8.4
 _ZN10WorkNeeded5ResetEv@Base 2.8.4
 _ZN10WorkNeededC1Ev@Base 2.8.4
 _ZN10WorkNeededC2Ev@Base 2.8.4
 _ZN11AutoSurfaceC1EP6Editori@Base 2.8.4
 _ZN11AutoSurfaceC1EPvP6Editori@Base 2.8.4
 _ZN11AutoSurfaceC2EP6Editori@Base 2.8.4
 _ZN11AutoSurfaceC2EPvP6Editori@Base 2.8.4
 _ZN11AutoSurfaceD1Ev@Base 2.8.4
 _ZN11AutoSurfaceD2Ev@Base 2.8.4
 _ZN11BreakFinder4NextEv@Base 2.8.4
 _ZN11BreakFinder6InsertEi@Base 2.8.4
 _ZN11BreakFinderC1EPK10LineLayoutPK9Selection5RangeiibPK8DocumentPK22SpecialRepresentationsPK9ViewStyle@Base 2.9
 _ZN11BreakFinderC2EPK10LineLayoutPK9Selection5RangeiibPK8DocumentPK22SpecialRepresentationsPK9ViewStyle@Base 2.9
 _ZN11BreakFinderD1Ev@Base 2.8.4
 _ZN11BreakFinderD2Ev@Base 2.8.4
 _ZN11ElapsedTime8DurationEb@Base 2.8.4
 _ZN11ElapsedTimeC1Ev@Base 2.8.4
 _ZN11ElapsedTimeC2Ev@Base 2.8.4
 _ZN11LexAccessor12SetLineStateEii@Base 2.8.4
 _ZN11LexAccessor12StartSegmentEj@Base 2.8.4
 _ZN11LexAccessor13IndicatorFillEiiii@Base 2.8.4
 _ZN11LexAccessor13SafeGetCharAtEic@Base 2.8.4
 _ZN11LexAccessor16ChangeLexerStateEii@Base 2.8.4
 _ZN11LexAccessor4FillEi@Base 2.8.4
 _ZN11LexAccessor5FlushEv@Base 2.8.4
 _ZN11LexAccessor5MatchEiPKc@Base 2.8.4
 _ZN11LexAccessor7LineEndEi@Base 2.8.4
 _ZN11LexAccessor7StartAtEj@Base 2.9
 _ZN11LexAccessor8ColourToEji@Base 2.8.4
 _ZN11LexAccessor8SetLevelEii@Base 2.8.4
 _ZN11LexAccessorC1EP9IDocument@Base 2.8.4
 _ZN11LexAccessorC2EP9IDocument@Base 2.8.4
 _ZN11LexAccessorixEi@Base 2.8.4
 _ZN11LexerModuleC1EiPFP6ILexervEPKcPKS5_@Base 2.9
 _ZN11LexerModuleC1EiPFvjiiPP8WordListR8AccessorEPKcS6_PKS8_@Base 2.9
 _ZN11LexerModuleC2EiPFP6ILexervEPKcPKS5_@Base 2.9
 _ZN11LexerModuleC2EiPFvjiiPP8WordListR8AccessorEPKcS6_PKS8_@Base 2.9
 _ZN11LexerModuleD0Ev@Base 2.8.4
 _ZN11LexerModuleD1Ev@Base 2.8.4
 _ZN11LexerModuleD2Ev@Base 2.8.4
 _ZN11LexerSimple20DescribeWordListSetsEv@Base 2.8.4
 _ZN11LexerSimple3LexEjiiP9IDocument@Base 2.8.4
 _ZN11LexerSimple4FoldEjiiP9IDocument@Base 2.8.4
 _ZN11LexerSimpleC1EPK11LexerModule@Base 2.8.4
 _ZN11LexerSimpleC2EPK11LexerModule@Base 2.8.4
 _ZN11LexerSimpleD0Ev@Base 2.8.4
 _ZN11LexerSimpleD1Ev@Base 2.8.4
 _ZN11LexerSimpleD2Ev@Base 2.8.4
 _ZN11LineMarkers10DeleteMarkEiib@Base 2.8.4
 _ZN11LineMarkers10InsertLineEi@Base 2.8.4
 _ZN11LineMarkers10RemoveLineEi@Base 2.8.4
 _ZN11LineMarkers12MergeMarkersEi@Base 2.8.4
 _ZN11LineMarkers14LineFromHandleEi@Base 2.8.4
 _ZN11LineMarkers20DeleteMarkFromHandleEi@Base 2.8.4
 _ZN11LineMarkers4InitEv@Base 2.8.4
 _ZN11LineMarkers7AddMarkEiii@Base 2.8.4
 _ZN11LineMarkers9MarkValueEi@Base 2.8.4
 _ZN11LineMarkersC1Ev@Base 2.8.4
 _ZN11LineMarkersC2Ev@Base 2.8.4
 _ZN11LineMarkersD0Ev@Base 2.8.4
 _ZN11LineMarkersD1Ev@Base 2.8.4
 _ZN11LineMarkersD2Ev@Base 2.8.4
 _ZN11MarginStyleC1Ev@Base 2.8.4
 _ZN11MarginStyleC2Ev@Base 2.8.4
 _ZN11OptionsPerlC1Ev@Base 2.8.4
 _ZN11OptionsPerlC2Ev@Base 2.8.4
 _ZN11OptionsRustC1Ev@Base 2.8.4
 _ZN11OptionsRustC2Ev@Base 2.8.4
 _ZN11OptionsRustD1Ev@Base 2.8.4
 _ZN11OptionsRustD2Ev@Base 2.8.4
 _ZN11QDataStream10setVersionEi@Base 2.8.4
 _ZN11QDataStreamlsEh@Base 2.8.4
 _ZN11QDataStreamlsEj@Base 2.8.4
 _ZN11QDataStreamrsERh@Base 2.8.4
 _ZN11QDataStreamrsERj@Base 2.8.4
 _ZN11QLatin1CharC1Ec@Base 2.8.4
 _ZN11QLatin1CharC2Ec@Base 2.8.4
 _ZN11QListWidget7addItemERK7QString@Base 2.8.4
 _ZN11QStringListC1EO5QListI7QStringE@Base 2.9.2+dfsg
 _ZN11QStringListC1ERK7QString@Base 2.8.4
 _ZN11QStringListC1Ev@Base 2.8.4
 _ZN11QStringListC2EO5QListI7QStringE@Base 2.9.2+dfsg
 _ZN11QStringListC2ERK7QString@Base 2.8.4
 _ZN11QStringListC2Ev@Base 2.8.4
 _ZN11QStringListD1Ev@Base 2.8.4
 _ZN11QStringListD2Ev@Base 2.8.4
 _ZN11QStringListaSEO5QListI7QStringE@Base 2.9.2+dfsg
 _ZN11QStringListaSEOS_@Base 2.9.2+dfsg
 _ZN11QStringListaSERKS_@Base 2.8.4
 _ZN11QStringListlsERK7QString@Base 2.8.4
 _ZN11QsciCommand15setAlternateKeyEi@Base 2.8.4
 _ZN11QsciCommand6setKeyEi@Base 2.8.4
 _ZN11QsciCommand7bindKeyEiRiS0_@Base 2.8.4
 _ZN11QsciCommand7executeEv@Base 2.8.4
 _ZN11QsciCommand8validKeyEi@Base 2.8.4
 _ZN11QsciCommandC1EP13QsciScintillaNS_7CommandEiiPKc@Base 2.8.4
 _ZN11QsciCommandC2EP13QsciScintillaNS_7CommandEiiPKc@Base 2.8.4
 _ZN11QsciLexerPO11qt_metacallEN11QMetaObject4CallEiPPv@Base 2.8.4
 _ZN11QsciLexerPO11qt_metacastEPKc@Base 2.8.4
 _ZN11QsciLexerPO14readPropertiesER9QSettingsRK7QString@Base 2.8.4
 _ZN11QsciLexerPO14setCommentPropEv@Base 2.8.4
 _ZN11QsciLexerPO14setCompactPropEv@Base 2.8.4
 _ZN11QsciLexerPO14setFoldCompactEb@Base 2.8.4
 _ZN11QsciLexerPO15setFoldCommentsEb@Base 2.8.4
 _ZN11QsciLexerPO16staticMetaObjectE@Base 2.8.4
 _ZN11QsciLexerPO17refreshPropertiesEv@Base 2.8.4
 _ZN11QsciLexerPO2trEPKcS1_i@Base 2.8.4
 _ZN11QsciLexerPOC1EP7QObject@Base 2.8.4
 _ZN11QsciLexerPOC2EP7QObject@Base 2.8.4
 _ZN11QsciLexerPOD0Ev@Base 2.8.4
 _ZN11QsciLexerPOD1Ev@Base 2.8.4
 _ZN11QsciLexerPOD2Ev@Base 2.8.4
 _ZN11QsciPrinter10formatPageER8QPainterbR5QRecti@Base 2.8.4
 _ZN11QsciPrinter10printRangeEP17QsciScintillaBaseii@Base 2.8.4
 _ZN11QsciPrinter11setWrapModeEN13QsciScintilla8WrapModeE@Base 2.8.4
 _ZN11QsciPrinter16setMagnificationEi@Base 2.8.4
 _ZN11QsciPrinterC1EN8QPrinter11PrinterModeE@Base 2.8.4
 _ZN11QsciPrinterC2EN8QPrinter11PrinterModeE@Base 2.8.4
 _ZN11QsciPrinterD0Ev@Base 2.8.4
 _ZN11QsciPrinterD1Ev@Base 2.8.4
 _ZN11QsciPrinterD2Ev@Base 2.8.4
 _ZN11SparseStateINSt7__cxx1112basic_stringIcSt11char_traitsIcESaIcEEEE3SetEiS5_@Base 2.9
 _ZN11SparseStateINSt7__cxx1112basic_stringIcSt11char_traitsIcESaIcEEEE4FindEi@Base 2.9
 _ZN11SparseStateINSt7__cxx1112basic_stringIcSt11char_traitsIcESaIcEEEE5MergeERKS6_i@Base 2.9
 _ZN11SparseStateINSt7__cxx1112basic_stringIcSt11char_traitsIcESaIcEEEE5StateC1EOS7_@Base 2.9.2+dfsg
 _ZN11SparseStateINSt7__cxx1112basic_stringIcSt11char_traitsIcESaIcEEEE5StateC1ERKS7_@Base 2.9
 _ZN11SparseStateINSt7__cxx1112basic_stringIcSt11char_traitsIcESaIcEEEE5StateC1EiS5_@Base 2.9
 _ZN11SparseStateINSt7__cxx1112basic_stringIcSt11char_traitsIcESaIcEEEE5StateC2EOS7_@Base 2.9.2+dfsg
 _ZN11SparseStateINSt7__cxx1112basic_stringIcSt11char_traitsIcESaIcEEEE5StateC2ERKS7_@Base 2.9
 _ZN11SparseStateINSt7__cxx1112basic_stringIcSt11char_traitsIcESaIcEEEE5StateC2EiS5_@Base 2.9
 _ZN11SparseStateINSt7__cxx1112basic_stringIcSt11char_traitsIcESaIcEEEE5StateD1Ev@Base 2.9
 _ZN11SparseStateINSt7__cxx1112basic_stringIcSt11char_traitsIcESaIcEEEE5StateD2Ev@Base 2.9
 _ZN11SparseStateINSt7__cxx1112basic_stringIcSt11char_traitsIcESaIcEEEE5StateaSEOS7_@Base 2.9.2+dfsg
 _ZN11SparseStateINSt7__cxx1112basic_stringIcSt11char_traitsIcESaIcEEEE5StateaSERKS7_@Base 2.9
 _ZN11SparseStateINSt7__cxx1112basic_stringIcSt11char_traitsIcESaIcEEEE6DeleteEi@Base 2.9
 _ZN11SparseStateINSt7__cxx1112basic_stringIcSt11char_traitsIcESaIcEEEE7ValueAtEi@Base 2.9
 _ZN11SparseStateINSt7__cxx1112basic_stringIcSt11char_traitsIcESaIcEEEEC1Ei@Base 2.9
 _ZN11SparseStateINSt7__cxx1112basic_stringIcSt11char_traitsIcESaIcEEEEC2Ei@Base 2.9
 _ZN11SparseStateINSt7__cxx1112basic_stringIcSt11char_traitsIcESaIcEEEED1Ev@Base 2.9
 _ZN11SparseStateINSt7__cxx1112basic_stringIcSt11char_traitsIcESaIcEEEED2Ev@Base 2.9
 _ZN11SparseStateIjE3SetEij@Base 2.8.4
 _ZN11SparseStateIjE4FindEi@Base 2.8.4
 _ZN11SparseStateIjE5StateC1Eij@Base 2.8.4
 _ZN11SparseStateIjE5StateC2Eij@Base 2.8.4
 _ZN11SparseStateIjE6DeleteEi@Base 2.8.4
 _ZN11SparseStateIjE7ValueAtEi@Base 2.8.4
 _ZN11SparseStateIjEC1Ei@Base 2.8.4
 _ZN11SparseStateIjEC2Ei@Base 2.8.4
 _ZN11SparseStateIjED1Ev@Base 2.8.4
 _ZN11SparseStateIjED2Ev@Base 2.8.4
 _ZN11SplitVectorIP15MarkerHandleSetE10ReAllocateEi@Base 2.8.4
 _ZN11SplitVectorIP15MarkerHandleSetE11DeleteRangeEii@Base 2.8.4
 _ZN11SplitVectorIP15MarkerHandleSetE11InsertValueEiiS1_@Base 2.8.4
 _ZN11SplitVectorIP15MarkerHandleSetE4InitEv@Base 2.8.4
 _ZN11SplitVectorIP15MarkerHandleSetE5GapToEi@Base 2.8.4
 _ZN11SplitVectorIP15MarkerHandleSetE6DeleteEi@Base 2.8.4
 _ZN11SplitVectorIP15MarkerHandleSetE6InsertEiS1_@Base 2.8.4
 _ZN11SplitVectorIP15MarkerHandleSetE7RoomForEi@Base 2.8.4
 _ZN11SplitVectorIP15MarkerHandleSetE9DeleteAllEv@Base 2.8.4
 _ZN11SplitVectorIP15MarkerHandleSetEC1Ev@Base 2.8.4
 _ZN11SplitVectorIP15MarkerHandleSetEC2Ev@Base 2.8.4
 _ZN11SplitVectorIP15MarkerHandleSetED1Ev@Base 2.8.4
 _ZN11SplitVectorIP15MarkerHandleSetED2Ev@Base 2.8.4
 _ZN11SplitVectorIPSt6vectorIiSaIiEEE10ReAllocateEi@Base 2.9
 _ZN11SplitVectorIPSt6vectorIiSaIiEEE11DeleteRangeEii@Base 2.9
 _ZN11SplitVectorIPSt6vectorIiSaIiEEE11InsertValueEiiS3_@Base 2.9
 _ZN11SplitVectorIPSt6vectorIiSaIiEEE12EnsureLengthEi@Base 2.9
 _ZN11SplitVectorIPSt6vectorIiSaIiEEE4InitEv@Base 2.9
 _ZN11SplitVectorIPSt6vectorIiSaIiEEE5GapToEi@Base 2.9
 _ZN11SplitVectorIPSt6vectorIiSaIiEEE6DeleteEi@Base 2.9
 _ZN11SplitVectorIPSt6vectorIiSaIiEEE6InsertEiS3_@Base 2.9
 _ZN11SplitVectorIPSt6vectorIiSaIiEEE7RoomForEi@Base 2.9
 _ZN11SplitVectorIPSt6vectorIiSaIiEEE9DeleteAllEv@Base 2.9
 _ZN11SplitVectorIPSt6vectorIiSaIiEEEC1Ev@Base 2.9
 _ZN11SplitVectorIPSt6vectorIiSaIiEEEC2Ev@Base 2.9
 _ZN11SplitVectorIPSt6vectorIiSaIiEEED1Ev@Base 2.9
 _ZN11SplitVectorIPSt6vectorIiSaIiEEED2Ev@Base 2.9
 _ZN11SplitVectorIPcE10ReAllocateEi@Base 2.8.4
 _ZN11SplitVectorIPcE11DeleteRangeEii@Base 2.8.4
 _ZN11SplitVectorIPcE11InsertValueEiiS0_@Base 2.8.4
 _ZN11SplitVectorIPcE12EnsureLengthEi@Base 2.8.4
 _ZN11SplitVectorIPcE4InitEv@Base 2.8.4
 _ZN11SplitVectorIPcE5GapToEi@Base 2.8.4
 _ZN11SplitVectorIPcE6DeleteEi@Base 2.8.4
 _ZN11SplitVectorIPcE6InsertEiS0_@Base 2.8.4
 _ZN11SplitVectorIPcE7RoomForEi@Base 2.8.4
 _ZN11SplitVectorIPcE9DeleteAllEv@Base 2.8.4
 _ZN11SplitVectorIPcEC1Ev@Base 2.8.4
 _ZN11SplitVectorIPcEC2Ev@Base 2.8.4
 _ZN11SplitVectorIPcED1Ev@Base 2.8.4
 _ZN11SplitVectorIPcED2Ev@Base 2.8.4
 _ZN11SplitVectorIcE10ReAllocateEi@Base 2.8.4
 _ZN11SplitVectorIcE10SetValueAtEic@Base 2.8.4
 _ZN11SplitVectorIcE11DeleteRangeEii@Base 2.8.4
 _ZN11SplitVectorIcE11InsertValueEiic@Base 2.8.4
 _ZN11SplitVectorIcE12RangePointerEii@Base 2.8.4
 _ZN11SplitVectorIcE13BufferPointerEv@Base 2.8.4
 _ZN11SplitVectorIcE15InsertFromArrayEiPKcii@Base 2.8.4
 _ZN11SplitVectorIcE4InitEv@Base 2.8.4
 _ZN11SplitVectorIcE5GapToEi@Base 2.8.4
 _ZN11SplitVectorIcE7RoomForEi@Base 2.8.4
 _ZN11SplitVectorIcEC1Ev@Base 2.8.4
 _ZN11SplitVectorIcEC2Ev@Base 2.8.4
 _ZN11SplitVectorIcED1Ev@Base 2.8.4
 _ZN11SplitVectorIcED2Ev@Base 2.8.4
 _ZN11SplitVectorIiE10ReAllocateEi@Base 2.8.4
 _ZN11SplitVectorIiE10SetValueAtEii@Base 2.8.4
 _ZN11SplitVectorIiE11DeleteRangeEii@Base 2.8.4
 _ZN11SplitVectorIiE11InsertValueEiii@Base 2.8.4
 _ZN11SplitVectorIiE11SetGrowSizeEi@Base 2.8.4
 _ZN11SplitVectorIiE12EnsureLengthEi@Base 2.8.4
 _ZN11SplitVectorIiE4InitEv@Base 2.8.4
 _ZN11SplitVectorIiE5GapToEi@Base 2.8.4
 _ZN11SplitVectorIiE6DeleteEi@Base 2.8.4
 _ZN11SplitVectorIiE6InsertEii@Base 2.8.4
 _ZN11SplitVectorIiE7RoomForEi@Base 2.8.4
 _ZN11SplitVectorIiE9DeleteAllEv@Base 2.8.4
 _ZN11SplitVectorIiEC1Ev@Base 2.8.4
 _ZN11SplitVectorIiEC2Ev@Base 2.8.4
 _ZN11SplitVectorIiED1Ev@Base 2.8.4
 _ZN11SplitVectorIiED2Ev@Base 2.8.4
 _ZN11SurfaceImpl10InitPixMapEiiP7SurfacePv@Base 2.8.4
 _ZN11SurfaceImpl10LogPixelsYEv@Base 2.8.4
 _ZN11SurfaceImpl11InitialisedEv@Base 2.8.4
 _ZN11SurfaceImpl11SetDBCSModeEi@Base 2.8.4
 _ZN11SurfaceImpl11convertTextEPKci@Base 2.8.4
 _ZN11SurfaceImpl12convertQFontER4Font@Base 2.8.4
 _ZN11SurfaceImpl13DrawRGBAImageE10PRectangleiiPKh@Base 2.8.4
 _ZN11SurfaceImpl13FillRectangleE10PRectangle13ColourDesired@Base 2.8.4
 _ZN11SurfaceImpl13FillRectangleE10PRectangleR7Surface@Base 2.8.4
 _ZN11SurfaceImpl13MeasureWidthsER4FontPKciPf@Base 2.8.4
 _ZN11SurfaceImpl13RectangleDrawE10PRectangle13ColourDesiredS1_@Base 2.8.4
 _ZN11SurfaceImpl13convertQColorERK13ColourDesiredj@Base 2.8.4
 _ZN11SurfaceImpl14AlphaRectangleE10PRectanglei13ColourDesirediS1_ii@Base 2.8.4
 _ZN11SurfaceImpl14DrawTextNoClipE10PRectangleR4FontfPKci13ColourDesiredS5_@Base 2.8.4
 _ZN11SurfaceImpl14SetUnicodeModeEb@Base 2.8.4
 _ZN11SurfaceImpl15DrawTextClippedE10PRectangleR4FontfPKci13ColourDesiredS5_@Base 2.8.4
 _ZN11SurfaceImpl15ExternalLeadingER4Font@Base 2.8.4
 _ZN11SurfaceImpl15InternalLeadingER4Font@Base 2.8.4
 _ZN11SurfaceImpl16AverageCharWidthER4Font@Base 2.8.4
 _ZN11SurfaceImpl16DeviceHeightFontEi@Base 2.8.4
 _ZN11SurfaceImpl16FlushCachedStateEv@Base 2.8.4
 _ZN11SurfaceImpl16RoundedRectangleE10PRectangle13ColourDesiredS1_@Base 2.8.4
 _ZN11SurfaceImpl19DrawTextTransparentE10PRectangleR4FontfPKci13ColourDesired@Base 2.8.4
 _ZN11SurfaceImpl4CopyE10PRectangle5PointR7Surface@Base 2.8.4
 _ZN11SurfaceImpl4InitEP8QPainter@Base 2.8.4
 _ZN11SurfaceImpl4InitEPv@Base 2.8.4
 _ZN11SurfaceImpl4InitEPvS0_@Base 2.8.4
 _ZN11SurfaceImpl6AscentER4Font@Base 2.8.4
 _ZN11SurfaceImpl6HeightER4Font@Base 2.8.4
 _ZN11SurfaceImpl6LineToEii@Base 2.8.4
 _ZN11SurfaceImpl6MoveToEii@Base 2.8.4
 _ZN11SurfaceImpl7DescentER4Font@Base 2.8.4
 _ZN11SurfaceImpl7DrawXPME10PRectanglePK3XPM@Base 2.8.4
 _ZN11SurfaceImpl7EllipseE10PRectangle13ColourDesiredS1_@Base 2.8.4
 _ZN11SurfaceImpl7PolygonEP5Pointi13ColourDesiredS2_@Base 2.8.4
 _ZN11SurfaceImpl7ReleaseEv@Base 2.8.4
 _ZN11SurfaceImpl7SetClipE10PRectangle@Base 2.8.4
 _ZN11SurfaceImpl7metricsER4Font@Base 2.8.4
 _ZN11SurfaceImpl8drawRectERK10PRectangle@Base 2.8.4
 _ZN11SurfaceImpl8drawTextERK10PRectangleR4FontfPKci13ColourDesired@Base 2.8.4
 _ZN11SurfaceImpl9PenColourE13ColourDesired@Base 2.8.4
 _ZN11SurfaceImpl9WidthCharER4Fontc@Base 2.8.4
 _ZN11SurfaceImpl9WidthTextER4FontPKci@Base 2.8.4
 _ZN11SurfaceImplC1Ev@Base 2.8.4
 _ZN11SurfaceImplC2Ev@Base 2.8.4
 _ZN11SurfaceImplD0Ev@Base 2.8.4
 _ZN11SurfaceImplD1Ev@Base 2.8.4
 _ZN11SurfaceImplD2Ev@Base 2.8.4
 _ZN11TextSegmentC1EiiPK14Representation@Base 2.9
 _ZN11TextSegmentC2EiiPK14Representation@Base 2.9
 _ZN11UndoHistory12AppendActionE10actionTypeiPKciRbb@Base 2.8.4
 _ZN11UndoHistory12SetSavePointEv@Base 2.8.4
 _ZN11UndoHistory13EndUndoActionEv@Base 2.8.4
 _ZN11UndoHistory14EnsureUndoRoomEv@Base 2.8.4
 _ZN11UndoHistory14TentativeStartEv@Base 2.9
 _ZN11UndoHistory14TentativeStepsEv@Base 2.9
 _ZN11UndoHistory15BeginUndoActionEv@Base 2.8.4
 _ZN11UndoHistory15TentativeCommitEv@Base 2.9
 _ZN11UndoHistory16DropUndoSequenceEv@Base 2.8.4
 _ZN11UndoHistory17CompletedRedoStepEv@Base 2.8.4
 _ZN11UndoHistory17CompletedUndoStepEv@Base 2.8.4
 _ZN11UndoHistory17DeleteUndoHistoryEv@Base 2.8.4
 _ZN11UndoHistory9StartRedoEv@Base 2.8.4
 _ZN11UndoHistory9StartUndoEv@Base 2.8.4
 _ZN11UndoHistoryC1Ev@Base 2.8.4
 _ZN11UndoHistoryC2Ev@Base 2.8.4
 _ZN11UndoHistoryD1Ev@Base 2.8.4
 _ZN11UndoHistoryD2Ev@Base 2.8.4
 _ZN11WrapPending5ResetEv@Base 2.8.4
 _ZN11WrapPending7WrappedEi@Base 2.8.4
 _ZN11WrapPending8AddRangeEii@Base 2.8.4
 _ZN11WrapPendingC1Ev@Base 2.8.4
 _ZN11WrapPendingC2Ev@Base 2.8.4
 _ZN12AutoComplete10IsStopCharEc@Base 2.8.4
 _ZN12AutoComplete10SetTypesepEc@Base 2.8.4
 _ZN12AutoComplete12IsFillUpCharEc@Base 2.8.4
 _ZN12AutoComplete12SetSeparatorEc@Base 2.8.4
 _ZN12AutoComplete12SetStopCharsEPKc@Base 2.8.4
 _ZN12AutoComplete14SetFillUpCharsEPKc@Base 2.8.4
 _ZN12AutoComplete4MoveEi@Base 2.8.4
 _ZN12AutoComplete4ShowEb@Base 2.8.4
 _ZN12AutoComplete5StartER6Windowii5Pointiibi@Base 2.8.4
 _ZN12AutoComplete6CancelEv@Base 2.8.4
 _ZN12AutoComplete6SelectEPKc@Base 2.8.4
 _ZN12AutoComplete7SetListEPKc@Base 2.8.4
 _ZN12AutoCompleteC1Ev@Base 2.8.4
 _ZN12AutoCompleteC2Ev@Base 2.8.4
 _ZN12AutoCompleteD1Ev@Base 2.8.4
 _ZN12AutoCompleteD2Ev@Base 2.8.4
 _ZN12BuiltinRegex20SubstituteByPositionEP8DocumentPKcPi@Base 2.8.4
 _ZN12BuiltinRegex8FindTextEP8DocumentiiPKcbbbiPi@Base 2.8.4
 _ZN12BuiltinRegexC1EP12CharClassify@Base 2.8.4
 _ZN12BuiltinRegexC2EP12CharClassify@Base 2.8.4
 _ZN12BuiltinRegexD0Ev@Base 2.8.4
 _ZN12BuiltinRegexD1Ev@Base 2.8.4
 _ZN12BuiltinRegexD2Ev@Base 2.8.4
 _ZN12CharClassify14SetCharClassesEPKhNS_2ccE@Base 2.8.4
 _ZN12CharClassify15GetCharsOfClassENS_2ccEPh@Base 2.8.4
 _ZN12CharClassify21SetDefaultCharClassesEb@Base 2.8.4
 _ZN12CharClassifyC1Ev@Base 2.8.4
 _ZN12CharClassifyC2Ev@Base 2.8.4
 _ZN12CharacterSet3AddEi@Base 2.8.4
 _ZN12CharacterSet9AddStringEPKc@Base 2.8.4
 _ZN12CharacterSetC1ENS_7setBaseEPKcib@Base 2.8.4
 _ZN12CharacterSetC2ENS_7setBaseEPKcib@Base 2.8.4
 _ZN12CharacterSetD1Ev@Base 2.8.4
 _ZN12CharacterSetD2Ev@Base 2.8.4
 _ZN12CharacterSetaSERKS_@Base 2.8.4
 _ZN12FontRealised7RealiseER7SurfaceiiRK17FontSpecification@Base 2.8.4
 _ZN12FontRealisedC1Ev@Base 2.8.4
 _ZN12FontRealisedC2Ev@Base 2.8.4
 _ZN12FontRealisedD0Ev@Base 2.8.4
 _ZN12FontRealisedD1Ev@Base 2.8.4
 _ZN12FontRealisedD2Ev@Base 2.8.4
 _ZN12KeyModifiersC1Eii@Base 2.9
 _ZN12KeyModifiersC2Eii@Base 2.9
 _ZN12LexInterface21LineEndTypesSupportedEv@Base 2.8.4
 _ZN12LexInterface9ColouriseEii@Base 2.8.4
 _ZN12LexInterfaceC1EP8Document@Base 2.8.4
 _ZN12LexInterfaceC2EP8Document@Base 2.8.4
 _ZN12LexInterfaceD0Ev@Base 2.8.4
 _ZN12LexInterfaceD1Ev@Base 2.8.4
 _ZN12LexInterfaceD2Ev@Base 2.8.4
 _ZN12LexerHaskell11PrivateCallEiPv@Base 2.8.4
 _ZN12LexerHaskell11PropertySetEPKcS1_@Base 2.8.4
 _ZN12LexerHaskell11WordListSetEiPKc@Base 2.8.4
 _ZN12LexerHaskell12PropertyTypeEPKc@Base 2.8.4
 _ZN12LexerHaskell13PropertyNamesEv@Base 2.8.4
 _ZN12LexerHaskell15HaskellLineInfo11ToLineStateEv@Base 2.8.4
 _ZN12LexerHaskell15HaskellLineInfoC1Ei@Base 2.8.4
 _ZN12LexerHaskell15HaskellLineInfoC2Ei@Base 2.8.4
 _ZN12LexerHaskell16DescribePropertyEPKc@Base 2.8.4
 _ZN12LexerHaskell19LexerFactoryHaskellEv@Base 2.8.4
 _ZN12LexerHaskell20DescribeWordListSetsEv@Base 2.8.4
 _ZN12LexerHaskell27LexerFactoryLiterateHaskellEv@Base 2.8.4
 _ZN12LexerHaskell3LexEjiiP9IDocument@Base 2.8.4
 _ZN12LexerHaskell4FoldEjiiP9IDocument@Base 2.8.4
 _ZN12LexerHaskell7ReleaseEv@Base 2.8.4
 _ZN12LexerHaskellC1Eb@Base 2.8.4
 _ZN12LexerHaskellC2Eb@Base 2.8.4
 _ZN12LexerHaskellD0Ev@Base 2.8.4
 _ZN12LexerHaskellD1Ev@Base 2.8.4
 _ZN12LexerHaskellD2Ev@Base 2.8.4
 _ZN12LexerLibrary7ReleaseEv@Base 2.8.4
 _ZN12LexerLibraryC1EPKc@Base 2.8.4
 _ZN12LexerLibraryC2EPKc@Base 2.8.4
 _ZN12LexerLibraryD1Ev@Base 2.8.4
 _ZN12LexerLibraryD2Ev@Base 2.8.4
 _ZN12LexerManager11GetInstanceEv@Base 2.8.4
 _ZN12LexerManager11theInstanceE@Base 2.8.4
 _ZN12LexerManager14DeleteInstanceEv@Base 2.8.4
 _ZN12LexerManager16LoadLexerLibraryEPKc@Base 2.8.4
 _ZN12LexerManager4LoadEPKc@Base 2.8.4
 _ZN12LexerManager5ClearEv@Base 2.8.4
 _ZN12LexerManagerC1Ev@Base 2.8.4
 _ZN12LexerManagerC2Ev@Base 2.8.4
 _ZN12LexerManagerD1Ev@Base 2.8.4
 _ZN12LexerManagerD2Ev@Base 2.8.4
 _ZN12LexerVerilog10MaskActiveEi@Base 2.9
 _ZN12LexerVerilog11PrivateCallEiPv@Base 2.9
 _ZN12LexerVerilog11PropertySetEPKcS1_@Base 2.9
 _ZN12LexerVerilog11SymbolValueC1ERKNSt7__cxx1112basic_stringIcSt11char_traitsIcESaIcEEES8_@Base 2.9
 _ZN12LexerVerilog11SymbolValueC1ERKS0_@Base 2.9
 _ZN12LexerVerilog11SymbolValueC2ERKNSt7__cxx1112basic_stringIcSt11char_traitsIcESaIcEEES8_@Base 2.9
 _ZN12LexerVerilog11SymbolValueC2ERKS0_@Base 2.9
 _ZN12LexerVerilog11SymbolValueD1Ev@Base 2.9
 _ZN12LexerVerilog11SymbolValueD2Ev@Base 2.9
 _ZN12LexerVerilog11SymbolValueaSEOS0_@Base 2.9.2+dfsg
 _ZN12LexerVerilog11SymbolValueaSERKNSt7__cxx1112basic_stringIcSt11char_traitsIcESaIcEEE@Base 2.9
 _ZN12LexerVerilog11WordListSetEiPKc@Base 2.9
 _ZN12LexerVerilog12PropertyTypeEPKc@Base 2.9
 _ZN12LexerVerilog13FreeSubStylesEv@Base 2.9
 _ZN12LexerVerilog13PropertyNamesEv@Base 2.9
 _ZN12LexerVerilog14SetIdentifiersEiPKc@Base 2.9
 _ZN12LexerVerilog14SubStylesStartEi@Base 2.9
 _ZN12LexerVerilog15SubStylesLengthEi@Base 2.9
 _ZN12LexerVerilog16DescribePropertyEPKc@Base 2.9
 _ZN12LexerVerilog16GetSubStyleBasesEv@Base 2.9
 _ZN12LexerVerilog17AllocateSubStylesEii@Base 2.9
 _ZN12LexerVerilog17StyleFromSubStyleEi@Base 2.9
 _ZN12LexerVerilog19LexerFactoryVerilogEv@Base 2.9
 _ZN12LexerVerilog20DescribeWordListSetsEv@Base 2.9
 _ZN12LexerVerilog21LineEndTypesSupportedEv@Base 2.9
 _ZN12LexerVerilog21PrimaryStyleFromStyleEi@Base 2.9
 _ZN12LexerVerilog25DistanceToSecondaryStylesEv@Base 2.9
 _ZN12LexerVerilog3LexEjiiP9IDocument@Base 2.9
 _ZN12LexerVerilog4FoldEjiiP9IDocument@Base 2.9
 _ZN12LexerVerilog7ReleaseEv@Base 2.9
 _ZN12LexerVerilogC1Ev@Base 2.9
 _ZN12LexerVerilogC2Ev@Base 2.9
 _ZN12LexerVerilogD0Ev@Base 2.9
 _ZN12LexerVerilogD1Ev@Base 2.9
 _ZN12LexerVerilogD2Ev@Base 2.9
 _ZN12LineTabstops10AddTabstopEii@Base 2.9
 _ZN12LineTabstops10InsertLineEi@Base 2.9
 _ZN12LineTabstops10RemoveLineEi@Base 2.9
 _ZN12LineTabstops13ClearTabstopsEi@Base 2.9
 _ZN12LineTabstops4InitEv@Base 2.9
 _ZN12LineTabstopsC1Ev@Base 2.9
 _ZN12LineTabstopsC2Ev@Base 2.9
 _ZN12LineTabstopsD0Ev@Base 2.9
 _ZN12LineTabstopsD1Ev@Base 2.9
 _ZN12LineTabstopsD2Ev@Base 2.9
 _ZN12OptionSetAsmC1Ev@Base 2.8.4
 _ZN12OptionSetAsmC2Ev@Base 2.8.4
 _ZN12OptionSetAsmD0Ev@Base 2.8.4
 _ZN12OptionSetAsmD1Ev@Base 2.8.4
 _ZN12OptionSetAsmD2Ev@Base 2.8.4
 _ZN12OptionSetSQLC1Ev@Base 2.8.4
 _ZN12OptionSetSQLC2Ev@Base 2.8.4
 _ZN12OptionSetSQLD0Ev@Base 2.8.4
 _ZN12OptionSetSQLD1Ev@Base 2.8.4
 _ZN12OptionSetSQLD2Ev@Base 2.8.4
 _ZN12OptionsBasicC1Ev@Base 2.8.4
 _ZN12OptionsBasicC2Ev@Base 2.8.4
 _ZN12OptionsBasicD1Ev@Base 2.8.4
 _ZN12OptionsBasicD2Ev@Base 2.8.4
 _ZN12Partitioning10InsertTextEii@Base 2.8.4
 _ZN12Partitioning15InsertPartitionEii@Base 2.8.4
 _ZN12Partitioning15RemovePartitionEi@Base 2.8.4
 _ZN12Partitioning25SetPartitionStartPositionEii@Base 2.8.4
 _ZN12Partitioning8AllocateEi@Base 2.8.4
 _ZN12Partitioning8BackStepEi@Base 2.8.4
 _ZN12Partitioning9ApplyStepEi@Base 2.8.4
 _ZN12Partitioning9DeleteAllEv@Base 2.8.4
 _ZN12PartitioningC1Ei@Base 2.8.4
 _ZN12PartitioningC2Ei@Base 2.8.4
 _ZN12PartitioningD1Ev@Base 2.8.4
 _ZN12PartitioningD2Ev@Base 2.8.4
 _ZN12QMapNodeBase25callDestructorIfNecessaryI5QListI5QPairIjjEEEEN9QtPrivate9QEnableIfIXsr9QTypeInfoIT_E9isComplexEvE4TypeERS8_@Base 2.9.2+dfsg
 _ZN12QMapNodeBase25callDestructorIfNecessaryI7QPixmapEEN9QtPrivate9QEnableIfIXsr9QTypeInfoIT_E9isComplexEvE4TypeERS5_@Base 2.9.2+dfsg
 _ZN12QMapNodeBase25callDestructorIfNecessaryI7QStringEEN9QtPrivate9QEnableIfIXsr9QTypeInfoIT_E9isComplexEvE4TypeERS5_@Base 2.9.2+dfsg
 _ZN12QMapNodeBase25callDestructorIfNecessaryIN9QsciLexer9StyleDataEEEN9QtPrivate9QEnableIfIXsr9QTypeInfoIT_E9isComplexEvE4TypeERS6_@Base 2.9.2+dfsg
 _ZN12QMapNodeBase25callDestructorIfNecessaryIiEEN9QtPrivate9QEnableIfIXntsr9QTypeInfoIT_E9isComplexEvE4TypeERS4_@Base 2.9.2+dfsg
 _ZN12QMapNodeBase8setColorENS_5ColorE@Base 2.8.4
 _ZN12QMapNodeBase9setParentEPS_@Base 2.8.4
 _ZN12QWeakPointerI7QObjectE4swapERS1_@Base 2.9.3
 _ZN12QWeakPointerI7QObjectE6assignIS0_EERS1_PT_@Base 2.8.4
 _ZN12QWeakPointerI7QObjectEC1EOS1_@Base 2.9.3
 _ZN12QWeakPointerI7QObjectEC1Ev@Base 2.8.4
 _ZN12QWeakPointerI7QObjectEC1IS0_EEPT_b@Base 2.8.4
 _ZN12QWeakPointerI7QObjectEC2EOS1_@Base 2.9.3
 _ZN12QWeakPointerI7QObjectEC2Ev@Base 2.8.4
 _ZN12QWeakPointerI7QObjectEC2IS0_EEPT_b@Base 2.8.4
 _ZN12QWeakPointerI7QObjectED1Ev@Base 2.8.4
 _ZN12QWeakPointerI7QObjectED2Ev@Base 2.8.4
 _ZN12QWeakPointerI7QObjectEaSEOS1_@Base 2.9.3
 _ZN12QsciDocument11setModifiedEb@Base 2.8.4
 _ZN12QsciDocument6attachERKS_@Base 2.8.4
 _ZN12QsciDocument6detachEv@Base 2.8.4
 _ZN12QsciDocument7displayEP17QsciScintillaBasePKS_@Base 2.8.4
 _ZN12QsciDocument9undisplayEP17QsciScintillaBase@Base 2.8.4
 _ZN12QsciDocumentC1ERKS_@Base 2.8.4
 _ZN12QsciDocumentC1Ev@Base 2.8.4
 _ZN12QsciDocumentC2ERKS_@Base 2.8.4
 _ZN12QsciDocumentC2Ev@Base 2.8.4
 _ZN12QsciDocumentD0Ev@Base 2.8.4
 _ZN12QsciDocumentD1Ev@Base 2.8.4
 _ZN12QsciDocumentD2Ev@Base 2.8.4
 _ZN12QsciDocumentaSERKS_@Base 2.8.4
 _ZN12QsciLexerAVS11qt_metacallEN11QMetaObject4CallEiPPv@Base 2.8.4
 _ZN12QsciLexerAVS11qt_metacastEPKc@Base 2.8.4
 _ZN12QsciLexerAVS14readPropertiesER9QSettingsRK7QString@Base 2.8.4
 _ZN12QsciLexerAVS14setCommentPropEv@Base 2.8.4
 _ZN12QsciLexerAVS14setCompactPropEv@Base 2.8.4
 _ZN12QsciLexerAVS14setFoldCompactEb@Base 2.8.4
 _ZN12QsciLexerAVS15setFoldCommentsEb@Base 2.8.4
 _ZN12QsciLexerAVS16staticMetaObjectE@Base 2.8.4
 _ZN12QsciLexerAVS17refreshPropertiesEv@Base 2.8.4
 _ZN12QsciLexerAVS2trEPKcS1_i@Base 2.8.4
 _ZN12QsciLexerAVSC1EP7QObject@Base 2.8.4
 _ZN12QsciLexerAVSC2EP7QObject@Base 2.8.4
 _ZN12QsciLexerAVSD0Ev@Base 2.8.4
 _ZN12QsciLexerAVSD1Ev@Base 2.8.4
 _ZN12QsciLexerAVSD2Ev@Base 2.8.4
 _ZN12QsciLexerCPP11qt_metacallEN11QMetaObject4CallEiPPv@Base 2.8.4
 _ZN12QsciLexerCPP11qt_metacastEPKc@Base 2.8.4
 _ZN12QsciLexerCPP13setAtElsePropEv@Base 2.8.4
 _ZN12QsciLexerCPP13setFoldAtElseEb@Base 2.8.4
 _ZN12QsciLexerCPP14readPropertiesER9QSettingsRK7QString@Base 2.8.4
 _ZN12QsciLexerCPP14setCommentPropEv@Base 2.8.4
 _ZN12QsciLexerCPP14setCompactPropEv@Base 2.8.4
 _ZN12QsciLexerCPP14setDollarsPropEv@Base 2.8.4
 _ZN12QsciLexerCPP14setFoldCompactEb@Base 2.8.4
 _ZN12QsciLexerCPP14setPreprocPropEv@Base 2.8.4
 _ZN12QsciLexerCPP15setFoldCommentsEb@Base 2.8.4
 _ZN12QsciLexerCPP16staticMetaObjectE@Base 2.8.4
 _ZN12QsciLexerCPP17refreshPropertiesEv@Base 2.8.4
 _ZN12QsciLexerCPP17setDollarsAllowedEb@Base 2.8.4
 _ZN12QsciLexerCPP19setFoldPreprocessorEb@Base 2.8.4
 _ZN12QsciLexerCPP19setStylePreprocPropEv@Base 2.8.4
 _ZN12QsciLexerCPP20setHighlightBackPropEv@Base 2.9
 _ZN12QsciLexerCPP20setHighlightHashPropEv@Base 2.8.4
 _ZN12QsciLexerCPP20setStylePreprocessorEb@Base 2.8.4
 _ZN12QsciLexerCPP22setHighlightEscapePropEv@Base 2.9
 _ZN12QsciLexerCPP22setHighlightTriplePropEv@Base 2.8.4
 _ZN12QsciLexerCPP27setHighlightEscapeSequencesEb@Base 2.9
 _ZN12QsciLexerCPP27setVerbatimStringEscapePropEv@Base 2.9
 _ZN12QsciLexerCPP29setHighlightBackQuotedStringsEb@Base 2.9
 _ZN12QsciLexerCPP29setHighlightHashQuotedStringsEb@Base 2.8.4
 _ZN12QsciLexerCPP2trEPKcS1_i@Base 2.8.4
 _ZN12QsciLexerCPP31setHighlightTripleQuotedStringsEb@Base 2.8.4
 _ZN12QsciLexerCPP39setVerbatimStringEscapeSequencesAllowedEb@Base 2.9
 _ZN12QsciLexerCPPC1EP7QObjectb@Base 2.8.4
 _ZN12QsciLexerCPPC2EP7QObjectb@Base 2.8.4
 _ZN12QsciLexerCPPD0Ev@Base 2.8.4
 _ZN12QsciLexerCPPD1Ev@Base 2.8.4
 _ZN12QsciLexerCPPD2Ev@Base 2.8.4
 _ZN12QsciLexerCSS10setHSSPropEv@Base 2.8.4
 _ZN12QsciLexerCSS11qt_metacallEN11QMetaObject4CallEiPPv@Base 2.8.4
 _ZN12QsciLexerCSS11qt_metacastEPKc@Base 2.8.4
 _ZN12QsciLexerCSS11setLessPropEv@Base 2.8.4
 _ZN12QsciLexerCSS11setSCSSPropEv@Base 2.8.4
 _ZN12QsciLexerCSS14readPropertiesER9QSettingsRK7QString@Base 2.8.4
 _ZN12QsciLexerCSS14setCommentPropEv@Base 2.8.4
 _ZN12QsciLexerCSS14setCompactPropEv@Base 2.8.4
 _ZN12QsciLexerCSS14setFoldCompactEb@Base 2.8.4
 _ZN12QsciLexerCSS14setHSSLanguageEb@Base 2.8.4
 _ZN12QsciLexerCSS15setFoldCommentsEb@Base 2.8.4
 _ZN12QsciLexerCSS15setLessLanguageEb@Base 2.8.4
 _ZN12QsciLexerCSS15setSCSSLanguageEb@Base 2.8.4
 _ZN12QsciLexerCSS16staticMetaObjectE@Base 2.8.4
 _ZN12QsciLexerCSS17refreshPropertiesEv@Base 2.8.4
 _ZN12QsciLexerCSS2trEPKcS1_i@Base 2.8.4
 _ZN12QsciLexerCSSC1EP7QObject@Base 2.8.4
 _ZN12QsciLexerCSSC2EP7QObject@Base 2.8.4
 _ZN12QsciLexerCSSD0Ev@Base 2.8.4
 _ZN12QsciLexerCSSD1Ev@Base 2.8.4
 _ZN12QsciLexerCSSD2Ev@Base 2.8.4
 _ZN12QsciLexerIDL11qt_metacallEN11QMetaObject4CallEiPPv@Base 2.8.4
 _ZN12QsciLexerIDL11qt_metacastEPKc@Base 2.8.4
 _ZN12QsciLexerIDL16staticMetaObjectE@Base 2.8.4
 _ZN12QsciLexerIDL2trEPKcS1_i@Base 2.8.4
 _ZN12QsciLexerIDLC1EP7QObject@Base 2.8.4
 _ZN12QsciLexerIDLC2EP7QObject@Base 2.8.4
 _ZN12QsciLexerIDLD0Ev@Base 2.8.4
 _ZN12QsciLexerIDLD1Ev@Base 2.8.4
 _ZN12QsciLexerIDLD2Ev@Base 2.8.4
 _ZN12QsciLexerLua11qt_metacallEN11QMetaObject4CallEiPPv@Base 2.8.4
 _ZN12QsciLexerLua11qt_metacastEPKc@Base 2.8.4
 _ZN12QsciLexerLua14readPropertiesER9QSettingsRK7QString@Base 2.8.4
 _ZN12QsciLexerLua14setCompactPropEv@Base 2.8.4
 _ZN12QsciLexerLua14setFoldCompactEb@Base 2.8.4
 _ZN12QsciLexerLua16staticMetaObjectE@Base 2.8.4
 _ZN12QsciLexerLua17refreshPropertiesEv@Base 2.8.4
 _ZN12QsciLexerLua2trEPKcS1_i@Base 2.8.4
 _ZN12QsciLexerLuaC1EP7QObject@Base 2.8.4
 _ZN12QsciLexerLuaC2EP7QObject@Base 2.8.4
 _ZN12QsciLexerLuaD0Ev@Base 2.8.4
 _ZN12QsciLexerLuaD1Ev@Base 2.8.4
 _ZN12QsciLexerLuaD2Ev@Base 2.8.4
 _ZN12QsciLexerPOV11qt_metacallEN11QMetaObject4CallEiPPv@Base 2.8.4
 _ZN12QsciLexerPOV11qt_metacastEPKc@Base 2.8.4
 _ZN12QsciLexerPOV14readPropertiesER9QSettingsRK7QString@Base 2.8.4
 _ZN12QsciLexerPOV14setCommentPropEv@Base 2.8.4
 _ZN12QsciLexerPOV14setCompactPropEv@Base 2.8.4
 _ZN12QsciLexerPOV14setFoldCompactEb@Base 2.8.4
 _ZN12QsciLexerPOV15setFoldCommentsEb@Base 2.8.4
 _ZN12QsciLexerPOV16setDirectivePropEv@Base 2.8.4
 _ZN12QsciLexerPOV16staticMetaObjectE@Base 2.8.4
 _ZN12QsciLexerPOV17refreshPropertiesEv@Base 2.8.4
 _ZN12QsciLexerPOV17setFoldDirectivesEb@Base 2.8.4
 _ZN12QsciLexerPOV2trEPKcS1_i@Base 2.8.4
 _ZN12QsciLexerPOVC1EP7QObject@Base 2.8.4
 _ZN12QsciLexerPOVC2EP7QObject@Base 2.8.4
 _ZN12QsciLexerPOVD0Ev@Base 2.8.4
 _ZN12QsciLexerPOVD1Ev@Base 2.8.4
 _ZN12QsciLexerPOVD2Ev@Base 2.8.4
 _ZN12QsciLexerSQL11qt_metacallEN11QMetaObject4CallEiPPv@Base 2.8.4
 _ZN12QsciLexerSQL11qt_metacastEPKc@Base 2.8.4
 _ZN12QsciLexerSQL13setAtElsePropEv@Base 2.8.4
 _ZN12QsciLexerSQL13setFoldAtElseEb@Base 2.8.4
 _ZN12QsciLexerSQL14readPropertiesER9QSettingsRK7QString@Base 2.8.4
 _ZN12QsciLexerSQL14setCommentPropEv@Base 2.8.4
 _ZN12QsciLexerSQL14setCompactPropEv@Base 2.8.4
 _ZN12QsciLexerSQL14setDottedWordsEb@Base 2.8.4
 _ZN12QsciLexerSQL14setFoldCompactEb@Base 2.8.4
 _ZN12QsciLexerSQL15setFoldCommentsEb@Base 2.8.4
 _ZN12QsciLexerSQL15setHashCommentsEb@Base 2.8.4
 _ZN12QsciLexerSQL16setFoldOnlyBeginEb@Base 2.8.4
 _ZN12QsciLexerSQL16setOnlyBeginPropEv@Base 2.8.4
 _ZN12QsciLexerSQL16staticMetaObjectE@Base 2.8.4
 _ZN12QsciLexerSQL17refreshPropertiesEv@Base 2.8.4
 _ZN12QsciLexerSQL19setBackslashEscapesEb@Base 2.8.4
 _ZN12QsciLexerSQL20setQuotedIdentifiersEb@Base 2.8.4
 _ZN12QsciLexerSQL22setAllowDottedWordPropEv@Base 2.8.4
 _ZN12QsciLexerSQL23setBackslashEscapesPropEv@Base 2.8.4
 _ZN12QsciLexerSQL24setNumbersignCommentPropEv@Base 2.8.4
 _ZN12QsciLexerSQL26setBackticksIdentifierPropEv@Base 2.8.4
 _ZN12QsciLexerSQL2trEPKcS1_i@Base 2.8.4
 _ZN12QsciLexerSQLC1EP7QObject@Base 2.8.4
 _ZN12QsciLexerSQLC2EP7QObject@Base 2.8.4
 _ZN12QsciLexerSQLD0Ev@Base 2.8.4
 _ZN12QsciLexerSQLD1Ev@Base 2.8.4
 _ZN12QsciLexerSQLD2Ev@Base 2.8.4
 _ZN12QsciLexerTCL11qt_metacallEN11QMetaObject4CallEiPPv@Base 2.8.4
 _ZN12QsciLexerTCL11qt_metacastEPKc@Base 2.8.4
 _ZN12QsciLexerTCL14readPropertiesER9QSettingsRK7QString@Base 2.8.4
 _ZN12QsciLexerTCL14setCommentPropEv@Base 2.8.4
 _ZN12QsciLexerTCL15setFoldCommentsEb@Base 2.8.4
 _ZN12QsciLexerTCL16staticMetaObjectE@Base 2.8.4
 _ZN12QsciLexerTCL17refreshPropertiesEv@Base 2.8.4
 _ZN12QsciLexerTCL2trEPKcS1_i@Base 2.8.4
 _ZN12QsciLexerTCLC1EP7QObject@Base 2.8.4
 _ZN12QsciLexerTCLC2EP7QObject@Base 2.8.4
 _ZN12QsciLexerTCLD0Ev@Base 2.8.4
 _ZN12QsciLexerTCLD1Ev@Base 2.8.4
 _ZN12QsciLexerTCLD2Ev@Base 2.8.4
 _ZN12QsciLexerTeX11qt_metacallEN11QMetaObject4CallEiPPv@Base 2.8.4
 _ZN12QsciLexerTeX11qt_metacastEPKc@Base 2.8.4
 _ZN12QsciLexerTeX12setProcessIfEb@Base 2.8.4
 _ZN12QsciLexerTeX13setAutoIfPropEv@Base 2.8.4
 _ZN12QsciLexerTeX14readPropertiesER9QSettingsRK7QString@Base 2.8.4
 _ZN12QsciLexerTeX14setCommentPropEv@Base 2.8.4
 _ZN12QsciLexerTeX14setCompactPropEv@Base 2.8.4
 _ZN12QsciLexerTeX14setFoldCompactEb@Base 2.8.4
 _ZN12QsciLexerTeX15setFoldCommentsEb@Base 2.8.4
 _ZN12QsciLexerTeX16staticMetaObjectE@Base 2.8.4
 _ZN12QsciLexerTeX17refreshPropertiesEv@Base 2.8.4
 _ZN12QsciLexerTeX18setProcessCommentsEb@Base 2.8.4
 _ZN12QsciLexerTeX22setProcessCommentsPropEv@Base 2.8.4
 _ZN12QsciLexerTeX2trEPKcS1_i@Base 2.8.4
 _ZN12QsciLexerTeXC1EP7QObject@Base 2.8.4
 _ZN12QsciLexerTeXC2EP7QObject@Base 2.8.4
 _ZN12QsciLexerTeXD0Ev@Base 2.8.4
 _ZN12QsciLexerTeXD1Ev@Base 2.8.4
 _ZN12QsciLexerTeXD2Ev@Base 2.8.4
 _ZN12QsciLexerXML11qt_metacallEN11QMetaObject4CallEiPPv@Base 2.8.4
 _ZN12QsciLexerXML11qt_metacastEPKc@Base 2.8.4
 _ZN12QsciLexerXML14readPropertiesER9QSettingsRK7QString@Base 2.8.4
 _ZN12QsciLexerXML14setScriptsPropEv@Base 2.8.4
 _ZN12QsciLexerXML16setScriptsStyledEb@Base 2.8.4
 _ZN12QsciLexerXML16staticMetaObjectE@Base 2.8.4
 _ZN12QsciLexerXML17refreshPropertiesEv@Base 2.8.4
 _ZN12QsciLexerXMLC1EP7QObject@Base 2.8.4
 _ZN12QsciLexerXMLC2EP7QObject@Base 2.8.4
 _ZN12QsciLexerXMLD0Ev@Base 2.8.4
 _ZN12QsciLexerXMLD1Ev@Base 2.8.4
 _ZN12QsciLexerXMLD2Ev@Base 2.8.4
 _ZN12QsciSciPopup11qt_metacallEN11QMetaObject4CallEiPPv@Base 2.8.4
 _ZN12QsciSciPopup11qt_metacastEPKc@Base 2.8.4
 _ZN12QsciSciPopup12on_triggeredEi@Base 2.8.4
 _ZN12QsciSciPopup16staticMetaObjectE@Base 2.8.4
 _ZN12QsciSciPopup7addItemERK7QStringibP15QsciScintillaQt@Base 2.8.4
 _ZN12QsciSciPopupC1Ev@Base 2.8.4
 _ZN12QsciSciPopupC2Ev@Base 2.8.4
 _ZN12QsciSciPopupD0Ev@Base 2.8.4
 _ZN12QsciSciPopupD1Ev@Base 2.8.4
 _ZN12QsciSciPopupD2Ev@Base 2.8.4
 _ZN12StyleContext10GetCurrentEPcj@Base 2.8.4
 _ZN12StyleContext11ChangeStateEi@Base 2.8.4
 _ZN12StyleContext11GetNextCharEv@Base 2.8.4
 _ZN12StyleContext11GetRelativeEi@Base 2.8.4
 _ZN12StyleContext12ForwardBytesEi@Base 2.8.4
 _ZN12StyleContext15ForwardSetStateEi@Base 2.8.4
 _ZN12StyleContext15MatchIgnoreCaseEPKc@Base 2.8.4
 _ZN12StyleContext17GetCurrentLoweredEPcj@Base 2.8.4
 _ZN12StyleContext20GetRelativeCharacterEi@Base 2.8.4
 _ZN12StyleContext5MatchEPKc@Base 2.8.4
 _ZN12StyleContext7ForwardEi@Base 2.8.4
 _ZN12StyleContext7ForwardEv@Base 2.8.4
 _ZN12StyleContext8CompleteEv@Base 2.8.4
 _ZN12StyleContext8SetStateEi@Base 2.8.4
 _ZN12StyleContextC1EjjiR11LexAccessorc@Base 2.8.4
 _ZN12StyleContextC2EjjiR11LexAccessorc@Base 2.8.4
 _ZN13ColourDesired3SetEjjj@Base 2.8.4
 _ZN13ColourDesiredC1Ejjj@Base 2.8.4
 _ZN13ColourDesiredC1El@Base 2.8.4
 _ZN13ColourDesiredC2Ejjj@Base 2.8.4
 _ZN13ColourDesiredC2El@Base 2.8.4
 _ZN13LexerRegistry11AtValueNameER11LexAccessori@Base 2.9
 _ZN13LexerRegistry11AtValueTypeER11LexAccessori@Base 2.9
 _ZN13LexerRegistry11PrivateCallEiPv@Base 2.9
 _ZN13LexerRegistry11PropertySetEPKcS1_@Base 2.9
 _ZN13LexerRegistry11WordListSetEiPKc@Base 2.9
 _ZN13LexerRegistry12AtKeyPathEndER11LexAccessori@Base 2.9
 _ZN13LexerRegistry12PropertyTypeEPKc@Base 2.9
 _ZN13LexerRegistry13IsStringStateEi@Base 2.9
 _ZN13LexerRegistry13PropertyNamesEv@Base 2.9
 _ZN13LexerRegistry14IsKeyPathStateEi@Base 2.9
 _ZN13LexerRegistry16DescribePropertyEPKc@Base 2.9
 _ZN13LexerRegistry19IsNextNonWhitespaceER11LexAccessoric@Base 2.9
 _ZN13LexerRegistry20DescribeWordListSetsEv@Base 2.9
 _ZN13LexerRegistry20LexerFactoryRegistryEv@Base 2.9
 _ZN13LexerRegistry3LexEjiiP9IDocument@Base 2.9
 _ZN13LexerRegistry4FoldEjiiP9IDocument@Base 2.9
 _ZN13LexerRegistry6AtGUIDER11LexAccessori@Base 2.9
 _ZN13LexerRegistry7ReleaseEv@Base 2.9
 _ZN13LexerRegistryC1Ev@Base 2.9
 _ZN13LexerRegistryC2Ev@Base 2.9
 _ZN13LexerRegistryD0Ev@Base 2.9
 _ZN13LexerRegistryD1Ev@Base 2.9
 _ZN13LexerRegistryD2Ev@Base 2.9
 _ZN13OptionSetPerlC1Ev@Base 2.8.4
 _ZN13OptionSetPerlC2Ev@Base 2.8.4
 _ZN13OptionSetPerlD0Ev@Base 2.8.4
 _ZN13OptionSetPerlD1Ev@Base 2.8.4
 _ZN13OptionSetPerlD2Ev@Base 2.8.4
 _ZN13OptionSetRustC1Ev@Base 2.8.4
 _ZN13OptionSetRustC2Ev@Base 2.8.4
 _ZN13OptionSetRustD0Ev@Base 2.8.4
 _ZN13OptionSetRustD1Ev@Base 2.8.4
 _ZN13OptionSetRustD2Ev@Base 2.8.4
 _ZN13PositionCache13MeasureWidthsEP7SurfaceRK9ViewStylejPKcjPfP8Document@Base 2.9
 _ZN13PositionCache5ClearEv@Base 2.8.4
 _ZN13PositionCache7SetSizeEj@Base 2.9
 _ZN13PositionCacheC1Ev@Base 2.8.4
 _ZN13PositionCacheC2Ev@Base 2.8.4
 _ZN13PositionCacheD1Ev@Base 2.8.4
 _ZN13PositionCacheD2Ev@Base 2.8.4
 _ZN13PropSetSimple11SetMultipleEPKc@Base 2.8.4
 _ZN13PropSetSimple3SetEPKc@Base 2.8.4
 _ZN13PropSetSimple3SetEPKcS1_ii@Base 2.8.4
 _ZN13PropSetSimpleC1Ev@Base 2.8.4
 _ZN13PropSetSimpleC2Ev@Base 2.8.4
 _ZN13PropSetSimpleD0Ev@Base 2.8.4
 _ZN13PropSetSimpleD1Ev@Base 2.8.4
 _ZN13PropSetSimpleD2Ev@Base 2.8.4
 _ZN13QsciDocumentPC1Ev@Base 2.8.4
 _ZN13QsciDocumentPC2Ev@Base 2.8.4
 _ZN13QsciLexerBash11qt_metacallEN11QMetaObject4CallEiPPv@Base 2.8.4
 _ZN13QsciLexerBash11qt_metacastEPKc@Base 2.8.4
 _ZN13QsciLexerBash14readPropertiesER9QSettingsRK7QString@Base 2.8.4
 _ZN13QsciLexerBash14setCommentPropEv@Base 2.8.4
 _ZN13QsciLexerBash14setCompactPropEv@Base 2.8.4
 _ZN13QsciLexerBash14setFoldCompactEb@Base 2.8.4
 _ZN13QsciLexerBash15setFoldCommentsEb@Base 2.8.4
 _ZN13QsciLexerBash16staticMetaObjectE@Base 2.8.4
 _ZN13QsciLexerBash17refreshPropertiesEv@Base 2.8.4
 _ZN13QsciLexerBash2trEPKcS1_i@Base 2.8.4
 _ZN13QsciLexerBashC1EP7QObject@Base 2.8.4
 _ZN13QsciLexerBashC2EP7QObject@Base 2.8.4
 _ZN13QsciLexerBashD0Ev@Base 2.8.4
 _ZN13QsciLexerBashD1Ev@Base 2.8.4
 _ZN13QsciLexerBashD2Ev@Base 2.8.4
 _ZN13QsciLexerDiff11qt_metacallEN11QMetaObject4CallEiPPv@Base 2.8.4
 _ZN13QsciLexerDiff11qt_metacastEPKc@Base 2.8.4
 _ZN13QsciLexerDiff16staticMetaObjectE@Base 2.8.4
 _ZN13QsciLexerDiff2trEPKcS1_i@Base 2.8.4
 _ZN13QsciLexerDiffC1EP7QObject@Base 2.8.4
 _ZN13QsciLexerDiffC2EP7QObject@Base 2.8.4
 _ZN13QsciLexerDiffD0Ev@Base 2.8.4
 _ZN13QsciLexerDiffD1Ev@Base 2.8.4
 _ZN13QsciLexerDiffD2Ev@Base 2.8.4
 _ZN13QsciLexerHTML11qt_metacallEN11QMetaObject4CallEiPPv@Base 2.8.4
 _ZN13QsciLexerHTML11qt_metacastEPKc@Base 2.8.4
 _ZN13QsciLexerHTML11setMakoPropEv@Base 2.8.4
 _ZN13QsciLexerHTML13setDjangoPropEv@Base 2.8.4
 _ZN13QsciLexerHTML14readPropertiesER9QSettingsRK7QString@Base 2.8.4
 _ZN13QsciLexerHTML14setCompactPropEv@Base 2.8.4
 _ZN13QsciLexerHTML14setFoldCompactEb@Base 2.8.4
 _ZN13QsciLexerHTML14setPreprocPropEv@Base 2.8.4
 _ZN13QsciLexerHTML16setMakoTemplatesEb@Base 2.8.4
 _ZN13QsciLexerHTML16staticMetaObjectE@Base 2.8.4
 _ZN13QsciLexerHTML17refreshPropertiesEv@Base 2.8.4
 _ZN13QsciLexerHTML18setDjangoTemplatesEb@Base 2.8.4
 _ZN13QsciLexerHTML19setCaseSensTagsPropEv@Base 2.8.4
 _ZN13QsciLexerHTML19setFoldPreprocessorEb@Base 2.8.4
 _ZN13QsciLexerHTML20setCaseSensitiveTagsEb@Base 2.8.4
 _ZN13QsciLexerHTML21setFoldScriptCommentsEb@Base 2.8.4
 _ZN13QsciLexerHTML21setFoldScriptHeredocsEb@Base 2.8.4
 _ZN13QsciLexerHTML21setScriptCommentsPropEv@Base 2.8.4
 _ZN13QsciLexerHTML21setScriptHeredocsPropEv@Base 2.8.4
 _ZN13QsciLexerHTML2trEPKcS1_i@Base 2.8.4
 _ZN13QsciLexerHTMLC1EP7QObject@Base 2.8.4
 _ZN13QsciLexerHTMLC2EP7QObject@Base 2.8.4
 _ZN13QsciLexerHTMLD0Ev@Base 2.8.4
 _ZN13QsciLexerHTMLD1Ev@Base 2.8.4
 _ZN13QsciLexerHTMLD2Ev@Base 2.8.4
 _ZN13QsciLexerJava11qt_metacallEN11QMetaObject4CallEiPPv@Base 2.8.4
 _ZN13QsciLexerJava11qt_metacastEPKc@Base 2.8.4
 _ZN13QsciLexerJava16staticMetaObjectE@Base 2.8.4
 _ZN13QsciLexerJavaC1EP7QObject@Base 2.8.4
 _ZN13QsciLexerJavaC2EP7QObject@Base 2.8.4
 _ZN13QsciLexerJavaD0Ev@Base 2.8.4
 _ZN13QsciLexerJavaD1Ev@Base 2.8.4
 _ZN13QsciLexerJavaD2Ev@Base 2.8.4
 _ZN13QsciLexerPerl11qt_metacallEN11QMetaObject4CallEiPPv@Base 2.8.4
 _ZN13QsciLexerPerl11qt_metacastEPKc@Base 2.8.4
 _ZN13QsciLexerPerl13setAtElsePropEv@Base 2.8.4
 _ZN13QsciLexerPerl13setFoldAtElseEb@Base 2.8.4
 _ZN13QsciLexerPerl14readPropertiesER9QSettingsRK7QString@Base 2.8.4
 _ZN13QsciLexerPerl14setCommentPropEv@Base 2.8.4
 _ZN13QsciLexerPerl14setCompactPropEv@Base 2.8.4
 _ZN13QsciLexerPerl14setFoldCompactEb@Base 2.8.4
 _ZN13QsciLexerPerl15setFoldCommentsEb@Base 2.8.4
 _ZN13QsciLexerPerl15setFoldPackagesEb@Base 2.8.4
 _ZN13QsciLexerPerl15setPackagesPropEv@Base 2.8.4
 _ZN13QsciLexerPerl16setFoldPODBlocksEb@Base 2.8.4
 _ZN13QsciLexerPerl16setPODBlocksPropEv@Base 2.8.4
 _ZN13QsciLexerPerl16staticMetaObjectE@Base 2.8.4
 _ZN13QsciLexerPerl17refreshPropertiesEv@Base 2.8.4
 _ZN13QsciLexerPerl2trEPKcS1_i@Base 2.8.4
 _ZN13QsciLexerPerlC1EP7QObject@Base 2.8.4
 _ZN13QsciLexerPerlC2EP7QObject@Base 2.8.4
 _ZN13QsciLexerPerlD0Ev@Base 2.8.4
 _ZN13QsciLexerPerlD1Ev@Base 2.8.4
 _ZN13QsciLexerPerlD2Ev@Base 2.8.4
 _ZN13QsciLexerRuby11qt_metacallEN11QMetaObject4CallEiPPv@Base 2.8.4
 _ZN13QsciLexerRuby11qt_metacastEPKc@Base 2.8.4
 _ZN13QsciLexerRuby14readPropertiesER9QSettingsRK7QString@Base 2.8.4
 _ZN13QsciLexerRuby14setCommentPropEv@Base 2.8.4
 _ZN13QsciLexerRuby14setCompactPropEv@Base 2.8.4
 _ZN13QsciLexerRuby14setFoldCompactEb@Base 2.8.4
 _ZN13QsciLexerRuby15setFoldCommentsEb@Base 2.8.4
 _ZN13QsciLexerRuby16staticMetaObjectE@Base 2.8.4
 _ZN13QsciLexerRuby17refreshPropertiesEv@Base 2.8.4
 _ZN13QsciLexerRuby2trEPKcS1_i@Base 2.8.4
 _ZN13QsciLexerRubyC1EP7QObject@Base 2.8.4
 _ZN13QsciLexerRubyC2EP7QObject@Base 2.8.4
 _ZN13QsciLexerRubyD0Ev@Base 2.8.4
 _ZN13QsciLexerRubyD1Ev@Base 2.8.4
 _ZN13QsciLexerRubyD2Ev@Base 2.8.4
 _ZN13QsciLexerVHDL11qt_metacallEN11QMetaObject4CallEiPPv@Base 2.8.4
 _ZN13QsciLexerVHDL11qt_metacastEPKc@Base 2.8.4
 _ZN13QsciLexerVHDL13setAtElsePropEv@Base 2.8.4
 _ZN13QsciLexerVHDL13setFoldAtElseEb@Base 2.8.4
 _ZN13QsciLexerVHDL14readPropertiesER9QSettingsRK7QString@Base 2.8.4
 _ZN13QsciLexerVHDL14setAtBeginPropEv@Base 2.8.4
 _ZN13QsciLexerVHDL14setCommentPropEv@Base 2.8.4
 _ZN13QsciLexerVHDL14setCompactPropEv@Base 2.8.4
 _ZN13QsciLexerVHDL14setFoldAtBeginEb@Base 2.8.4
 _ZN13QsciLexerVHDL14setFoldCompactEb@Base 2.8.4
 _ZN13QsciLexerVHDL15setFoldCommentsEb@Base 2.8.4
 _ZN13QsciLexerVHDL16setAtParenthPropEv@Base 2.8.4
 _ZN13QsciLexerVHDL16staticMetaObjectE@Base 2.8.4
 _ZN13QsciLexerVHDL17refreshPropertiesEv@Base 2.8.4
 _ZN13QsciLexerVHDL20setFoldAtParenthesisEb@Base 2.8.4
 _ZN13QsciLexerVHDL2trEPKcS1_i@Base 2.8.4
 _ZN13QsciLexerVHDLC1EP7QObject@Base 2.8.4
 _ZN13QsciLexerVHDLC2EP7QObject@Base 2.8.4
 _ZN13QsciLexerVHDLD0Ev@Base 2.8.4
 _ZN13QsciLexerVHDLD1Ev@Base 2.8.4
 _ZN13QsciLexerVHDLD2Ev@Base 2.8.4
 _ZN13QsciLexerYAML11qt_metacallEN11QMetaObject4CallEiPPv@Base 2.8.4
 _ZN13QsciLexerYAML11qt_metacastEPKc@Base 2.8.4
 _ZN13QsciLexerYAML14readPropertiesER9QSettingsRK7QString@Base 2.8.4
 _ZN13QsciLexerYAML14setCommentPropEv@Base 2.8.4
 _ZN13QsciLexerYAML15setFoldCommentsEb@Base 2.8.4
 _ZN13QsciLexerYAML16staticMetaObjectE@Base 2.8.4
 _ZN13QsciLexerYAML17refreshPropertiesEv@Base 2.8.4
 _ZN13QsciLexerYAML2trEPKcS1_i@Base 2.8.4
 _ZN13QsciLexerYAMLC1EP7QObject@Base 2.8.4
 _ZN13QsciLexerYAMLC2EP7QObject@Base 2.8.4
 _ZN13QsciLexerYAMLD0Ev@Base 2.8.4
 _ZN13QsciLexerYAMLD1Ev@Base 2.8.4
 _ZN13QsciLexerYAMLD2Ev@Base 2.8.4
 _ZN13QsciListBoxQt12GetSelectionEv@Base 2.8.4
 _ZN13QsciListBoxQt13CaretFromEdgeEv@Base 2.8.4
 _ZN13QsciListBoxQt13RegisterImageEiPKc@Base 2.8.4
 _ZN13QsciListBoxQt14GetDesiredRectEv@Base 2.8.4
 _ZN13QsciListBoxQt14SetVisibleRowsEi@Base 2.8.4
 _ZN13QsciListBoxQt17RegisterRGBAImageEiiiPKh@Base 2.8.4
 _ZN13QsciListBoxQt19SetAverageCharWidthEi@Base 2.8.4
 _ZN13QsciListBoxQt20SetDoubleClickActionEPFvPvES0_@Base 2.8.4
 _ZN13QsciListBoxQt21ClearRegisteredImagesEv@Base 2.8.4
 _ZN13QsciListBoxQt4FindEPKc@Base 2.8.4
 _ZN13QsciListBoxQt4SortEv@Base 2.8.4
 _ZN13QsciListBoxQt5ClearEv@Base 2.8.4
 _ZN13QsciListBoxQt6AppendEPci@Base 2.8.4
 _ZN13QsciListBoxQt6CreateER6Windowi5Pointibi@Base 2.8.4
 _ZN13QsciListBoxQt6LengthEv@Base 2.8.4
 _ZN13QsciListBoxQt6SelectEi@Base 2.8.4
 _ZN13QsciListBoxQt7SetFontER4Font@Base 2.8.4
 _ZN13QsciListBoxQt7SetListEPKccc@Base 2.8.4
 _ZN13QsciListBoxQt8GetValueEiPci@Base 2.8.4
 _ZN13QsciListBoxQtC1Ev@Base 2.8.4
 _ZN13QsciListBoxQtC2Ev@Base 2.8.4
 _ZN13QsciListBoxQtD0Ev@Base 2.8.4
 _ZN13QsciListBoxQtD1Ev@Base 2.8.4
 _ZN13QsciListBoxQtD2Ev@Base 2.8.4
 _ZN13QsciScintilla10allocateIdERiRjii@Base 2.8.4
 _ZN13QsciScintilla10apiContextEiRiS0_@Base 2.8.4
 _ZN13QsciScintilla10braceMatchEv@Base 2.8.4
 _ZN13QsciScintilla10cancelListEv@Base 2.8.4
 _ZN13QsciScintilla10checkBraceEliRb@Base 2.8.4
 _ZN13QsciScintilla10clearFoldsEv@Base 2.8.4
 _ZN13QsciScintilla10foldExpandERibbii@Base 2.8.4
 _ZN13QsciScintilla10setEolModeENS_7EolModeE@Base 2.8.4
 _ZN13QsciScintilla10setFoldingENS_9FoldStyleEi@Base 2.8.4
 _ZN13QsciScintilla10simpleFindEv@Base 2.8.4
 _ZN13QsciScintilla11blockIndentEi@Base 2.8.4
 _ZN13QsciScintilla11changeEventEP6QEvent@Base 2.8.4
 _ZN13QsciScintilla11checkMarkerERi@Base 2.8.4
 _ZN13QsciScintilla11convertEolsENS_7EolModeE@Base 2.8.4
 _ZN13QsciScintilla11detachLexerEv@Base 2.8.4
 _ZN13QsciScintilla11foldChangedEiii@Base 2.8.4
 _ZN13QsciScintilla11insertAtPosERK7QStringi@Base 2.8.4
 _ZN13QsciScintilla11qt_metacallEN11QMetaObject4CallEiPPv@Base 2.8.4
 _ZN13QsciScintilla11qt_metacastEPKc@Base 2.8.4
 _ZN13QsciScintilla11setDocumentERK12QsciDocument@Base 2.8.4
 _ZN13QsciScintilla11setEdgeModeENS_8EdgeModeE@Base 2.8.4
 _ZN13QsciScintilla11setModifiedEb@Base 2.8.4
 _ZN13QsciScintilla11setReadOnlyEb@Base 2.8.4
 _ZN13QsciScintilla11setTabWidthEi@Base 2.8.4
 _ZN13QsciScintilla11setWrapModeENS_8WrapModeE@Base 2.8.4
 _ZN13QsciScintilla11textChangedEv@Base 2.8.4
 _ZN13QsciScintilla12linesChangedEv@Base 2.8.4
 _ZN13QsciScintilla12mapModifiersEi@Base 2.8.4
 _ZN13QsciScintilla12markerDefineENS_12MarkerSymbolEi@Base 2.8.4
 _ZN13QsciScintilla12markerDefineERK6QImagei@Base 2.8.4
 _ZN13QsciScintilla12markerDefineERK7QPixmapi@Base 2.8.4
 _ZN13QsciScintilla12markerDefineEci@Base 2.8.4
 _ZN13QsciScintilla12markerDeleteEii@Base 2.8.4
 _ZN13QsciScintilla12setEdgeColorERK6QColor@Base 2.8.4
 _ZN13QsciScintilla12setSelectionEiiii@Base 2.8.4
 _ZN13QsciScintilla12showUserListEiRK11QStringList@Base 2.8.4
 _ZN13QsciScintilla13copyAvailableEb@Base 2.8.4
 _ZN13QsciScintilla13endUndoActionEv@Base 2.8.4
 _ZN13QsciScintilla13marginClickedEii6QFlagsIN2Qt16KeyboardModifierEE@Base 2.8.4
 _ZN13QsciScintilla13registerImageEiRK6QImage@Base 2.8.4
 _ZN13QsciScintilla13registerImageEiRK7QPixmap@Base 2.8.4
 _ZN13QsciScintilla13setAutoIndentEb@Base 2.8.4
 _ZN13QsciScintilla13setCaretWidthEi@Base 2.8.4
 _ZN13QsciScintilla13setEdgeColumnEi@Base 2.8.4
 _ZN13QsciScintilla13setFoldMarkerEii@Base 2.8.4
 _ZN13QsciScintilla13setLexerStyleEi@Base 2.8.4
 _ZN13QsciScintilla13setMarginTextEiRK14QsciStyledText@Base 2.8.4
 _ZN13QsciScintilla13setMarginTextEiRK5QListI14QsciStyledTextE@Base 2.8.4
 _ZN13QsciScintilla13setMarginTextEiRK7QStringRK9QsciStyle@Base 2.8.4
 _ZN13QsciScintilla13setMarginTextEiRK7QStringi@Base 2.8.4
 _ZN13QsciScintilla13setMarginTypeEiNS_10MarginTypeE@Base 2.8.4
 _ZN13QsciScintilla13setStylesFontERK5QFonti@Base 2.8.4
 _ZN13QsciScintilla13setTabIndentsEb@Base 2.8.4
 _ZN13QsciScintilla14autoIndentLineElii@Base 2.8.4
 _ZN13QsciScintilla14checkIndicatorERi@Base 2.8.4
 _ZN13QsciScintilla14findStyledWordEPKciS1_@Base 2.8.4
 _ZN13QsciScintilla14getIndentStateEi@Base 2.8.4
 _ZN13QsciScintilla14handleModifiedEiiPKciiiiiii@Base 2.8.4
 _ZN13QsciScintilla14handleUpdateUIEi@Base 2.8.4
 _ZN13QsciScintilla14setExtraAscentEi@Base 2.8.4
 _ZN13QsciScintilla14setHotspotWrapEb@Base 2.8.4
 _ZN13QsciScintilla14setIndentationEii@Base 2.8.4
 _ZN13QsciScintilla14setMarginWidthEiRK7QString@Base 2.8.4
 _ZN13QsciScintilla14setMarginWidthEii@Base 2.8.4
 _ZN13QsciScintilla14setMarginsFontERK5QFont@Base 2.8.4
 _ZN13QsciScintilla15autoIndentationEcl@Base 2.8.4
 _ZN13QsciScintilla15beginUndoActionEv@Base 2.8.4
 _ZN13QsciScintilla15clearMarginTextEi@Base 2.8.4
 _ZN13QsciScintilla15handleCharAddedEi@Base 2.8.4
 _ZN13QsciScintilla15indicatorDefineENS_14IndicatorStyleEi@Base 2.8.4
 _ZN13QsciScintilla15markerDeleteAllEi@Base 2.8.4
 _ZN13QsciScintilla15setExtraDescentEi@Base 2.8.4
 _ZN13QsciScintilla16clearAnnotationsEi@Base 2.8.4
 _ZN13QsciScintilla16contextMenuEventEP17QContextMenuEvent@Base 2.8.4
 _ZN13QsciScintilla16delete_selectionEv@Base 2.8.4
 _ZN13QsciScintilla16indicatorClickedEii6QFlagsIN2Qt16KeyboardModifierEE@Base 2.8.4
 _ZN13QsciScintilla16selectionChangedEv@Base 2.8.4
 _ZN13QsciScintilla16setBraceMatchingENS_10BraceMatchE@Base 2.8.4
 _ZN13QsciScintilla16setCallTipsStyleENS_13CallTipsStyleE@Base 2.8.4
 _ZN13QsciScintilla16setEnabledColorsEiR6QColorS1_@Base 2.8.4
 _ZN13QsciScintilla16setEolVisibilityEb@Base 2.8.4
 _ZN13QsciScintilla16setMarginOptionsEi@Base 2.8.4
 _ZN13QsciScintilla16setOverwriteModeEb@Base 2.8.4
 _ZN13QsciScintilla16staticMetaObjectE@Base 2.8.4
 _ZN13QsciScintilla17ensureLineVisibleEi@Base 2.8.4
 _ZN13QsciScintilla17findMatchingBraceERlS0_NS_10BraceMatchE@Base 2.8.4
 _ZN13QsciScintilla17gotoMatchingBraceEb@Base 2.8.4
 _ZN13QsciScintilla17handleMarginClickEiii@Base 2.8.4
 _ZN13QsciScintilla17indicatorReleasedEii6QFlagsIN2Qt16KeyboardModifierEE@Base 2.8.4
 _ZN13QsciScintilla17rangeIsWhitespaceEll@Base 2.8.4
 _ZN13QsciScintilla17setCursorPositionEii@Base 2.8.4
 _ZN13QsciScintilla17setSelectionToEolEb@Base 2.8.4
 _ZN13QsciScintilla17setWhitespaceSizeEi@Base 2.8.4
 _ZN13QsciScintilla17setWrapIndentModeENS_14WrapIndentModeE@Base 2.8.4
 _ZN13QsciScintilla17userListActivatedEiRK7QString@Base 2.8.4
 _ZN13QsciScintilla18fillIndicatorRangeEiiiii@Base 2.8.4
 _ZN13QsciScintilla18handleCallTipClickEi@Base 2.8.4
 _ZN13QsciScintilla18markerDeleteHandleEi@Base 2.8.4
 _ZN13QsciScintilla18removeSelectedTextEv@Base 2.8.4
 _ZN13QsciScintilla18setCallTipsVisibleEi@Base 2.8.4
 _ZN13QsciScintilla18setContractedFoldsERK5QListIiE@Base 2.8.4
 _ZN13QsciScintilla18setWrapVisualFlagsENS_14WrapVisualFlagES0_i@Base 2.8.4
 _ZN13QsciScintilla19autoCompleteFromAllEv@Base 2.8.4
 _ZN13QsciScintilla19clearIndicatorRangeEiiiii@Base 2.8.4
 _ZN13QsciScintilla19ensureCursorVisibleEv@Base 2.8.4
 _ZN13QsciScintilla19handleSavePointLeftEv@Base 2.8.4
 _ZN13QsciScintilla19maintainIndentationEcl@Base 2.8.4
 _ZN13QsciScintilla19modificationChangedEb@Base 2.8.4
 _ZN13QsciScintilla19moveToMatchingBraceEv@Base 2.8.4
 _ZN13QsciScintilla19replaceSelectedTextERK7QString@Base 2.8.4
 _ZN13QsciScintilla19setCallTipsPositionENS_16CallTipsPositionE@Base 2.8.4
 _ZN13QsciScintilla19setCaretLineVisibleEb@Base 2.8.4
 _ZN13QsciScintilla19setFirstVisibleLineEi@Base 2.8.4
 _ZN13QsciScintilla19setFoldMarginColorsERK6QColorS2_@Base 2.8.4
 _ZN13QsciScintilla19setHotspotUnderlineEb@Base 2.8.4
 _ZN13QsciScintilla19setIndentationWidthEi@Base 2.8.4
 _ZN13QsciScintilla19setMarginMarkerMaskEii@Base 2.8.4
 _ZN13QsciScintilla19startAutoCompletionENS_20AutoCompletionSourceEbb@Base 2.8.4
 _ZN13QsciScintilla20autoCompleteFromAPIsEv@Base 2.8.4
 _ZN13QsciScintilla20findFirstInSelectionERK7QStringbbbbbb@Base 2.8.4
 _ZN13QsciScintilla20handleIndicatorClickEii@Base 2.8.4
 _ZN13QsciScintilla20handlePropertyChangeEPKcS1_@Base 2.8.4
 _ZN13QsciScintilla20setAnnotationDisplayENS_17AnnotationDisplayE@Base 2.8.4
 _ZN13QsciScintilla20setIndentationGuidesEb@Base 2.8.4
 _ZN13QsciScintilla20setMarginLineNumbersEib@Base 2.8.4
 _ZN13QsciScintilla20setMarginSensitivityEib@Base 2.8.4
 _ZN13QsciScintilla21clearRegisteredImagesEv@Base 2.8.4
 _ZN13QsciScintilla21cursorPositionChangedEii@Base 2.8.4
 _ZN13QsciScintilla21handleStyleFontChangeERK5QFonti@Base 2.8.4
 _ZN13QsciScintilla21modificationAttemptedEv@Base 2.8.4
 _ZN13QsciScintilla21resetFoldMarginColorsEv@Base 2.8.4
 _ZN13QsciScintilla21selectToMatchingBraceEv@Base 2.8.4
 _ZN13QsciScintilla21setBackspaceUnindentsEb@Base 2.8.4
 _ZN13QsciScintilla21setIndicatorDrawUnderEbi@Base 2.8.4
 _ZN13QsciScintilla22handleIndicatorReleaseEii@Base 2.8.4
 _ZN13QsciScintilla22handleSavePointReachedEv@Base 2.8.4
 _ZN13QsciScintilla22handleSelectionChangedEb@Base 2.8.4
 _ZN13QsciScintilla22handleStyleColorChangeERK6QColori@Base 2.8.4
 _ZN13QsciScintilla22handleStylePaperChangeERK6QColori@Base 2.8.4
 _ZN13QsciScintilla22setIndentationsUseTabsEb@Base 2.8.4
 _ZN13QsciScintilla22setIndicatorHoverStyleENS_14IndicatorStyleEi@Base 2.9
 _ZN13QsciScintilla23handleUserListSelectionEPKci@Base 2.8.4
 _ZN13QsciScintilla23setAutoCompletionSourceENS_20AutoCompletionSourceE@Base 2.8.4
 _ZN13QsciScintilla23setCaretForegroundColorERK6QColor@Base 2.8.4
 _ZN13QsciScintilla23setWhitespaceVisibilityENS_20WhitespaceVisibilityE@Base 2.8.4
 _ZN13QsciScintilla24autoCompleteFromDocumentEv@Base 2.8.4
 _ZN13QsciScintilla24handleStyleEolFillChangeEbi@Base 2.8.4
 _ZN13QsciScintilla24setAutoCompletionFillupsEPKc@Base 2.8.4
 _ZN13QsciScintilla24setIndicatorOutlineColorERK6QColori@Base 2.8.4
 _ZN13QsciScintilla24setMarkerBackgroundColorERK6QColori@Base 2.8.4
 _ZN13QsciScintilla24setMarkerForegroundColorERK6QColori@Base 2.8.4
 _ZN13QsciScintilla24setMatchedBraceIndicatorEi@Base 2.8.4
 _ZN13QsciScintilla25createStandardContextMenuEv@Base 2.8.4
 _ZN13QsciScintilla25setCallTipsHighlightColorERK6QColor@Base 2.8.4
 _ZN13QsciScintilla25setHotspotBackgroundColorERK6QColor@Base 2.8.4
 _ZN13QsciScintilla25setHotspotForegroundColorERK6QColor@Base 2.8.4
 _ZN13QsciScintilla25setMarginsBackgroundColorERK6QColor@Base 2.8.4
 _ZN13QsciScintilla25setMarginsForegroundColorERK6QColor@Base 2.8.4
 _ZN13QsciScintilla26resetMatchedBraceIndicatorEv@Base 2.8.4
 _ZN13QsciScintilla26setAutoCompletionThresholdEi@Base 2.8.4
 _ZN13QsciScintilla26setAutoCompletionUseSingleENS_23AutoCompletionUseSingleE@Base 2.8.4
 _ZN13QsciScintilla26setCallTipsBackgroundColorERK6QColor@Base 2.8.4
 _ZN13QsciScintilla26setCallTipsForegroundColorERK6QColor@Base 2.8.4
 _ZN13QsciScintilla26setUnmatchedBraceIndicatorEi@Base 2.8.4
 _ZN13QsciScintilla27resetHotspotBackgroundColorEv@Base 2.8.4
 _ZN13QsciScintilla27resetHotspotForegroundColorEv@Base 2.8.4
 _ZN13QsciScintilla27setAutoCompletionShowSingleEb@Base 2.8.4
 _ZN13QsciScintilla27setCaretLineBackgroundColorERK6QColor@Base 2.8.4
 _ZN13QsciScintilla27setIndicatorForegroundColorERK6QColori@Base 2.8.4
 _ZN13QsciScintilla27setSelectionBackgroundColorERK6QColor@Base 2.8.4
 _ZN13QsciScintilla27setSelectionForegroundColorERK6QColor@Base 2.8.4
 _ZN13QsciScintilla28resetUnmatchedBraceIndicatorEv@Base 2.8.4
 _ZN13QsciScintilla28setAutoCompletionReplaceWordEb@Base 2.8.4
 _ZN13QsciScintilla28setWhitespaceBackgroundColorERK6QColor@Base 2.8.4
 _ZN13QsciScintilla28setWhitespaceForegroundColorERK6QColor@Base 2.8.4
 _ZN13QsciScintilla29handleAutoCompletionSelectionEv@Base 2.8.4
 _ZN13QsciScintilla29resetSelectionBackgroundColorEv@Base 2.8.4
 _ZN13QsciScintilla29resetSelectionForegroundColorEv@Base 2.8.4
 _ZN13QsciScintilla2trEPKcS1_i@Base 2.8.4
 _ZN13QsciScintilla30setMatchedBraceBackgroundColorERK6QColor@Base 2.8.4
 _ZN13QsciScintilla30setMatchedBraceForegroundColorERK6QColor@Base 2.8.4
 _ZN13QsciScintilla31setAutoCompletionFillupsEnabledEb@Base 2.8.4
 _ZN13QsciScintilla31setAutoCompletionWordSeparatorsERK11QStringList@Base 2.8.4
 _ZN13QsciScintilla32setAutoCompletionCaseSensitivityEb@Base 2.8.4
 _ZN13QsciScintilla32setIndicatorHoverForegroundColorERK6QColori@Base 2.9
 _ZN13QsciScintilla32setUnmatchedBraceBackgroundColorERK6QColor@Base 2.8.4
 _ZN13QsciScintilla32setUnmatchedBraceForegroundColorERK6QColor@Base 2.8.4
 _ZN13QsciScintilla35setIndentationGuidesBackgroundColorERK6QColor@Base 2.8.4
 _ZN13QsciScintilla35setIndentationGuidesForegroundColorERK6QColor@Base 2.8.4
 _ZN13QsciScintilla3cutEv@Base 2.8.4
 _ZN13QsciScintilla4copyEv@Base 2.8.4
 _ZN13QsciScintilla4readEP9QIODevice@Base 2.8.4
 _ZN13QsciScintilla4redoEv@Base 2.8.4
 _ZN13QsciScintilla4undoEv@Base 2.8.4
 _ZN13QsciScintilla5clearEv@Base 2.8.4
 _ZN13QsciScintilla5eventEP6QEvent@Base 2.8.4
 _ZN13QsciScintilla5pasteEv@Base 2.8.4
 _ZN13QsciScintilla6appendERK7QString@Base 2.8.4
 _ZN13QsciScintilla6doFindEv@Base 2.8.4
 _ZN13QsciScintilla6indentEi@Base 2.8.4
 _ZN13QsciScintilla6insertERK7QString@Base 2.8.4
 _ZN13QsciScintilla6zoomInEi@Base 2.8.4
 _ZN13QsciScintilla6zoomInEv@Base 2.8.4
 _ZN13QsciScintilla6zoomToEi@Base 2.8.4
 _ZN13QsciScintilla7callTipEv@Base 2.8.4
 _ZN13QsciScintilla7foldAllEb@Base 2.8.4
 _ZN13QsciScintilla7recolorEii@Base 2.8.4
 _ZN13QsciScintilla7replaceERK7QString@Base 2.8.4
 _ZN13QsciScintilla7setFontERK5QFont@Base 2.8.4
 _ZN13QsciScintilla7setTextERK7QString@Base 2.8.4
 _ZN13QsciScintilla7setUtf8Eb@Base 2.8.4
 _ZN13QsciScintilla7zoomOutEi@Base 2.8.4
 _ZN13QsciScintilla7zoomOutEv@Base 2.8.4
 _ZN13QsciScintilla8annotateEiRK14QsciStyledText@Base 2.8.4
 _ZN13QsciScintilla8annotateEiRK5QListI14QsciStyledTextE@Base 2.8.4
 _ZN13QsciScintilla8annotateEiRK7QStringRK9QsciStyle@Base 2.8.4
 _ZN13QsciScintilla8annotateEiRK7QStringi@Base 2.8.4
 _ZN13QsciScintilla8ensureRWEv@Base 2.8.4
 _ZN13QsciScintilla8findNextEv@Base 2.8.4
 _ZN13QsciScintilla8foldLineEi@Base 2.8.4
 _ZN13QsciScintilla8insertAtERK7QStringii@Base 2.8.4
 _ZN13QsciScintilla8setColorERK6QColor@Base 2.8.4
 _ZN13QsciScintilla8setLexerEP9QsciLexer@Base 2.8.4
 _ZN13QsciScintilla8setPaperERK6QColor@Base 2.8.4
 _ZN13QsciScintilla8unindentEi@Base 2.8.4
 _ZN13QsciScintilla9FindStateC1Ev@Base 2.8.4
 _ZN13QsciScintilla9FindStateC2Ev@Base 2.8.4
 _ZN13QsciScintilla9FindStateD1Ev@Base 2.8.4
 _ZN13QsciScintilla9FindStateD2Ev@Base 2.8.4
 _ZN13QsciScintilla9findFirstERK7QStringbbbbbiibb@Base 2.8.4
 _ZN13QsciScintilla9foldClickEii@Base 2.8.4
 _ZN13QsciScintilla9markerAddEii@Base 2.8.4
 _ZN13QsciScintilla9selectAllEb@Base 2.8.4
 _ZN13QsciScintilla9styleTextERK5QListI14QsciStyledTextEPPci@Base 2.8.4
 _ZN13QsciScintillaC1EP7QWidget@Base 2.8.4
 _ZN13QsciScintillaC2EP7QWidget@Base 2.8.4
 _ZN13QsciScintillaD0Ev@Base 2.8.4
 _ZN13QsciScintillaD1Ev@Base 2.8.4
 _ZN13QsciScintillaD2Ev@Base 2.8.4
 _ZN13ScintillaBase10AddCharUTFEPKcjb@Base 2.9
 _ZN13ScintillaBase10ButtonDownE5Pointjbbb@Base 2.8.4
 _ZN13ScintillaBase10KeyCommandEj@Base 2.8.4
 _ZN13ScintillaBase11CallTipShowE5PointPKc@Base 2.8.4
 _ZN13ScintillaBase11CancelModesEv@Base 2.8.4
 _ZN13ScintillaBase11ContextMenuE5Point@Base 2.8.4
 _ZN13ScintillaBase12CallTipClickEv@Base 2.8.4
 _ZN13ScintillaBase16AutoCompleteMoveEi@Base 2.8.4
 _ZN13ScintillaBase16DocumentLexStateEv@Base 2.8.4
 _ZN13ScintillaBase17AutoCompleteStartEiPKc@Base 2.8.4
 _ZN13ScintillaBase18AutoCompleteCancelEv@Base 2.8.4
 _ZN13ScintillaBase18AutoCompleteInsertEiiPKci@Base 2.8.4
 _ZN13ScintillaBase18NotifyLexerChangedEP8DocumentPv@Base 2.8.4
 _ZN13ScintillaBase19NotifyStyleToNeededEi@Base 2.8.4
 _ZN13ScintillaBase21AutoCompleteCompletedEv@Base 2.8.4
 _ZN13ScintillaBase23AutoCompleteDoubleClickEPv@Base 2.8.4
 _ZN13ScintillaBase23ButtonDownWithModifiersE5Pointji@Base 2.9
 _ZN13ScintillaBase26AutoCompleteCharacterAddedEc@Base 2.8.4
 _ZN13ScintillaBase28AutoCompleteCharacterDeletedEv@Base 2.8.4
 _ZN13ScintillaBase29AutoCompleteMoveToCurrentWordEv@Base 2.8.4
 _ZN13ScintillaBase7CommandEi@Base 2.8.4
 _ZN13ScintillaBase7WndProcEjml@Base 2.8.4
 _ZN13ScintillaBase8FinaliseEv@Base 2.8.4
 _ZN13ScintillaBaseC1Ev@Base 2.8.4
 _ZN13ScintillaBaseC2Ev@Base 2.8.4
 _ZN13ScintillaBaseD0Ev@Base 2.8.4
 _ZN13ScintillaBaseD1Ev@Base 2.8.4
 _ZN13ScintillaBaseD2Ev@Base 2.8.4
 _ZN13SelectionText24FixSelectionForClipboardEv@Base 2.8.4
 _ZN13SelectionText4CopyERKNSt7__cxx1112basic_stringIcSt11char_traitsIcESaIcEEEiibb@Base 2.9
 _ZN13SelectionText5ClearEv@Base 2.8.4
 _ZN13SelectionTextC1Ev@Base 2.8.4
 _ZN13SelectionTextC2Ev@Base 2.8.4
 _ZN13SelectionTextD1Ev@Base 2.8.4
 _ZN13SelectionTextD2Ev@Base 2.8.4
 _ZN13latexFoldSaveC1ERKS_@Base 2.8.4
 _ZN13latexFoldSaveC1Ev@Base 2.8.4
 _ZN13latexFoldSaveC2ERKS_@Base 2.8.4
 _ZN13latexFoldSaveC2Ev@Base 2.8.4
 _ZN14AutoLineLayout3SetEP10LineLayout@Base 2.8.4
 _ZN14AutoLineLayoutC1ER15LineLayoutCacheP10LineLayout@Base 2.8.4
 _ZN14AutoLineLayoutC2ER15LineLayoutCacheP10LineLayout@Base 2.8.4
 _ZN14AutoLineLayoutD1Ev@Base 2.8.4
 _ZN14AutoLineLayoutD2Ev@Base 2.8.4
 _ZN14ColourOptionalC1E13ColourDesiredb@Base 2.8.4
 _ZN14ColourOptionalC1Eml@Base 2.8.4
 _ZN14ColourOptionalC2E13ColourDesiredb@Base 2.8.4
 _ZN14ColourOptionalC2Eml@Base 2.8.4
 _ZN14DecorationList11DeleteRangeEii@Base 2.8.4
 _ZN14DecorationList11InsertSpaceEii@Base 2.8.4
 _ZN14DecorationList14DeleteAnyEmptyEv@Base 2.8.4
 _ZN14DecorationList15SetCurrentValueEi@Base 2.8.4
 _ZN14DecorationList19SetCurrentIndicatorEi@Base 2.8.4
 _ZN14DecorationList23DecorationFromIndicatorEi@Base 2.8.4
 _ZN14DecorationList3EndEii@Base 2.8.4
 _ZN14DecorationList5StartEii@Base 2.8.4
 _ZN14DecorationList6CreateEii@Base 2.8.4
 _ZN14DecorationList6DeleteEi@Base 2.8.4
 _ZN14DecorationList7ValueAtEii@Base 2.8.4
 _ZN14DecorationList9FillRangeERiiS0_@Base 2.8.4
 _ZN14DecorationListC1Ev@Base 2.8.4
 _ZN14DecorationListC2Ev@Base 2.8.4
 _ZN14DecorationListD1Ev@Base 2.8.4
 _ZN14DecorationListD2Ev@Base 2.8.4
 _ZN14DynamicLibrary4LoadEPKc@Base 2.8.4
 _ZN14DynamicLibraryC1Ev@Base 2.8.4
 _ZN14DynamicLibraryC2Ev@Base 2.8.4
 _ZN14DynamicLibraryD0Ev@Base 2.8.4
 _ZN14DynamicLibraryD1Ev@Base 2.8.4
 _ZN14DynamicLibraryD2Ev@Base 2.8.4
 _ZN14FontParametersC1EPKcfibiii@Base 2.8.4
 _ZN14FontParametersC2EPKcfibiii@Base 2.8.4
 _ZN14ICaseConverterC1Ev@Base 2.8.4
 _ZN14ICaseConverterC2Ev@Base 2.8.4
 _ZN14LineAnnotation10InsertLineEi@Base 2.8.4
 _ZN14LineAnnotation10RemoveLineEi@Base 2.8.4
 _ZN14LineAnnotation4InitEv@Base 2.8.4
 _ZN14LineAnnotation7SetTextEiPKc@Base 2.8.4
 _ZN14LineAnnotation8ClearAllEv@Base 2.8.4
 _ZN14LineAnnotation8SetStyleEii@Base 2.8.4
 _ZN14LineAnnotation9SetStylesEiPKh@Base 2.8.4
 _ZN14LineAnnotationC1Ev@Base 2.8.4
 _ZN14LineAnnotationC2Ev@Base 2.8.4
 _ZN14LineAnnotationD0Ev@Base 2.8.4
 _ZN14LineAnnotationD1Ev@Base 2.8.4
 _ZN14LineAnnotationD2Ev@Base 2.8.4
 _ZN14OptionSetBasicC1EPKPKc@Base 2.8.4
 _ZN14OptionSetBasicC2EPKPKc@Base 2.8.4
 _ZN14OptionSetBasicD0Ev@Base 2.8.4
 _ZN14OptionSetBasicD1Ev@Base 2.8.4
 _ZN14OptionSetBasicD2Ev@Base 2.8.4
 _ZN14OptionsHaskellC1Ev@Base 2.8.4
 _ZN14OptionsHaskellC2Ev@Base 2.8.4
 _ZN14QMessageLoggerC1EPKciS1_@Base 2.8.4
 _ZN14QMessageLoggerC2EPKciS1_@Base 2.8.4
 _ZN14QsciAPIsWorker3runEv@Base 2.8.4
 _ZN14QsciAPIsWorkerC1EP8QsciAPIs@Base 2.8.4
 _ZN14QsciAPIsWorkerC2EP8QsciAPIs@Base 2.8.4
 _ZN14QsciAPIsWorkerD0Ev@Base 2.8.4
 _ZN14QsciAPIsWorkerD1Ev@Base 2.8.4
 _ZN14QsciAPIsWorkerD2Ev@Base 2.8.4
 _ZN14QsciCommandSet12readSettingsER9QSettingsPKc@Base 2.8.4
 _ZN14QsciCommandSet13writeSettingsER9QSettingsPKc@Base 2.8.4
 _ZN14QsciCommandSet18clearAlternateKeysEv@Base 2.8.4
 _ZN14QsciCommandSet9clearKeysEv@Base 2.8.4
 _ZN14QsciCommandSetC1EP13QsciScintilla@Base 2.8.4
 _ZN14QsciCommandSetC2EP13QsciScintilla@Base 2.8.4
 _ZN14QsciCommandSetD1Ev@Base 2.8.4
 _ZN14QsciCommandSetD2Ev@Base 2.8.4
 _ZN14QsciLexerBatch11qt_metacallEN11QMetaObject4CallEiPPv@Base 2.8.4
 _ZN14QsciLexerBatch11qt_metacastEPKc@Base 2.8.4
 _ZN14QsciLexerBatch16staticMetaObjectE@Base 2.8.4
 _ZN14QsciLexerBatch2trEPKcS1_i@Base 2.8.4
 _ZN14QsciLexerBatchC1EP7QObject@Base 2.8.4
 _ZN14QsciLexerBatchC2EP7QObject@Base 2.8.4
 _ZN14QsciLexerBatchD0Ev@Base 2.8.4
 _ZN14QsciLexerBatchD1Ev@Base 2.8.4
 _ZN14QsciLexerBatchD2Ev@Base 2.8.4
 _ZN14QsciLexerCMake11qt_metacallEN11QMetaObject4CallEiPPv@Base 2.8.4
 _ZN14QsciLexerCMake11qt_metacastEPKc@Base 2.8.4
 _ZN14QsciLexerCMake13setAtElsePropEv@Base 2.8.4
 _ZN14QsciLexerCMake13setFoldAtElseEb@Base 2.8.4
 _ZN14QsciLexerCMake14readPropertiesER9QSettingsRK7QString@Base 2.8.4
 _ZN14QsciLexerCMake16staticMetaObjectE@Base 2.8.4
 _ZN14QsciLexerCMake17refreshPropertiesEv@Base 2.8.4
 _ZN14QsciLexerCMake2trEPKcS1_i@Base 2.8.4
 _ZN14QsciLexerCMakeC1EP7QObject@Base 2.8.4
 _ZN14QsciLexerCMakeC2EP7QObject@Base 2.8.4
 _ZN14QsciLexerCMakeD0Ev@Base 2.8.4
 _ZN14QsciLexerCMakeD1Ev@Base 2.8.4
 _ZN14QsciLexerCMakeD2Ev@Base 2.8.4
 _ZN14QsciLexerSpice11qt_metacallEN11QMetaObject4CallEiPPv@Base 2.8.4
 _ZN14QsciLexerSpice11qt_metacastEPKc@Base 2.8.4
 _ZN14QsciLexerSpice16staticMetaObjectE@Base 2.8.4
 _ZN14QsciLexerSpice2trEPKcS1_i@Base 2.8.4
 _ZN14QsciLexerSpiceC1EP7QObject@Base 2.8.4
 _ZN14QsciLexerSpiceC2EP7QObject@Base 2.8.4
 _ZN14QsciLexerSpiceD0Ev@Base 2.8.4
 _ZN14QsciLexerSpiceD1Ev@Base 2.8.4
 _ZN14QsciLexerSpiceD2Ev@Base 2.8.4
 _ZN14QsciSciCallTip10paintEventEP11QPaintEvent@Base 2.8.4
 _ZN14QsciSciCallTip11qt_metacallEN11QMetaObject4CallEiPPv@Base 2.8.4
 _ZN14QsciSciCallTip11qt_metacastEPKc@Base 2.8.4
 _ZN14QsciSciCallTip15mousePressEventEP11QMouseEvent@Base 2.8.4
 _ZN14QsciSciCallTip16staticMetaObjectE@Base 2.8.4
 _ZN14QsciSciCallTipC1EP7QWidgetP15QsciScintillaQt@Base 2.8.4
 _ZN14QsciSciCallTipC2EP7QWidgetP15QsciScintillaQt@Base 2.8.4
 _ZN14QsciSciCallTipD0Ev@Base 2.8.4
 _ZN14QsciSciCallTipD1Ev@Base 2.8.4
 _ZN14QsciSciCallTipD2Ev@Base 2.8.4
 _ZN14QsciSciListBox11qt_metacallEN11QMetaObject4CallEiPPv@Base 2.8.4
 _ZN14QsciSciListBox11qt_metacastEPKc@Base 2.8.4
 _ZN14QsciSciListBox13addItemPixmapERK7QPixmapRK7QString@Base 2.8.4
 _ZN14QsciSciListBox13keyPressEventEP9QKeyEvent@Base 2.8.4
 _ZN14QsciSciListBox15handleSelectionEv@Base 2.8.4
 _ZN14QsciSciListBox16staticMetaObjectE@Base 2.8.4
 _ZN14QsciSciListBox4findERK7QString@Base 2.8.4
 _ZN14QsciSciListBox4textEi@Base 2.8.4
 _ZN14QsciSciListBoxC1EP7QWidgetP13QsciListBoxQt@Base 2.8.4
 _ZN14QsciSciListBoxC2EP7QWidgetP13QsciListBoxQt@Base 2.8.4
 _ZN14QsciSciListBoxD0Ev@Base 2.8.4
 _ZN14QsciSciListBoxD1Ev@Base 2.8.4
 _ZN14QsciSciListBoxD2Ev@Base 2.8.4
 _ZN14QsciStyledTextC1ERK7QStringRK9QsciStyle@Base 2.8.4
 _ZN14QsciStyledTextC1ERK7QStringi@Base 2.8.4
 _ZN14QsciStyledTextC2ERK7QStringRK9QsciStyle@Base 2.8.4
 _ZN14QsciStyledTextC2ERK7QStringi@Base 2.8.4
 _ZN14RepresentationC1EPKc@Base 2.8.4
 _ZN14RepresentationC2EPKc@Base 2.8.4
 _ZN14RepresentationD1Ev@Base 2.8.4
 _ZN14RepresentationD2Ev@Base 2.8.4
 _ZN14RepresentationaSEOS_@Base 2.9.2+dfsg
 _ZN14SelectionRange17ClearVirtualSpaceEv@Base 2.8.4
 _ZN14SelectionRange19MoveForInsertDeleteEbii@Base 2.9
 _ZN14SelectionRange20MinimizeVirtualSpaceEv@Base 2.8.4
 _ZN14SelectionRange4TrimES_@Base 2.8.4
 _ZN14SelectionRange5ResetEv@Base 2.8.4
 _ZN14SelectionRangeC1E17SelectionPosition@Base 2.8.4
 _ZN14SelectionRangeC1E17SelectionPositionS0_@Base 2.8.4
 _ZN14SelectionRangeC1Ei@Base 2.8.4
 _ZN14SelectionRangeC1Eii@Base 2.8.4
 _ZN14SelectionRangeC1Ev@Base 2.8.4
 _ZN14SelectionRangeC2E17SelectionPosition@Base 2.8.4
 _ZN14SelectionRangeC2E17SelectionPositionS0_@Base 2.8.4
 _ZN14SelectionRangeC2Ei@Base 2.8.4
 _ZN14SelectionRangeC2Eii@Base 2.8.4
 _ZN14SelectionRangeC2Ev@Base 2.8.4
 _ZN14StyleAndColourC1Ei13ColourDesired@Base 2.9
 _ZN14StyleAndColourC1Ev@Base 2.9
 _ZN14StyleAndColourC2Ei13ColourDesired@Base 2.9
 _ZN14StyleAndColourC2Ev@Base 2.9
 _ZN14WordClassifier14SetIdentifiersEiPKc@Base 2.8.4
 _ZN14WordClassifier5ClearEv@Base 2.8.4
 _ZN14WordClassifier8AllocateEii@Base 2.8.4
 _ZN14WordClassifierC1EOS_@Base 2.9.2+dfsg
 _ZN14WordClassifierC1Ei@Base 2.8.4
 _ZN14WordClassifierC2EOS_@Base 2.9.2+dfsg
 _ZN14WordClassifierC2Ei@Base 2.8.4
 _ZN14WordClassifierD1Ev@Base 2.8.4
 _ZN14WordClassifierD2Ev@Base 2.8.4
 _ZN15CaseFolderASCIIC1Ev@Base 2.8.4
 _ZN15CaseFolderASCIIC2Ev@Base 2.8.4
 _ZN15CaseFolderASCIID0Ev@Base 2.8.4
 _ZN15CaseFolderASCIID1Ev@Base 2.8.4
 _ZN15CaseFolderASCIID2Ev@Base 2.8.4
 _ZN15CaseFolderTable13StandardASCIIEv@Base 2.8.4
 _ZN15CaseFolderTable14SetTranslationEcc@Base 2.8.4
 _ZN15CaseFolderTable4FoldEPcjPKcj@Base 2.9
 _ZN15CaseFolderTableC1Ev@Base 2.8.4
 _ZN15CaseFolderTableC2Ev@Base 2.8.4
 _ZN15CaseFolderTableD0Ev@Base 2.8.4
 _ZN15CaseFolderTableD1Ev@Base 2.8.4
 _ZN15CaseFolderTableD2Ev@Base 2.8.4
 _ZN15DocModificationC1EiRK6Actioni@Base 2.8.4
 _ZN15DocModificationC1EiiiiPKci@Base 2.8.4
 _ZN15DocModificationC2EiRK6Actioni@Base 2.8.4
 _ZN15DocModificationC2EiiiiPKci@Base 2.8.4
 _ZN15ForeBackColoursC1Ev@Base 2.8.4
 _ZN15ForeBackColoursC2Ev@Base 2.8.4
 _ZN15LineLayoutCache10DeallocateEv@Base 2.8.4
 _ZN15LineLayoutCache10InvalidateEN10LineLayout10validLevelE@Base 2.8.4
 _ZN15LineLayoutCache16AllocateForLevelEii@Base 2.8.4
 _ZN15LineLayoutCache7DisposeEP10LineLayout@Base 2.8.4
 _ZN15LineLayoutCache8AllocateEj@Base 2.9
 _ZN15LineLayoutCache8RetrieveEiiiiii@Base 2.8.4
 _ZN15LineLayoutCache8SetLevelEi@Base 2.8.4
 _ZN15LineLayoutCacheC1Ev@Base 2.8.4
 _ZN15LineLayoutCacheC2Ev@Base 2.8.4
 _ZN15LineLayoutCacheD0Ev@Base 2.8.4
 _ZN15LineLayoutCacheD1Ev@Base 2.8.4
 _ZN15LineLayoutCacheD2Ev@Base 2.8.4
 _ZN15MarkerHandleSet11CombineWithEPS_@Base 2.8.4
 _ZN15MarkerHandleSet12InsertHandleEii@Base 2.8.4
 _ZN15MarkerHandleSet12RemoveHandleEi@Base 2.8.4
 _ZN15MarkerHandleSet12RemoveNumberEib@Base 2.8.4
 _ZN15MarkerHandleSetC1Ev@Base 2.8.4
 _ZN15MarkerHandleSetC2Ev@Base 2.8.4
 _ZN15MarkerHandleSetD1Ev@Base 2.8.4
 _ZN15MarkerHandleSetD2Ev@Base 2.8.4
 _ZN15OptionsRegistryC1Ev@Base 2.9
 _ZN15OptionsRegistryC2Ev@Base 2.9
 _ZN15PrintParametersC1Ev@Base 2.8.4
 _ZN15PrintParametersC2Ev@Base 2.8.4
 _ZN15QTextCharFormatD1Ev@Base 2.8.4
 _ZN15QTextCharFormatD2Ev@Base 2.8.4
 _ZN15QTypedArrayDataI7QPointFE10deallocateEP10QArrayData@Base 2.8.4
 _ZN15QTypedArrayDataI7QPointFE10sharedNullEv@Base 2.8.4
 _ZN15QTypedArrayDataI7QPointFE15unsharableEmptyEv@Base 2.8.4
 _ZN15QTypedArrayDataI7QPointFE3endEPS0_@Base 2.8.4
 _ZN15QTypedArrayDataI7QPointFE4dataEv@Base 2.8.4
 _ZN15QTypedArrayDataI7QPointFE5beginEPS0_@Base 2.8.4
 _ZN15QTypedArrayDataI7QPointFE8allocateEj6QFlagsIN10QArrayData16AllocationOptionEE@Base 2.9
 _ZN15QTypedArrayDataIcE10deallocateEP10QArrayData@Base 2.8.4
 _ZN15QTypedArrayDataIcE10sharedNullEv@Base 2.8.4
 _ZN15QTypedArrayDataIcE4dataEv@Base 2.8.4
 _ZN15QTypedArrayDataIlE10deallocateEP10QArrayData@Base 2.8.4
 _ZN15QTypedArrayDataIlE10sharedNullEv@Base 2.8.4
 _ZN15QTypedArrayDataIlE15unsharableEmptyEv@Base 2.8.4
 _ZN15QTypedArrayDataIlE3endEPl@Base 2.8.4
 _ZN15QTypedArrayDataIlE4dataEv@Base 2.8.4
 _ZN15QTypedArrayDataIlE5beginEPl@Base 2.8.4
 _ZN15QTypedArrayDataIlE8allocateEj6QFlagsIN10QArrayData16AllocationOptionEE@Base 2.9
 _ZN15QTypedArrayDataItE10deallocateEP10QArrayData@Base 2.8.4
 _ZN15QTypedArrayDataItE10sharedNullEv@Base 2.8.4
 _ZN15QTypedArrayDataItE4dataEv@Base 2.8.4
 _ZN15QVarLengthArrayIcLi1024EE4dataEv@Base 2.8.4
 _ZN15QVarLengthArrayIcLi1024EEC1Ei@Base 2.8.4
 _ZN15QVarLengthArrayIcLi1024EEC2Ei@Base 2.8.4
 _ZN15QVarLengthArrayIcLi1024EED1Ev@Base 2.8.4
 _ZN15QVarLengthArrayIcLi1024EED2Ev@Base 2.8.4
 _ZN15QsciLexerCSharp11qt_metacallEN11QMetaObject4CallEiPPv@Base 2.8.4
 _ZN15QsciLexerCSharp11qt_metacastEPKc@Base 2.8.4
 _ZN15QsciLexerCSharp16staticMetaObjectE@Base 2.8.4
 _ZN15QsciLexerCSharp2trEPKcS1_i@Base 2.8.4
 _ZN15QsciLexerCSharpC1EP7QObject@Base 2.8.4
 _ZN15QsciLexerCSharpC2EP7QObject@Base 2.8.4
 _ZN15QsciLexerCSharpD0Ev@Base 2.8.4
 _ZN15QsciLexerCSharpD1Ev@Base 2.8.4
 _ZN15QsciLexerCSharpD2Ev@Base 2.8.4
 _ZN15QsciLexerCustom10setStylingEiRK9QsciStyle@Base 2.8.4
 _ZN15QsciLexerCustom10setStylingEii@Base 2.8.4
 _ZN15QsciLexerCustom11qt_metacallEN11QMetaObject4CallEiPPv@Base 2.8.4
 _ZN15QsciLexerCustom11qt_metacastEPKc@Base 2.8.4
 _ZN15QsciLexerCustom12startStylingEii@Base 2.8.4
 _ZN15QsciLexerCustom16staticMetaObjectE@Base 2.8.4
 _ZN15QsciLexerCustom17handleStyleNeededEi@Base 2.8.4
 _ZN15QsciLexerCustom9setEditorEP13QsciScintilla@Base 2.8.4
 _ZN15QsciLexerCustomC1EP7QObject@Base 2.8.4
 _ZN15QsciLexerCustomC2EP7QObject@Base 2.8.4
 _ZN15QsciLexerCustomD0Ev@Base 2.8.4
 _ZN15QsciLexerCustomD1Ev@Base 2.8.4
 _ZN15QsciLexerCustomD2Ev@Base 2.8.4
 _ZN15QsciLexerMatlab11qt_metacallEN11QMetaObject4CallEiPPv@Base 2.8.4
 _ZN15QsciLexerMatlab11qt_metacastEPKc@Base 2.8.4
 _ZN15QsciLexerMatlab16staticMetaObjectE@Base 2.8.4
 _ZN15QsciLexerMatlab2trEPKcS1_i@Base 2.8.4
 _ZN15QsciLexerMatlabC1EP7QObject@Base 2.8.4
 _ZN15QsciLexerMatlabC2EP7QObject@Base 2.8.4
 _ZN15QsciLexerMatlabD0Ev@Base 2.8.4
 _ZN15QsciLexerMatlabD1Ev@Base 2.8.4
 _ZN15QsciLexerMatlabD2Ev@Base 2.8.4
 _ZN15QsciLexerOctave11qt_metacallEN11QMetaObject4CallEiPPv@Base 2.8.4
 _ZN15QsciLexerOctave11qt_metacastEPKc@Base 2.8.4
 _ZN15QsciLexerOctave16staticMetaObjectE@Base 2.8.4
 _ZN15QsciLexerOctaveC1EP7QObject@Base 2.8.4
 _ZN15QsciLexerOctaveC2EP7QObject@Base 2.8.4
 _ZN15QsciLexerOctaveD0Ev@Base 2.8.4
 _ZN15QsciLexerOctaveD1Ev@Base 2.8.4
 _ZN15QsciLexerOctaveD2Ev@Base 2.8.4
 _ZN15QsciLexerPascal11qt_metacallEN11QMetaObject4CallEiPPv@Base 2.8.4
 _ZN15QsciLexerPascal11qt_metacastEPKc@Base 2.8.4
 _ZN15QsciLexerPascal14readPropertiesER9QSettingsRK7QString@Base 2.8.4
 _ZN15QsciLexerPascal14setCommentPropEv@Base 2.8.4
 _ZN15QsciLexerPascal14setCompactPropEv@Base 2.8.4
 _ZN15QsciLexerPascal14setFoldCompactEb@Base 2.8.4
 _ZN15QsciLexerPascal14setPreprocPropEv@Base 2.8.4
 _ZN15QsciLexerPascal15setFoldCommentsEb@Base 2.8.4
 _ZN15QsciLexerPascal16staticMetaObjectE@Base 2.8.4
 _ZN15QsciLexerPascal17refreshPropertiesEv@Base 2.8.4
 _ZN15QsciLexerPascal19setFoldPreprocessorEb@Base 2.8.4
 _ZN15QsciLexerPascal20setSmartHighlightingEb@Base 2.8.4
 _ZN15QsciLexerPascal21setSmartHighlightPropEv@Base 2.8.4
 _ZN15QsciLexerPascal2trEPKcS1_i@Base 2.8.4
 _ZN15QsciLexerPascalC1EP7QObject@Base 2.8.4
 _ZN15QsciLexerPascalC2EP7QObject@Base 2.8.4
 _ZN15QsciLexerPascalD0Ev@Base 2.8.4
 _ZN15QsciLexerPascalD1Ev@Base 2.8.4
 _ZN15QsciLexerPascalD2Ev@Base 2.8.4
 _ZN15QsciLexerPython11qt_metacallEN11QMetaObject4CallEiPPv@Base 2.8.4
 _ZN15QsciLexerPython11qt_metacastEPKc@Base 2.8.4
 _ZN15QsciLexerPython12keywordClassE@Base 2.8.4
 _ZN15QsciLexerPython13setFoldQuotesEb@Base 2.8.4
 _ZN15QsciLexerPython13setQuotesPropEv@Base 2.8.4
 _ZN15QsciLexerPython14readPropertiesER9QSettingsRK7QString@Base 2.8.4
 _ZN15QsciLexerPython14setCommentPropEv@Base 2.8.4
 _ZN15QsciLexerPython14setCompactPropEv@Base 2.8.4
 _ZN15QsciLexerPython14setFoldCompactEb@Base 2.8.4
 _ZN15QsciLexerPython14setV3BytesPropEv@Base 2.8.4
 _ZN15QsciLexerPython15setFoldCommentsEb@Base 2.8.4
 _ZN15QsciLexerPython16setTabWhingePropEv@Base 2.8.4
 _ZN15QsciLexerPython16setV2UnicodePropEv@Base 2.8.4
 _ZN15QsciLexerPython16staticMetaObjectE@Base 2.8.4
 _ZN15QsciLexerPython17refreshPropertiesEv@Base 2.8.4
 _ZN15QsciLexerPython17setV3BytesAllowedEb@Base 2.8.4
 _ZN15QsciLexerPython19setV2UnicodeAllowedEb@Base 2.8.4
 _ZN15QsciLexerPython20setV3BinaryOctalPropEv@Base 2.8.4
 _ZN15QsciLexerPython21setIndentationWarningENS_18IndentationWarningE@Base 2.8.4
 _ZN15QsciLexerPython22setHighlightSubidsPropEv@Base 2.8.4
 _ZN15QsciLexerPython23setV3BinaryOctalAllowedEb@Base 2.8.4
 _ZN15QsciLexerPython25setStringsOverNewlinePropEv@Base 2.8.4
 _ZN15QsciLexerPython26setHighlightSubidentifiersEb@Base 2.8.4
 _ZN15QsciLexerPython28setStringsOverNewlineAllowedEb@Base 2.8.4
 _ZN15QsciLexerPython2trEPKcS1_i@Base 2.8.4
 _ZN15QsciLexerPythonC1EP7QObject@Base 2.8.4
 _ZN15QsciLexerPythonC2EP7QObject@Base 2.8.4
 _ZN15QsciLexerPythonD0Ev@Base 2.8.4
 _ZN15QsciLexerPythonD1Ev@Base 2.8.4
 _ZN15QsciLexerPythonD2Ev@Base 2.8.4
 _ZN15QsciScintillaQt10AddToPopUpEPKcib@Base 2.8.4
 _ZN15QsciScintillaQt10DefWndProcEjml@Base 2.8.4
 _ZN15QsciScintillaQt10InitialiseEv@Base 2.8.4
 _ZN15QsciScintillaQt10paintEventEP11QPaintEvent@Base 2.8.4
 _ZN15QsciScintillaQt10timerEventEP11QTimerEvent@Base 2.9
 _ZN15QsciScintillaQt11qt_metacallEN11QMetaObject4CallEiPPv@Base 2.9
 _ZN15QsciScintillaQt11qt_metacastEPKc@Base 2.9
 _ZN15QsciScintillaQt12NotifyChangeEv@Base 2.8.4
 _ZN15QsciScintillaQt12NotifyParentE14SCNotification@Base 2.8.4
 _ZN15QsciScintillaQt14ClaimSelectionEv@Base 2.8.4
 _ZN15QsciScintillaQt14DirectFunctionEPS_jml@Base 2.8.4
 _ZN15QsciScintillaQt15CopyToClipboardERK13SelectionText@Base 2.8.4
 _ZN15QsciScintillaQt15FineTickerStartEN6Editor10TickReasonEii@Base 2.9
 _ZN15QsciScintillaQt15SetMouseCaptureEb@Base 2.8.4
 _ZN15QsciScintillaQt16FineTickerCancelEN6Editor10TickReasonE@Base 2.9
 _ZN15QsciScintillaQt16HaveMouseCaptureEv@Base 2.8.4
 _ZN15QsciScintillaQt16ModifyScrollBarsEii@Base 2.8.4
 _ZN15QsciScintillaQt16UnclaimSelectionEv@Base 2.8.4
 _ZN15QsciScintillaQt16staticMetaObjectE@Base 2.9
 _ZN15QsciScintillaQt17FineTickerRunningEN6Editor10TickReasonE@Base 2.9
 _ZN15QsciScintillaQt18pasteFromClipboardEN10QClipboard4ModeE@Base 2.8.4
 _ZN15QsciScintillaQt19CreateCallTipWindowE10PRectangle@Base 2.8.4
 _ZN15QsciScintillaQt19FineTickerAvailableEv@Base 2.9
 _ZN15QsciScintillaQt20SetVerticalScrollPosEv@Base 2.8.4
 _ZN15QsciScintillaQt21ReconfigureScrollBarsEv@Base 2.8.4
 _ZN15QsciScintillaQt22SetHorizontalScrollPosEv@Base 2.8.4
 _ZN15QsciScintillaQt4CopyEv@Base 2.8.4
 _ZN15QsciScintillaQt5PasteEv@Base 2.8.4
 _ZN15QsciScintillaQt6onIdleEv@Base 2.9
 _ZN15QsciScintillaQt7SetIdleEb@Base 2.9
 _ZN15QsciScintillaQt7WndProcEjml@Base 2.8.4
 _ZN15QsciScintillaQt8FinaliseEv@Base 2.8.4
 _ZN15QsciScintillaQt9StartDragEv@Base 2.8.4
 _ZN15QsciScintillaQtC1EP17QsciScintillaBase@Base 2.8.4
 _ZN15QsciScintillaQtC2EP17QsciScintillaBase@Base 2.8.4
 _ZN15QsciScintillaQtD0Ev@Base 2.8.4
 _ZN15QsciScintillaQtD1Ev@Base 2.8.4
 _ZN15QsciScintillaQtD2Ev@Base 2.8.4
 _ZN15QtSharedPointer20ExternalRefCountDataD1Ev@Base 2.8.4
 _ZN15QtSharedPointer20ExternalRefCountDataD2Ev@Base 2.8.4
 _ZN15QtSharedPointer20ExternalRefCountDatadlEPv@Base 2.8.4
 _ZN15RegexSearchBaseC1Ev@Base 2.8.4
 _ZN15RegexSearchBaseC2Ev@Base 2.8.4
 _ZN15RegexSearchBaseD0Ev@Base 2.8.4
 _ZN15RegexSearchBaseD1Ev@Base 2.8.4
 _ZN15RegexSearchBaseD2Ev@Base 2.8.4
 _ZN16CharacterIndexerC1Ev@Base 2.8.4
 _ZN16CharacterIndexerC2Ev@Base 2.8.4
 _ZN16CharacterIndexerD0Ev@Base 2.8.4
 _ZN16CharacterIndexerD1Ev@Base 2.8.4
 _ZN16CharacterIndexerD2Ev@Base 2.8.4
 _ZN16ContractionState10DeleteLineEi@Base 2.8.4
 _ZN16ContractionState10EnsureDataEv@Base 2.8.4
 _ZN16ContractionState10InsertLineEi@Base 2.8.4
 _ZN16ContractionState10SetVisibleEiib@Base 2.8.4
 _ZN16ContractionState11DeleteLinesEii@Base 2.8.4
 _ZN16ContractionState11InsertLinesEii@Base 2.8.4
 _ZN16ContractionState11SetExpandedEib@Base 2.8.4
 _ZN16ContractionState5ClearEv@Base 2.8.4
 _ZN16ContractionState7ShowAllEv@Base 2.8.4
 _ZN16ContractionState9SetHeightEii@Base 2.8.4
 _ZN16ContractionStateC1Ev@Base 2.8.4
 _ZN16ContractionStateC2Ev@Base 2.8.4
 _ZN16ContractionStateD0Ev@Base 2.8.4
 _ZN16ContractionStateD1Ev@Base 2.8.4
 _ZN16ContractionStateD2Ev@Base 2.8.4
 _ZN16FontMeasurements5ClearEv@Base 2.8.4
 _ZN16FontMeasurementsC1Ev@Base 2.8.4
 _ZN16FontMeasurementsC2Ev@Base 2.8.4
 _ZN16OptionSetHaskellC1Ev@Base 2.8.4
 _ZN16OptionSetHaskellC2Ev@Base 2.8.4
 _ZN16OptionSetHaskellD0Ev@Base 2.8.4
 _ZN16OptionSetHaskellD1Ev@Base 2.8.4
 _ZN16OptionSetHaskellD2Ev@Base 2.8.4
 _ZN16QCoreApplication8instanceEv@Base 2.8.4
 _ZN16QCoreApplication9sendEventEP7QObjectP6QEvent@Base 2.8.4
 _ZN16QsciAPIsPrepared11apiBaseNameERK7QString@Base 2.8.4
 _ZN16QsciAPIsPreparedC1Ev@Base 2.8.4
 _ZN16QsciAPIsPreparedC2Ev@Base 2.8.4
 _ZN16QsciAPIsPreparedD1Ev@Base 2.8.4
 _ZN16QsciAPIsPreparedD2Ev@Base 2.8.4
 _ZN16QsciAbstractAPIs11qt_metacallEN11QMetaObject4CallEiPPv@Base 2.8.4
 _ZN16QsciAbstractAPIs11qt_metacastEPKc@Base 2.8.4
 _ZN16QsciAbstractAPIs16staticMetaObjectE@Base 2.8.4
 _ZN16QsciAbstractAPIs22autoCompletionSelectedERK7QString@Base 2.8.4
 _ZN16QsciAbstractAPIsC1EP9QsciLexer@Base 2.8.4
 _ZN16QsciAbstractAPIsC2EP9QsciLexer@Base 2.8.4
 _ZN16QsciAbstractAPIsD0Ev@Base 2.8.4
 _ZN16QsciAbstractAPIsD1Ev@Base 2.8.4
 _ZN16QsciAbstractAPIsD2Ev@Base 2.8.4
 _ZN16QsciLexerFortran11qt_metacallEN11QMetaObject4CallEiPPv@Base 2.8.4
 _ZN16QsciLexerFortran11qt_metacastEPKc@Base 2.8.4
 _ZN16QsciLexerFortran16staticMetaObjectE@Base 2.8.4
 _ZN16QsciLexerFortranC1EP7QObject@Base 2.8.4
 _ZN16QsciLexerFortranC2EP7QObject@Base 2.8.4
 _ZN16QsciLexerFortranD0Ev@Base 2.8.4
 _ZN16QsciLexerFortranD1Ev@Base 2.8.4
 _ZN16QsciLexerFortranD2Ev@Base 2.8.4
 _ZN16QsciLexerVerilog11qt_metacallEN11QMetaObject4CallEiPPv@Base 2.8.4
 _ZN16QsciLexerVerilog11qt_metacastEPKc@Base 2.8.4
 _ZN16QsciLexerVerilog13setAtElsePropEv@Base 2.8.4
 _ZN16QsciLexerVerilog13setFoldAtElseEb@Base 2.8.4
 _ZN16QsciLexerVerilog14readPropertiesER9QSettingsRK7QString@Base 2.8.4
 _ZN16QsciLexerVerilog14setCommentPropEv@Base 2.8.4
 _ZN16QsciLexerVerilog14setCompactPropEv@Base 2.8.4
 _ZN16QsciLexerVerilog14setFoldCompactEb@Base 2.8.4
 _ZN16QsciLexerVerilog14setPreprocPropEv@Base 2.8.4
 _ZN16QsciLexerVerilog15setAtModulePropEv@Base 2.8.4
 _ZN16QsciLexerVerilog15setFoldAtModuleEb@Base 2.8.4
 _ZN16QsciLexerVerilog15setFoldCommentsEb@Base 2.8.4
 _ZN16QsciLexerVerilog16staticMetaObjectE@Base 2.8.4
 _ZN16QsciLexerVerilog17refreshPropertiesEv@Base 2.8.4
 _ZN16QsciLexerVerilog19setFoldPreprocessorEb@Base 2.8.4
 _ZN16QsciLexerVerilog2trEPKcS1_i@Base 2.8.4
 _ZN16QsciLexerVerilogC1EP7QObject@Base 2.8.4
 _ZN16QsciLexerVerilogC2EP7QObject@Base 2.8.4
 _ZN16QsciLexerVerilogD0Ev@Base 2.8.4
 _ZN16QsciLexerVerilogD1Ev@Base 2.8.4
 _ZN16QsciLexerVerilogD2Ev@Base 2.8.4
 _ZN16SelectionSegment6ExtendE17SelectionPosition@Base 2.8.4
 _ZN16SelectionSegmentC1E17SelectionPositionS0_@Base 2.8.4
 _ZN16SelectionSegmentC1Ev@Base 2.8.4
 _ZN16SelectionSegmentC2E17SelectionPositionS0_@Base 2.8.4
 _ZN16SelectionSegmentC2Ev@Base 2.8.4
 _ZN17CaseFolderUnicode4FoldEPcjPKcj@Base 2.9
 _ZN17CaseFolderUnicodeC1Ev@Base 2.8.4
 _ZN17CaseFolderUnicodeC2Ev@Base 2.8.4
 _ZN17CaseFolderUnicodeD0Ev@Base 2.8.4
 _ZN17CaseFolderUnicodeD1Ev@Base 2.8.4
 _ZN17CaseFolderUnicodeD2Ev@Base 2.8.4
 _ZN17FontSpecificationC1Ev@Base 2.8.4
 _ZN17FontSpecificationC2Ev@Base 2.8.4
 _ZN17LexerNoExceptions11PropertySetEPKcS1_@Base 2.8.4
 _ZN17LexerNoExceptions11WordListSetEiPKc@Base 2.8.4
 _ZN17LexerNoExceptions3LexEjiiP9IDocument@Base 2.8.4
 _ZN17LexerNoExceptions4FoldEjiiP9IDocument@Base 2.8.4
 _ZN17LexerVisualProlog11PrivateCallEiPv@Base 2.8.4
 _ZN17LexerVisualProlog11PropertySetEPKcS1_@Base 2.8.4
 _ZN17LexerVisualProlog11WordListSetEiPKc@Base 2.8.4
 _ZN17LexerVisualProlog12PropertyTypeEPKc@Base 2.8.4
 _ZN17LexerVisualProlog13PropertyNamesEv@Base 2.8.4
 _ZN17LexerVisualProlog16DescribePropertyEPKc@Base 2.8.4
 _ZN17LexerVisualProlog20DescribeWordListSetsEv@Base 2.8.4
 _ZN17LexerVisualProlog24LexerFactoryVisualPrologEv@Base 2.8.4
 _ZN17LexerVisualProlog3LexEjiiP9IDocument@Base 2.8.4
 _ZN17LexerVisualProlog4FoldEjiiP9IDocument@Base 2.8.4
 _ZN17LexerVisualProlog7ReleaseEv@Base 2.8.4
 _ZN17LexerVisualPrologC1Ev@Base 2.8.4
 _ZN17LexerVisualPrologC2Ev@Base 2.8.4
 _ZN17LexerVisualPrologD0Ev@Base 2.8.4
 _ZN17LexerVisualPrologD1Ev@Base 2.8.4
 _ZN17LexerVisualPrologD2Ev@Base 2.8.4
 _ZN17OptionSetRegistryC1Ev@Base 2.9
 _ZN17OptionSetRegistryC2Ev@Base 2.9
 _ZN17OptionSetRegistryD0Ev@Base 2.9
 _ZN17OptionSetRegistryD1Ev@Base 2.9
 _ZN17OptionSetRegistryD2Ev@Base 2.9
 _ZN17QForeachContainerI5QListI9QFileInfoEEC1ERKS2_@Base 2.8.4
 _ZN17QForeachContainerI5QListI9QFileInfoEEC2ERKS2_@Base 2.8.4
 _ZN17QForeachContainerI5QListI9QFileInfoEED1Ev@Base 2.8.4
 _ZN17QForeachContainerI5QListI9QFileInfoEED2Ev@Base 2.8.4
 _ZN17QForeachContainerIK5QListIN17QInputMethodEvent9AttributeEEEC1ERS4_@Base 2.8.4
 _ZN17QForeachContainerIK5QListIN17QInputMethodEvent9AttributeEEEC2ERS4_@Base 2.8.4
 _ZN17QForeachContainerIK5QListIN17QInputMethodEvent9AttributeEEED1Ev@Base 2.8.4
 _ZN17QForeachContainerIK5QListIN17QInputMethodEvent9AttributeEEED2Ev@Base 2.8.4
 _ZN17QInputMethodEvent9AttributeC1ERKS0_@Base 2.8.4
 _ZN17QInputMethodEvent9AttributeC2ERKS0_@Base 2.8.4
 _ZN17QInputMethodEvent9AttributeD1Ev@Base 2.8.4
 _ZN17QInputMethodEvent9AttributeD2Ev@Base 2.8.4
 _ZN17QsciLexerMakefile11qt_metacallEN11QMetaObject4CallEiPPv@Base 2.8.4
 _ZN17QsciLexerMakefile11qt_metacastEPKc@Base 2.8.4
 _ZN17QsciLexerMakefile16staticMetaObjectE@Base 2.8.4
 _ZN17QsciLexerMakefile2trEPKcS1_i@Base 2.8.4
 _ZN17QsciLexerMakefileC1EP7QObject@Base 2.8.4
 _ZN17QsciLexerMakefileC2EP7QObject@Base 2.8.4
 _ZN17QsciLexerMakefileD0Ev@Base 2.8.4
 _ZN17QsciLexerMakefileD1Ev@Base 2.8.4
 _ZN17QsciLexerMakefileD2Ev@Base 2.8.4
 _ZN17QsciScintillaBase10commandKeyEiRi@Base 2.8.4
 _ZN17QsciScintillaBase10paintEventEP11QPaintEvent@Base 2.8.4
 _ZN17QsciScintillaBase11SCEN_CHANGEEv@Base 2.8.4
 _ZN17QsciScintillaBase11SCN_FOCUSINEv@Base 2.8.4
 _ZN17QsciScintillaBase11SCN_PAINTEDEv@Base 2.8.4
 _ZN17QsciScintillaBase11qt_metacallEN11QMetaObject4CallEiPPv@Base 2.8.4
 _ZN17QsciScintillaBase11qt_metacastEPKc@Base 2.8.4
 _ZN17QsciScintillaBase11resizeEventEP12QResizeEvent@Base 2.8.4
 _ZN17QsciScintillaBase12SCN_DWELLENDEiii@Base 2.8.4
 _ZN17QsciScintillaBase12SCN_FOCUSOUTEv@Base 2.8.4
 _ZN17QsciScintillaBase12SCN_MODIFIEDEiiPKciiiiiii@Base 2.8.4
 _ZN17QsciScintillaBase12SCN_UPDATEUIEi@Base 2.8.4
 _ZN17QsciScintillaBase12acceptActionEP10QDropEvent@Base 2.8.4
 _ZN17QsciScintillaBase12focusInEventEP11QFocusEvent@Base 2.8.4
 _ZN17QsciScintillaBase13SCN_CHARADDEDEi@Base 2.8.4
 _ZN17QsciScintillaBase13SCN_NEEDSHOWNEii@Base 2.8.4
 _ZN17QsciScintillaBase13dragMoveEventEP14QDragMoveEvent@Base 2.8.4
 _ZN17QsciScintillaBase13focusOutEventEP11QFocusEvent@Base 2.8.4
 _ZN17QsciScintillaBase13keyPressEventEP9QKeyEvent@Base 2.8.4
 _ZN17QsciScintillaBase13setScrollBarsEv@Base 2.8.4
 _ZN17QsciScintillaBase14SCN_DWELLSTARTEiii@Base 2.8.4
 _ZN17QsciScintillaBase14dragEnterEventEP15QDragEnterEvent@Base 2.8.4
 _ZN17QsciScintillaBase14dragLeaveEventEP15QDragLeaveEvent@Base 2.8.4
 _ZN17QsciScintillaBase14mouseMoveEventEP11QMouseEvent@Base 2.8.4
 _ZN17QsciScintillaBase15QSCN_SELCHANGEDEb@Base 2.8.4
 _ZN17QsciScintillaBase15SCN_DOUBLECLICKEiii@Base 2.8.4
 _ZN17QsciScintillaBase15SCN_MACRORECORDEjmPv@Base 2.8.4
 _ZN17QsciScintillaBase15SCN_MARGINCLICKEiii@Base 2.8.4
 _ZN17QsciScintillaBase15SCN_STYLENEEDEDEi@Base 2.8.4
 _ZN17QsciScintillaBase15handleSelectionEv@Base 2.8.4
 _ZN17QsciScintillaBase15mousePressEventEP11QMouseEvent@Base 2.8.4
 _ZN17QsciScintillaBase16SCN_CALLTIPCLICKEi@Base 2.8.4
 _ZN17QsciScintillaBase16SCN_HOTSPOTCLICKEii@Base 2.8.4
 _ZN17QsciScintillaBase16contextMenuEventEP17QContextMenuEvent@Base 2.8.4
 _ZN17QsciScintillaBase16inputMethodEventEP17QInputMethodEvent@Base 2.8.4
 _ZN17QsciScintillaBase16scrollContentsByEii@Base 2.8.4
 _ZN17QsciScintillaBase16staticMetaObjectE@Base 2.8.4
 _ZN17QsciScintillaBase17SCN_SAVEPOINTLEFTEv@Base 2.8.4
 _ZN17QsciScintillaBase17mouseReleaseEventEP11QMouseEvent@Base 2.8.4
 _ZN17QsciScintillaBase18SCN_AUTOCCANCELLEDEv@Base 2.8.4
 _ZN17QsciScintillaBase18SCN_AUTOCSELECTIONEPKci@Base 2.8.4
 _ZN17QsciScintillaBase18SCN_INDICATORCLICKEii@Base 2.8.4
 _ZN17QsciScintillaBase18focusNextPrevChildEb@Base 2.8.4
 _ZN17QsciScintillaBase19SCN_MODIFYATTEMPTROEv@Base 2.8.4
 _ZN17QsciScintillaBase20SCN_AUTOCCHARDELETEDEv@Base 2.8.4
 _ZN17QsciScintillaBase20SCN_INDICATORRELEASEEii@Base 2.8.4
 _ZN17QsciScintillaBase20SCN_SAVEPOINTREACHEDEv@Base 2.8.4
 _ZN17QsciScintillaBase21SCN_USERLISTSELECTIONEPKci@Base 2.8.4
 _ZN17QsciScintillaBase21mouseDoubleClickEventEP11QMouseEvent@Base 2.8.4
 _ZN17QsciScintillaBase22SCN_HOTSPOTDOUBLECLICKEii@Base 2.8.4
 _ZN17QsciScintillaBase23SCN_HOTSPOTRELEASECLICKEii@Base 2.8.4
 _ZN17QsciScintillaBase4poolEv@Base 2.8.4
 _ZN17QsciScintillaBase8SCN_ZOOMEv@Base 2.8.4
 _ZN17QsciScintillaBase9dropEventEP10QDropEvent@Base 2.8.4
 _ZN17QsciScintillaBase9handleHSbEi@Base 2.8.4
 _ZN17QsciScintillaBase9handleVSbEi@Base 2.8.4
 _ZN17QsciScintillaBaseC1EP7QWidget@Base 2.8.4
 _ZN17QsciScintillaBaseC2EP7QWidget@Base 2.8.4
 _ZN17QsciScintillaBaseD0Ev@Base 2.8.4
 _ZN17QsciScintillaBaseD1Ev@Base 2.8.4
 _ZN17QsciScintillaBaseD2Ev@Base 2.8.4
 _ZN17SelectionPosition11SetPositionEi@Base 2.8.4
 _ZN17SelectionPosition15SetVirtualSpaceEi@Base 2.8.4
 _ZN17SelectionPosition19MoveForInsertDeleteEbii@Base 2.8.4
 _ZN17SelectionPosition3AddEi@Base 2.8.4
 _ZN17SelectionPosition5ResetEv@Base 2.8.4
 _ZN17SelectionPositionC1Eii@Base 2.8.4
 _ZN17SelectionPositionC2Eii@Base 2.8.4
 _ZN18DynamicLibraryImpl12FindFunctionEPKc@Base 2.8.4
 _ZN18DynamicLibraryImpl7IsValidEv@Base 2.8.4
 _ZN18DynamicLibraryImplC1EPKc@Base 2.8.4
 _ZN18DynamicLibraryImplC2EPKc@Base 2.8.4
 _ZN18DynamicLibraryImplD0Ev@Base 2.8.4
 _ZN18DynamicLibraryImplD1Ev@Base 2.8.4
 _ZN18DynamicLibraryImplD2Ev@Base 2.8.4
 _ZN18HighlightDelimiter5ClearEv@Base 2.8.4
 _ZN18HighlightDelimiterC1Ev@Base 2.8.4
 _ZN18HighlightDelimiterC2Ev@Base 2.8.4
 _ZN18PositionCacheEntry10ResetClockEv@Base 2.8.4
 _ZN18PositionCacheEntry3SetEjPKcjPfj@Base 2.8.4
 _ZN18PositionCacheEntry4HashEjPKcj@Base 2.8.4
 _ZN18PositionCacheEntry5ClearEv@Base 2.8.4
 _ZN18PositionCacheEntryC1Ev@Base 2.8.4
 _ZN18PositionCacheEntryC2Ev@Base 2.8.4
 _ZN18PositionCacheEntryD1Ev@Base 2.8.4
 _ZN18PositionCacheEntryD2Ev@Base 2.8.4
 _ZN18QAlgorithmsPrivate17qLowerBoundHelperIN5QListI7QStringE14const_iteratorES2_5qLessIS2_EEET_S7_S7_RKT0_T1_@Base 2.8.4
 _ZN18QMessageLogContextC1EPKciS1_S1_@Base 2.8.4
 _ZN18QMessageLogContextC2EPKciS1_S1_@Base 2.8.4
 _ZN18QsciLexerFortran7711qt_metacallEN11QMetaObject4CallEiPPv@Base 2.8.4
 _ZN18QsciLexerFortran7711qt_metacastEPKc@Base 2.8.4
 _ZN18QsciLexerFortran7714readPropertiesER9QSettingsRK7QString@Base 2.8.4
 _ZN18QsciLexerFortran7714setCompactPropEv@Base 2.8.4
 _ZN18QsciLexerFortran7714setFoldCompactEb@Base 2.8.4
 _ZN18QsciLexerFortran7716staticMetaObjectE@Base 2.8.4
 _ZN18QsciLexerFortran7717refreshPropertiesEv@Base 2.8.4
 _ZN18QsciLexerFortran772trEPKcS1_i@Base 2.8.4
 _ZN18QsciLexerFortran77C1EP7QObject@Base 2.8.4
 _ZN18QsciLexerFortran77C2EP7QObject@Base 2.8.4
 _ZN18QsciLexerFortran77D0Ev@Base 2.8.4
 _ZN18QsciLexerFortran77D1Ev@Base 2.8.4
 _ZN18QsciLexerFortran77D2Ev@Base 2.8.4
 _ZN19ExternalLexerModule11SetExternalEPFPFP6ILexervEjEi@Base 2.8.4
 _ZN19ExternalLexerModuleC1EiPFvjiiPP8WordListR8AccessorEPKcS6_@Base 2.8.4
 _ZN19ExternalLexerModuleC2EiPFvjiiPP8WordListR8AccessorEPKcS6_@Base 2.8.4
 _ZN19ExternalLexerModuleD0Ev@Base 2.8.4
 _ZN19ExternalLexerModuleD1Ev@Base 2.8.4
 _ZN19ExternalLexerModuleD2Ev@Base 2.8.4
 _ZN19ILexerWithSubStylesC1Ev@Base 2.8.4
 _ZN19ILexerWithSubStylesC2Ev@Base 2.8.4
 _ZN19OptionsVisualPrologC1Ev@Base 2.8.4
 _ZN19OptionsVisualPrologC2Ev@Base 2.8.4
 _ZN19QBasicAtomicIntegerIiE3refEv@Base 2.8.4
 _ZN19QBasicAtomicIntegerIiE5derefEv@Base 2.8.4
 _ZN19QListSpecialMethodsI5QPairIjjEEC1Ev@Base 2.9
 _ZN19QListSpecialMethodsI5QPairIjjEEC2Ev@Base 2.9
 _ZN19QListSpecialMethodsI5QPairIjjEED1Ev@Base 2.9.1
 _ZN19QListSpecialMethodsI5QPairIjjEED2Ev@Base 2.9.1
 _ZN19QListSpecialMethodsI7QStringE4selfEv@Base 2.9.1
 _ZN19QListSpecialMethodsI7QStringE4sortEN2Qt15CaseSensitivityE@Base 2.9.1
 _ZN19QListSpecialMethodsI7QStringEC1Ev@Base 2.9
 _ZN19QListSpecialMethodsI7QStringEC2Ev@Base 2.9
 _ZN19QListSpecialMethodsI7QStringED1Ev@Base 2.9.1
 _ZN19QListSpecialMethodsI7QStringED2Ev@Base 2.9.1
 _ZN19QListSpecialMethodsI9QFileInfoED1Ev@Base 2.9.1
 _ZN19QListSpecialMethodsI9QFileInfoED2Ev@Base 2.9.1
 _ZN19QListSpecialMethodsIN17QInputMethodEvent9AttributeEED1Ev@Base 2.9.1
 _ZN19QListSpecialMethodsIN17QInputMethodEvent9AttributeEED2Ev@Base 2.9.1
 _ZN19QListSpecialMethodsIN9QsciMacro5MacroEEC1Ev@Base 2.9
 _ZN19QListSpecialMethodsIN9QsciMacro5MacroEEC2Ev@Base 2.9
 _ZN19QListSpecialMethodsIN9QsciMacro5MacroEED1Ev@Base 2.9.1
 _ZN19QListSpecialMethodsIN9QsciMacro5MacroEED2Ev@Base 2.9.1
 _ZN19QListSpecialMethodsIP11QsciCommandEC1Ev@Base 2.9
 _ZN19QListSpecialMethodsIP11QsciCommandEC2Ev@Base 2.9
 _ZN19QListSpecialMethodsIP11QsciCommandED1Ev@Base 2.9.1
 _ZN19QListSpecialMethodsIP11QsciCommandED2Ev@Base 2.9.1
 _ZN19QListSpecialMethodsIP15QListWidgetItemED1Ev@Base 2.9.1
 _ZN19QListSpecialMethodsIP15QListWidgetItemED2Ev@Base 2.9.1
 _ZN19QListSpecialMethodsIP17QsciScintillaBaseEC1Ev@Base 2.9
 _ZN19QListSpecialMethodsIP17QsciScintillaBaseEC2Ev@Base 2.9
 _ZN19QListSpecialMethodsIP17QsciScintillaBaseED1Ev@Base 2.9.1
 _ZN19QListSpecialMethodsIP17QsciScintillaBaseED2Ev@Base 2.9.1
 _ZN19QListSpecialMethodsIiEC1Ev@Base 2.9
 _ZN19QListSpecialMethodsIiEC2Ev@Base 2.9
 _ZN19QListSpecialMethodsIiED1Ev@Base 2.9.1
 _ZN19QListSpecialMethodsIiED2Ev@Base 2.9.1
 _ZN19QsciLexerJavaScript11qt_metacallEN11QMetaObject4CallEiPPv@Base 2.8.4
 _ZN19QsciLexerJavaScript11qt_metacastEPKc@Base 2.8.4
 _ZN19QsciLexerJavaScript12keywordClassE@Base 2.8.4
 _ZN19QsciLexerJavaScript16staticMetaObjectE@Base 2.8.4
 _ZN19QsciLexerJavaScript2trEPKcS1_i@Base 2.8.4
 _ZN19QsciLexerJavaScriptC1EP7QObject@Base 2.8.4
 _ZN19QsciLexerJavaScriptC2EP7QObject@Base 2.8.4
 _ZN19QsciLexerJavaScriptD0Ev@Base 2.8.4
 _ZN19QsciLexerJavaScriptD1Ev@Base 2.8.4
 _ZN19QsciLexerJavaScriptD2Ev@Base 2.8.4
 _ZN19QsciLexerPostScript11qt_metacallEN11QMetaObject4CallEiPPv@Base 2.8.4
 _ZN19QsciLexerPostScript11qt_metacastEPKc@Base 2.8.4
 _ZN19QsciLexerPostScript11setTokenizeEb@Base 2.8.4
 _ZN19QsciLexerPostScript12setLevelPropEv@Base 2.8.4
 _ZN19QsciLexerPostScript13setAtElsePropEv@Base 2.8.4
 _ZN19QsciLexerPostScript13setFoldAtElseEb@Base 2.8.4
 _ZN19QsciLexerPostScript14readPropertiesER9QSettingsRK7QString@Base 2.8.4
 _ZN19QsciLexerPostScript14setCompactPropEv@Base 2.8.4
 _ZN19QsciLexerPostScript14setFoldCompactEb@Base 2.8.4
 _ZN19QsciLexerPostScript15setTokenizePropEv@Base 2.8.4
 _ZN19QsciLexerPostScript16staticMetaObjectE@Base 2.8.4
 _ZN19QsciLexerPostScript17refreshPropertiesEv@Base 2.8.4
 _ZN19QsciLexerPostScript2trEPKcS1_i@Base 2.8.4
 _ZN19QsciLexerPostScript8setLevelEi@Base 2.8.4
 _ZN19QsciLexerPostScriptC1EP7QObject@Base 2.8.4
 _ZN19QsciLexerPostScriptC2EP7QObject@Base 2.8.4
 _ZN19QsciLexerPostScriptD0Ev@Base 2.8.4
 _ZN19QsciLexerPostScriptD1Ev@Base 2.8.4
 _ZN19QsciLexerPostScriptD2Ev@Base 2.8.4
 _ZN19QsciLexerProperties11qt_metacallEN11QMetaObject4CallEiPPv@Base 2.8.4
 _ZN19QsciLexerProperties11qt_metacastEPKc@Base 2.8.4
 _ZN19QsciLexerProperties14readPropertiesER9QSettingsRK7QString@Base 2.8.4
 _ZN19QsciLexerProperties14setCompactPropEv@Base 2.8.4
 _ZN19QsciLexerProperties14setFoldCompactEb@Base 2.8.4
 _ZN19QsciLexerProperties16setInitialSpacesEb@Base 2.8.4
 _ZN19QsciLexerProperties16staticMetaObjectE@Base 2.8.4
 _ZN19QsciLexerProperties17refreshPropertiesEv@Base 2.8.4
 _ZN19QsciLexerProperties20setInitialSpacesPropEv@Base 2.8.4
 _ZN19QsciLexerProperties2trEPKcS1_i@Base 2.8.4
 _ZN19QsciLexerPropertiesC1EP7QObject@Base 2.8.4
 _ZN19QsciLexerPropertiesC2EP7QObject@Base 2.8.4
 _ZN19QsciLexerPropertiesD0Ev@Base 2.8.4
 _ZN19QsciLexerPropertiesD1Ev@Base 2.8.4
 _ZN19QsciLexerPropertiesD2Ev@Base 2.8.4
 _ZN20IDocumentWithLineEndC1Ev@Base 2.8.4
 _ZN20IDocumentWithLineEndC2Ev@Base 2.8.4
 _ZN20IdentifierClassifier18ClassifyIdentifierER12StyleContext@Base 2.8.4
 _ZN20IdentifierClassifierC1EPP8WordList@Base 2.8.4
 _ZN20IdentifierClassifierC2EPP8WordList@Base 2.8.4
 _ZN21OptionSetVisualPrologC1Ev@Base 2.8.4
 _ZN21OptionSetVisualPrologC2Ev@Base 2.8.4
 _ZN21OptionSetVisualPrologD0Ev@Base 2.8.4
 _ZN21OptionSetVisualPrologD1Ev@Base 2.8.4
 _ZN21OptionSetVisualPrologD2Ev@Base 2.8.4
 _ZN21QsciLexerCoffeeScript11qt_metacallEN11QMetaObject4CallEiPPv@Base 2.8.4
 _ZN21QsciLexerCoffeeScript11qt_metacastEPKc@Base 2.8.4
 _ZN21QsciLexerCoffeeScript14readPropertiesER9QSettingsRK7QString@Base 2.8.4
 _ZN21QsciLexerCoffeeScript14setCommentPropEv@Base 2.8.4
 _ZN21QsciLexerCoffeeScript14setCompactPropEv@Base 2.8.4
 _ZN21QsciLexerCoffeeScript14setDollarsPropEv@Base 2.8.4
 _ZN21QsciLexerCoffeeScript14setFoldCompactEb@Base 2.8.4
 _ZN21QsciLexerCoffeeScript15setFoldCommentsEb@Base 2.8.4
 _ZN21QsciLexerCoffeeScript16staticMetaObjectE@Base 2.8.4
 _ZN21QsciLexerCoffeeScript17refreshPropertiesEv@Base 2.8.4
 _ZN21QsciLexerCoffeeScript17setDollarsAllowedEb@Base 2.8.4
 _ZN21QsciLexerCoffeeScript19setStylePreprocPropEv@Base 2.8.4
 _ZN21QsciLexerCoffeeScript20setStylePreprocessorEb@Base 2.8.4
 _ZN21QsciLexerCoffeeScript2trEPKcS1_i@Base 2.8.4
 _ZN21QsciLexerCoffeeScriptC1EP7QObject@Base 2.8.4
 _ZN21QsciLexerCoffeeScriptC2EP7QObject@Base 2.8.4
 _ZN21QsciLexerCoffeeScriptD0Ev@Base 2.8.4
 _ZN21QsciLexerCoffeeScriptD1Ev@Base 2.8.4
 _ZN21QsciLexerCoffeeScriptD2Ev@Base 2.8.4
 _ZN22SpecialRepresentations17SetRepresentationEPKcS1_@Base 2.8.4
 _ZN22SpecialRepresentations19ClearRepresentationEPKc@Base 2.8.4
 _ZN22SpecialRepresentations5ClearEv@Base 2.8.4
 _ZN22SpecialRepresentationsC1Ev@Base 2.8.4
 _ZN22SpecialRepresentationsC2Ev@Base 2.8.4
 _ZN22SpecialRepresentationsD1Ev@Base 2.8.4
 _ZN22SpecialRepresentationsD2Ev@Base 2.8.4
 _ZN23SplitVectorWithRangeAdd13RangeAddDeltaEiii@Base 2.8.4
 _ZN23SplitVectorWithRangeAddC1Ei@Base 2.8.4
 _ZN23SplitVectorWithRangeAddC2Ei@Base 2.8.4
 _ZN23SplitVectorWithRangeAddD1Ev@Base 2.8.4
 _ZN23SplitVectorWithRangeAddD2Ev@Base 2.8.4
 _ZN28QExplicitlySharedDataPointerI12QFontPrivateE4swapERS1_@Base 2.9.2+dfsg
 _ZN3XPM4DrawEP7SurfaceR10PRectangle@Base 2.8.4
 _ZN3XPMC1EPKPKc@Base 2.8.4
 _ZN3XPMC1EPKc@Base 2.8.4
 _ZN3XPMC2EPKPKc@Base 2.8.4
 _ZN3XPMC2EPKc@Base 2.8.4
 _ZN3XPMD1Ev@Base 2.8.4
 _ZN3XPMD2Ev@Base 2.8.4
 _ZN4Font5GetIDEv@Base 2.8.4
 _ZN4Font5SetIDEPv@Base 2.8.4
 _ZN4Font6CreateERK14FontParameters@Base 2.8.4
 _ZN4Font7ReleaseEv@Base 2.8.4
 _ZN4FontC1Ev@Base 2.8.4
 _ZN4FontC2Ev@Base 2.8.4
 _ZN4FontD0Ev@Base 2.8.4
 _ZN4FontD1Ev@Base 2.8.4
 _ZN4FontD2Ev@Base 2.8.4
 _ZN4Menu11CreatePopUpEv@Base 2.8.4
 _ZN4Menu4ShowE5PointR6Window@Base 2.8.4
 _ZN4Menu5GetIDEv@Base 2.8.4
 _ZN4Menu7DestroyEv@Base 2.8.4
 _ZN4MenuC1Ev@Base 2.8.4
 _ZN4MenuC2Ev@Base 2.8.4
 _ZN4QDir4homeEv@Base 2.8.4
 _ZN4QMapI7QString5QListI5QPairIjjEEE10lowerBoundERKS0_@Base 2.8.4
 _ZN4QMapI7QString5QListI5QPairIjjEEE11insertMultiERKS0_RKS4_@Base 2.8.4
 _ZN4QMapI7QString5QListI5QPairIjjEEE13detach_helperEv@Base 2.8.4
 _ZN4QMapI7QString5QListI5QPairIjjEEE14const_iteratorC1EPK8QMapNodeIS0_S4_E@Base 2.8.4
 _ZN4QMapI7QString5QListI5QPairIjjEEE14const_iteratorC1ERKNS5_8iteratorE@Base 2.8.4
 _ZN4QMapI7QString5QListI5QPairIjjEEE14const_iteratorC2EPK8QMapNodeIS0_S4_E@Base 2.8.4
 _ZN4QMapI7QString5QListI5QPairIjjEEE14const_iteratorC2ERKNS5_8iteratorE@Base 2.8.4
 _ZN4QMapI7QString5QListI5QPairIjjEEE14const_iteratormmEv@Base 2.8.4
 _ZN4QMapI7QString5QListI5QPairIjjEEE14const_iteratorppEv@Base 2.8.4
 _ZN4QMapI7QString5QListI5QPairIjjEEE3endEv@Base 2.8.4
 _ZN4QMapI7QString5QListI5QPairIjjEEE4swapERS5_@Base 2.8.4
 _ZN4QMapI7QString5QListI5QPairIjjEEE5beginEv@Base 2.8.4
 _ZN4QMapI7QString5QListI5QPairIjjEEE5clearEv@Base 2.8.4
 _ZN4QMapI7QString5QListI5QPairIjjEEE6detachEv@Base 2.8.4
 _ZN4QMapI7QString5QListI5QPairIjjEEE6insertERKS0_RKS4_@Base 2.8.4
 _ZN4QMapI7QString5QListI5QPairIjjEEE8iteratorC1EP8QMapNodeIS0_S4_E@Base 2.8.4
 _ZN4QMapI7QString5QListI5QPairIjjEEE8iteratorC2EP8QMapNodeIS0_S4_E@Base 2.8.4
 _ZN4QMapI7QString5QListI5QPairIjjEEEC1EOS5_@Base 2.9.2+dfsg
 _ZN4QMapI7QString5QListI5QPairIjjEEEC1Ev@Base 2.8.4
 _ZN4QMapI7QString5QListI5QPairIjjEEEC2EOS5_@Base 2.9.2+dfsg
 _ZN4QMapI7QString5QListI5QPairIjjEEEC2Ev@Base 2.8.4
 _ZN4QMapI7QString5QListI5QPairIjjEEED1Ev@Base 2.8.4
 _ZN4QMapI7QString5QListI5QPairIjjEEED2Ev@Base 2.8.4
 _ZN4QMapI7QString5QListI5QPairIjjEEEaSEOS5_@Base 2.9.2+dfsg
 _ZN4QMapI7QString5QListI5QPairIjjEEEixERKS0_@Base 2.8.4
 _ZN4QMapI7QStringS0_E10lowerBoundERKS0_@Base 2.8.4
 _ZN4QMapI7QStringS0_E13detach_helperEv@Base 2.8.4
 _ZN4QMapI7QStringS0_E14const_iteratorC1ERKNS1_8iteratorE@Base 2.8.4
 _ZN4QMapI7QStringS0_E14const_iteratorC2ERKNS1_8iteratorE@Base 2.8.4
 _ZN4QMapI7QStringS0_E14const_iteratorppEv@Base 2.8.4
 _ZN4QMapI7QStringS0_E3endEv@Base 2.8.4
 _ZN4QMapI7QStringS0_E4swapERS1_@Base 2.8.4
 _ZN4QMapI7QStringS0_E5clearEv@Base 2.8.4
 _ZN4QMapI7QStringS0_E6detachEv@Base 2.8.4
 _ZN4QMapI7QStringS0_E6insertERKS0_S3_@Base 2.8.4
 _ZN4QMapI7QStringS0_E8iteratorC1EP8QMapNodeIS0_S0_E@Base 2.8.4
 _ZN4QMapI7QStringS0_E8iteratorC2EP8QMapNodeIS0_S0_E@Base 2.8.4
 _ZN4QMapI7QStringS0_EC1EOS1_@Base 2.9.2+dfsg
 _ZN4QMapI7QStringS0_EC1Ev@Base 2.8.4
 _ZN4QMapI7QStringS0_EC2EOS1_@Base 2.9.2+dfsg
 _ZN4QMapI7QStringS0_EC2Ev@Base 2.8.4
 _ZN4QMapI7QStringS0_ED1Ev@Base 2.8.4
 _ZN4QMapI7QStringS0_ED2Ev@Base 2.8.4
 _ZN4QMapI7QStringS0_EaSEOS1_@Base 2.9.2+dfsg
 _ZN4QMapI7QStringS0_EixERKS0_@Base 2.8.4
 _ZN4QMapIi7QPixmapE13detach_helperEv@Base 2.8.4
 _ZN4QMapIi7QPixmapE14const_iteratorC1ERKNS1_8iteratorE@Base 2.8.4
 _ZN4QMapIi7QPixmapE14const_iteratorC1Ev@Base 2.8.4
 _ZN4QMapIi7QPixmapE14const_iteratorC2ERKNS1_8iteratorE@Base 2.8.4
 _ZN4QMapIi7QPixmapE14const_iteratorC2Ev@Base 2.8.4
 _ZN4QMapIi7QPixmapE14const_iteratorppEv@Base 2.8.4
 _ZN4QMapIi7QPixmapE3endEv@Base 2.8.4
 _ZN4QMapIi7QPixmapE4findERKi@Base 2.8.4
 _ZN4QMapIi7QPixmapE4swapERS1_@Base 2.8.4
 _ZN4QMapIi7QPixmapE5beginEv@Base 2.8.4
 _ZN4QMapIi7QPixmapE5clearEv@Base 2.8.4
 _ZN4QMapIi7QPixmapE6detachEv@Base 2.8.4
 _ZN4QMapIi7QPixmapE6insertERKiRKS0_@Base 2.8.4
 _ZN4QMapIi7QPixmapE8iteratorC1EP8QMapNodeIiS0_E@Base 2.8.4
 _ZN4QMapIi7QPixmapE8iteratorC2EP8QMapNodeIiS0_E@Base 2.8.4
 _ZN4QMapIi7QPixmapEC1EOS1_@Base 2.9.2+dfsg
 _ZN4QMapIi7QPixmapEC1Ev@Base 2.8.4
 _ZN4QMapIi7QPixmapEC2EOS1_@Base 2.9.2+dfsg
 _ZN4QMapIi7QPixmapEC2Ev@Base 2.8.4
 _ZN4QMapIi7QPixmapED1Ev@Base 2.8.4
 _ZN4QMapIi7QPixmapED2Ev@Base 2.8.4
 _ZN4QMapIi7QPixmapEaSEOS1_@Base 2.9.2+dfsg
 _ZN4QMapIiN9QsciLexer9StyleDataEE13detach_helperEv@Base 2.8.4
 _ZN4QMapIiN9QsciLexer9StyleDataEE6detachEv@Base 2.8.4
 _ZN4QMapIiN9QsciLexer9StyleDataEE6insertERKiRKS1_@Base 2.8.4
 _ZN4QMapIiN9QsciLexer9StyleDataEE8iteratorC1EP8QMapNodeIiS1_E@Base 2.8.4
 _ZN4QMapIiN9QsciLexer9StyleDataEE8iteratorC2EP8QMapNodeIiS1_E@Base 2.8.4
 _ZN4QMapIiN9QsciLexer9StyleDataEEC1Ev@Base 2.8.4
 _ZN4QMapIiN9QsciLexer9StyleDataEEC2Ev@Base 2.8.4
 _ZN4QMapIiN9QsciLexer9StyleDataEED1Ev@Base 2.8.4
 _ZN4QMapIiN9QsciLexer9StyleDataEED2Ev@Base 2.8.4
 _ZN4QMapIiN9QsciLexer9StyleDataEEixERKi@Base 2.8.4
 _ZN5AfterC1Ei@Base 2.8.4
 _ZN5AfterC2Ei@Base 2.8.4
 _ZN5CaretC1Ev@Base 2.8.4
 _ZN5CaretC2Ev@Base 2.8.4
 _ZN5IdlerC1Ev@Base 2.8.4
 _ZN5IdlerC2Ev@Base 2.8.4
 _ZN5Point8FromIntsEii@Base 2.9
 _ZN5Point8FromLongEl@Base 2.8.4
 _ZN5PointC1Eff@Base 2.8.4
 _ZN5PointC2Eff@Base 2.8.4
 _ZN5QChar10fromLatin1Ec@Base 2.8.4
 _ZN5QChar7isSpaceEj@Base 2.8.4
 _ZN5QChar7unicodeEv@Base 2.8.4
 _ZN5QCharC1E11QLatin1Char@Base 2.8.4
 _ZN5QCharC1Ec@Base 2.8.4
 _ZN5QCharC1Ei@Base 2.8.4
 _ZN5QCharC1Et@Base 2.8.4
 _ZN5QCharC2E11QLatin1Char@Base 2.8.4
 _ZN5QCharC2Ec@Base 2.8.4
 _ZN5QCharC2Ei@Base 2.8.4
 _ZN5QCharC2Et@Base 2.8.4
 _ZN5QFlagC1Ei@Base 2.8.4
 _ZN5QFlagC1Ej@Base 2.8.4
 _ZN5QFlagC2Ei@Base 2.8.4
 _ZN5QFlagC2Ej@Base 2.8.4
 _ZN5QFont7setBoldEb@Base 2.8.4
 _ZN5QFont9setItalicEb@Base 2.8.4
 _ZN5QFontaSEOS_@Base 2.9.2+dfsg
 _ZN5QLineC1Eiiii@Base 2.8.4
 _ZN5QLineC2Eiiii@Base 2.8.4
 _ZN5QListI14QsciStyledTextE4Node1tEv@Base 2.8.4
 _ZN5QListI5QPairIjjEE13detach_helperEi@Base 2.8.4
 _ZN5QListI5QPairIjjEE13node_destructEPNS2_4NodeES4_@Base 2.8.4
 _ZN5QListI5QPairIjjEE14node_constructEPNS2_4NodeERKS1_@Base 2.8.4
 _ZN5QListI5QPairIjjEE18detach_helper_growEii@Base 2.8.4
 _ZN5QListI5QPairIjjEE4Node1tEv@Base 2.8.4
 _ZN5QListI5QPairIjjEE4swapERS2_@Base 2.8.4
 _ZN5QListI5QPairIjjEE5clearEv@Base 2.8.4
 _ZN5QListI5QPairIjjEE6appendERKS1_@Base 2.8.4
 _ZN5QListI5QPairIjjEE7deallocEPN9QListData4DataE@Base 2.8.4
 _ZN5QListI5QPairIjjEE7reserveEi@Base 2.8.4
 _ZN5QListI5QPairIjjEE9node_copyEPNS2_4NodeES4_S4_@Base 2.8.4
 _ZN5QListI5QPairIjjEEC1EOS2_@Base 2.9.2+dfsg
 _ZN5QListI5QPairIjjEEC1ERKS2_@Base 2.8.4
 _ZN5QListI5QPairIjjEEC1Ev@Base 2.8.4
 _ZN5QListI5QPairIjjEEC2EOS2_@Base 2.9.2+dfsg
 _ZN5QListI5QPairIjjEEC2ERKS2_@Base 2.8.4
 _ZN5QListI5QPairIjjEEC2Ev@Base 2.8.4
 _ZN5QListI5QPairIjjEED1Ev@Base 2.8.4
 _ZN5QListI5QPairIjjEED2Ev@Base 2.8.4
 _ZN5QListI5QPairIjjEEaSEOS2_@Base 2.9.2+dfsg
 _ZN5QListI5QPairIjjEEaSERKS2_@Base 2.8.4
 _ZN5QListI7QStringE10removeLastEv@Base 2.8.4
 _ZN5QListI7QStringE13detach_helperEi@Base 2.8.4
 _ZN5QListI7QStringE13detach_helperEv@Base 2.8.4
 _ZN5QListI7QStringE13node_destructEPNS1_4NodeE@Base 2.8.4
 _ZN5QListI7QStringE13node_destructEPNS1_4NodeES3_@Base 2.8.4
 _ZN5QListI7QStringE14const_iteratorC1EPNS1_4NodeE@Base 2.8.4
 _ZN5QListI7QStringE14const_iteratorC1ERKNS1_8iteratorE@Base 2.8.4
 _ZN5QListI7QStringE14const_iteratorC1ERKS2_@Base 2.8.4
 _ZN5QListI7QStringE14const_iteratorC1Ev@Base 2.8.4
 _ZN5QListI7QStringE14const_iteratorC2EPNS1_4NodeE@Base 2.8.4
 _ZN5QListI7QStringE14const_iteratorC2ERKNS1_8iteratorE@Base 2.8.4
 _ZN5QListI7QStringE14const_iteratorC2ERKS2_@Base 2.8.4
 _ZN5QListI7QStringE14const_iteratorC2Ev@Base 2.8.4
 _ZN5QListI7QStringE14const_iteratorppEv@Base 2.8.4
 _ZN5QListI7QStringE14node_constructEPNS1_4NodeERKS0_@Base 2.8.4
 _ZN5QListI7QStringE18detach_helper_growEii@Base 2.8.4
 _ZN5QListI7QStringE3endEv@Base 2.8.4
 _ZN5QListI7QStringE4Node1tEv@Base 2.8.4
 _ZN5QListI7QStringE4lastEv@Base 2.8.4
 _ZN5QListI7QStringE4swapERS1_@Base 2.8.4
 _ZN5QListI7QStringE5beginEv@Base 2.8.4
 _ZN5QListI7QStringE5clearEv@Base 2.8.4
 _ZN5QListI7QStringE5eraseENS1_8iteratorE@Base 2.8.4
 _ZN5QListI7QStringE5firstEv@Base 2.8.4
 _ZN5QListI7QStringE6appendERKS0_@Base 2.8.4
 _ZN5QListI7QStringE6detachEv@Base 2.8.4
 _ZN5QListI7QStringE7deallocEPN9QListData4DataE@Base 2.8.4
 _ZN5QListI7QStringE7prependERKS0_@Base 2.8.4
 _ZN5QListI7QStringE7reserveEi@Base 2.8.4
 _ZN5QListI7QStringE8iteratorC1EPNS1_4NodeE@Base 2.8.4
 _ZN5QListI7QStringE8iteratorC1ERKS2_@Base 2.8.4
 _ZN5QListI7QStringE8iteratorC2EPNS1_4NodeE@Base 2.8.4
 _ZN5QListI7QStringE8iteratorC2ERKS2_@Base 2.8.4
 _ZN5QListI7QStringE8iteratormmEv@Base 2.8.4
 _ZN5QListI7QStringE8iteratorpLEi@Base 2.8.4
 _ZN5QListI7QStringE8removeAtEi@Base 2.8.4
 _ZN5QListI7QStringE9node_copyEPNS1_4NodeES3_S3_@Base 2.8.4
 _ZN5QListI7QStringEC1EOS1_@Base 2.9.2+dfsg
 _ZN5QListI7QStringEC1ERKS1_@Base 2.8.4
 _ZN5QListI7QStringEC1Ev@Base 2.8.4
 _ZN5QListI7QStringEC2EOS1_@Base 2.9.2+dfsg
 _ZN5QListI7QStringEC2ERKS1_@Base 2.8.4
 _ZN5QListI7QStringEC2Ev@Base 2.8.4
 _ZN5QListI7QStringED1Ev@Base 2.8.4
 _ZN5QListI7QStringED2Ev@Base 2.8.4
 _ZN5QListI7QStringEaSEOS1_@Base 2.9.2+dfsg
 _ZN5QListI7QStringEaSERKS1_@Base 2.8.4
 _ZN5QListI7QStringEixEi@Base 2.8.4
 _ZN5QListI7QStringEpLERKS0_@Base 2.8.4
 _ZN5QListI9QFileInfoE13node_destructEPNS1_4NodeES3_@Base 2.8.4
 _ZN5QListI9QFileInfoE14const_iteratorC1EPNS1_4NodeE@Base 2.8.4
 _ZN5QListI9QFileInfoE14const_iteratorC2EPNS1_4NodeE@Base 2.8.4
 _ZN5QListI9QFileInfoE14const_iteratorppEv@Base 2.8.4
 _ZN5QListI9QFileInfoE4Node1tEv@Base 2.8.4
 _ZN5QListI9QFileInfoE7deallocEPN9QListData4DataE@Base 2.8.4
 _ZN5QListI9QFileInfoE9node_copyEPNS1_4NodeES3_S3_@Base 2.8.4
 _ZN5QListI9QFileInfoEC1ERKS1_@Base 2.8.4
 _ZN5QListI9QFileInfoEC2ERKS1_@Base 2.8.4
 _ZN5QListI9QFileInfoED1Ev@Base 2.8.4
 _ZN5QListI9QFileInfoED2Ev@Base 2.8.4
 _ZN5QListIN17QInputMethodEvent9AttributeEE13node_destructEPNS2_4NodeES4_@Base 2.8.4
 _ZN5QListIN17QInputMethodEvent9AttributeEE14const_iteratorC1EPNS2_4NodeE@Base 2.8.4
 _ZN5QListIN17QInputMethodEvent9AttributeEE14const_iteratorC2EPNS2_4NodeE@Base 2.8.4
 _ZN5QListIN17QInputMethodEvent9AttributeEE14const_iteratorppEv@Base 2.8.4
 _ZN5QListIN17QInputMethodEvent9AttributeEE4Node1tEv@Base 2.8.4
 _ZN5QListIN17QInputMethodEvent9AttributeEE7deallocEPN9QListData4DataE@Base 2.8.4
 _ZN5QListIN17QInputMethodEvent9AttributeEE9node_copyEPNS2_4NodeES4_S4_@Base 2.8.4
 _ZN5QListIN17QInputMethodEvent9AttributeEEC1ERKS2_@Base 2.8.4
 _ZN5QListIN17QInputMethodEvent9AttributeEEC2ERKS2_@Base 2.8.4
 _ZN5QListIN17QInputMethodEvent9AttributeEED1Ev@Base 2.8.4
 _ZN5QListIN17QInputMethodEvent9AttributeEED2Ev@Base 2.8.4
 _ZN5QListIN9QsciMacro5MacroEE13detach_helperEi@Base 2.8.4
 _ZN5QListIN9QsciMacro5MacroEE13detach_helperEv@Base 2.8.4
 _ZN5QListIN9QsciMacro5MacroEE13node_destructEPNS2_4NodeES4_@Base 2.8.4
 _ZN5QListIN9QsciMacro5MacroEE14const_iteratorC1EPNS2_4NodeE@Base 2.8.4
 _ZN5QListIN9QsciMacro5MacroEE14const_iteratorC1ERKNS2_8iteratorE@Base 2.8.4
 _ZN5QListIN9QsciMacro5MacroEE14const_iteratorC1Ev@Base 2.8.4
 _ZN5QListIN9QsciMacro5MacroEE14const_iteratorC2EPNS2_4NodeE@Base 2.8.4
 _ZN5QListIN9QsciMacro5MacroEE14const_iteratorC2ERKNS2_8iteratorE@Base 2.8.4
 _ZN5QListIN9QsciMacro5MacroEE14const_iteratorC2Ev@Base 2.8.4
 _ZN5QListIN9QsciMacro5MacroEE14const_iteratorppEv@Base 2.8.4
 _ZN5QListIN9QsciMacro5MacroEE14node_constructEPNS2_4NodeERKS1_@Base 2.8.4
 _ZN5QListIN9QsciMacro5MacroEE18detach_helper_growEii@Base 2.8.4
 _ZN5QListIN9QsciMacro5MacroEE3endEv@Base 2.8.4
 _ZN5QListIN9QsciMacro5MacroEE4Node1tEv@Base 2.8.4
 _ZN5QListIN9QsciMacro5MacroEE4lastEv@Base 2.8.4
 _ZN5QListIN9QsciMacro5MacroEE4swapERS2_@Base 2.8.4
 _ZN5QListIN9QsciMacro5MacroEE5beginEv@Base 2.8.4
 _ZN5QListIN9QsciMacro5MacroEE5clearEv@Base 2.8.4
 _ZN5QListIN9QsciMacro5MacroEE6appendERKS1_@Base 2.8.4
 _ZN5QListIN9QsciMacro5MacroEE6detachEv@Base 2.8.4
 _ZN5QListIN9QsciMacro5MacroEE7deallocEPN9QListData4DataE@Base 2.8.4
 _ZN5QListIN9QsciMacro5MacroEE8iteratorC1EPNS2_4NodeE@Base 2.8.4
 _ZN5QListIN9QsciMacro5MacroEE8iteratorC2EPNS2_4NodeE@Base 2.8.4
 _ZN5QListIN9QsciMacro5MacroEE8iteratormmEv@Base 2.8.4
 _ZN5QListIN9QsciMacro5MacroEE9node_copyEPNS2_4NodeES4_S4_@Base 2.8.4
 _ZN5QListIN9QsciMacro5MacroEEC1EOS2_@Base 2.9.2+dfsg
 _ZN5QListIN9QsciMacro5MacroEEC1Ev@Base 2.8.4
 _ZN5QListIN9QsciMacro5MacroEEC2EOS2_@Base 2.9.2+dfsg
 _ZN5QListIN9QsciMacro5MacroEEC2Ev@Base 2.8.4
 _ZN5QListIN9QsciMacro5MacroEED1Ev@Base 2.8.4
 _ZN5QListIN9QsciMacro5MacroEED2Ev@Base 2.8.4
 _ZN5QListIN9QsciMacro5MacroEEaSEOS2_@Base 2.9.2+dfsg
 _ZN5QListIP11QsciCommandE13node_destructEPNS2_4NodeE@Base 2.8.4
 _ZN5QListIP11QsciCommandE13node_destructEPNS2_4NodeES4_@Base 2.8.4
 _ZN5QListIP11QsciCommandE14node_constructEPNS2_4NodeERKS1_@Base 2.8.4
 _ZN5QListIP11QsciCommandE18detach_helper_growEii@Base 2.8.4
 _ZN5QListIP11QsciCommandE4Node1tEv@Base 2.8.4
 _ZN5QListIP11QsciCommandE6appendERKS1_@Base 2.8.4
 _ZN5QListIP11QsciCommandE7deallocEPN9QListData4DataE@Base 2.8.4
 _ZN5QListIP11QsciCommandE9node_copyEPNS2_4NodeES4_S4_@Base 2.8.4
 _ZN5QListIP11QsciCommandEC1Ev@Base 2.8.4
 _ZN5QListIP11QsciCommandEC2Ev@Base 2.8.4
 _ZN5QListIP11QsciCommandED1Ev@Base 2.8.4
 _ZN5QListIP11QsciCommandED2Ev@Base 2.8.4
 _ZN5QListIP15QListWidgetItemE13detach_helperEi@Base 2.8.4
 _ZN5QListIP15QListWidgetItemE13detach_helperEv@Base 2.8.4
 _ZN5QListIP15QListWidgetItemE13node_destructEPNS2_4NodeES4_@Base 2.8.4
 _ZN5QListIP15QListWidgetItemE4Node1tEv@Base 2.8.4
 _ZN5QListIP15QListWidgetItemE6detachEv@Base 2.8.4
 _ZN5QListIP15QListWidgetItemE7deallocEPN9QListData4DataE@Base 2.8.4
 _ZN5QListIP15QListWidgetItemE9node_copyEPNS2_4NodeES4_S4_@Base 2.8.4
 _ZN5QListIP15QListWidgetItemED1Ev@Base 2.8.4
 _ZN5QListIP15QListWidgetItemED2Ev@Base 2.8.4
 _ZN5QListIP15QListWidgetItemEixEi@Base 2.8.4
 _ZN5QListIP17QsciScintillaBaseE13detach_helperEi@Base 2.8.4
 _ZN5QListIP17QsciScintillaBaseE13detach_helperEv@Base 2.8.4
 _ZN5QListIP17QsciScintillaBaseE13node_destructEPNS2_4NodeE@Base 2.8.4
 _ZN5QListIP17QsciScintillaBaseE13node_destructEPNS2_4NodeES4_@Base 2.8.4
 _ZN5QListIP17QsciScintillaBaseE14node_constructEPNS2_4NodeERKS1_@Base 2.8.4
 _ZN5QListIP17QsciScintillaBaseE18detach_helper_growEii@Base 2.8.4
 _ZN5QListIP17QsciScintillaBaseE4Node1tEv@Base 2.8.4
 _ZN5QListIP17QsciScintillaBaseE5beginEv@Base 2.8.4
 _ZN5QListIP17QsciScintillaBaseE5firstEv@Base 2.8.4
 _ZN5QListIP17QsciScintillaBaseE6appendERKS1_@Base 2.8.4
 _ZN5QListIP17QsciScintillaBaseE6detachEv@Base 2.8.4
 _ZN5QListIP17QsciScintillaBaseE7deallocEPN9QListData4DataE@Base 2.8.4
 _ZN5QListIP17QsciScintillaBaseE8iteratorC1EPNS2_4NodeE@Base 2.8.4
 _ZN5QListIP17QsciScintillaBaseE8iteratorC2EPNS2_4NodeE@Base 2.8.4
 _ZN5QListIP17QsciScintillaBaseE8removeAtEi@Base 2.8.4
 _ZN5QListIP17QsciScintillaBaseE9node_copyEPNS2_4NodeES4_S4_@Base 2.8.4
 _ZN5QListIP17QsciScintillaBaseEC1Ev@Base 2.8.4
 _ZN5QListIP17QsciScintillaBaseEC2Ev@Base 2.8.4
 _ZN5QListIP17QsciScintillaBaseED1Ev@Base 2.8.4
 _ZN5QListIP17QsciScintillaBaseED2Ev@Base 2.8.4
 _ZN5QListIiE13detach_helperEi@Base 2.8.4
 _ZN5QListIiE13detach_helperEv@Base 2.8.4
 _ZN5QListIiE13node_destructEPNS0_4NodeE@Base 2.8.4
 _ZN5QListIiE13node_destructEPNS0_4NodeES2_@Base 2.8.4
 _ZN5QListIiE14node_constructEPNS0_4NodeERKi@Base 2.8.4
 _ZN5QListIiE18detach_helper_growEii@Base 2.8.4
 _ZN5QListIiE4Node1tEv@Base 2.8.4
 _ZN5QListIiE4swapERS0_@Base 2.8.4
 _ZN5QListIiE5beginEv@Base 2.8.4
 _ZN5QListIiE5clearEv@Base 2.8.4
 _ZN5QListIiE5firstEv@Base 2.8.4
 _ZN5QListIiE6appendERKi@Base 2.8.4
 _ZN5QListIiE6detachEv@Base 2.8.4
 _ZN5QListIiE7deallocEPN9QListData4DataE@Base 2.8.4
 _ZN5QListIiE8iteratorC1EPNS0_4NodeE@Base 2.8.4
 _ZN5QListIiE8iteratorC2EPNS0_4NodeE@Base 2.8.4
 _ZN5QListIiE9node_copyEPNS0_4NodeES2_S2_@Base 2.8.4
 _ZN5QListIiEC1EOS0_@Base 2.9.2+dfsg
 _ZN5QListIiEC1Ev@Base 2.8.4
 _ZN5QListIiEC2EOS0_@Base 2.9.2+dfsg
 _ZN5QListIiEC2Ev@Base 2.8.4
 _ZN5QListIiED1Ev@Base 2.8.4
 _ZN5QListIiED2Ev@Base 2.8.4
 _ZN5QListIiEaSEOS0_@Base 2.9.2+dfsg
 _ZN5QListIiEixEi@Base 2.8.4
 _ZN5QListIiElsERKi@Base 2.8.4
 _ZN5QPairIjjEC1ERKjS2_@Base 2.8.4
 _ZN5QRect4setXEi@Base 2.8.4
 _ZN5QRect4setYEi@Base 2.8.4
 _ZN5QRect8setWidthEi@Base 2.8.4
 _ZN5QRect9setHeightEi@Base 2.8.4
 _ZN5QRectC1Eiiii@Base 2.8.4
 _ZN5QRectC2Eiiii@Base 2.8.4
 _ZN5QSizeC1Eii@Base 2.8.4
 _ZN5QSizeC2Eii@Base 2.8.4
 _ZN5RangeC1Ei@Base 2.8.4
 _ZN5RangeC1Eii@Base 2.8.4
 _ZN5RangeC2Ei@Base 2.8.4
 _ZN5RangeC2Eii@Base 2.8.4
 _ZN5Style4CopyER4FontRK16FontMeasurements@Base 2.8.4
 _ZN5Style5ClearE13ColourDesiredS0_iPKciibbbNS_11ecaseForcedEbbb@Base 2.8.4
 _ZN5Style7ClearToERKS_@Base 2.8.4
 _ZN5StyleC1ERKS_@Base 2.8.4
 _ZN5StyleC1Ev@Base 2.8.4
 _ZN5StyleC2ERKS_@Base 2.8.4
 _ZN5StyleC2Ev@Base 2.8.4
 _ZN5StyleD1Ev@Base 2.8.4
 _ZN5StyleD2Ev@Base 2.8.4
 _ZN5StyleaSERKS_@Base 2.8.4
 _ZN5TimerC1Ev@Base 2.8.4
 _ZN5TimerC2Ev@Base 2.8.4
 _ZN6Action4GrabEPS_@Base 2.8.4
 _ZN6Action6CreateE10actionTypeiPKcib@Base 2.8.4
 _ZN6Action7DestroyEv@Base 2.8.4
 _ZN6ActionC1Ev@Base 2.8.4
 _ZN6ActionC2Ev@Base 2.8.4
 _ZN6ActionD1Ev@Base 2.8.4
 _ZN6ActionD2Ev@Base 2.8.4
 _ZN6Editor10AddCharUTFEPKcjb@Base 2.9
 _ZN6Editor10ButtonDownE5Pointjbbb@Base 2.8.4
 _ZN6Editor10ButtonMoveE5Point@Base 2.8.4
 _ZN6Editor10ChangeSizeEv@Base 2.8.4
 _ZN6Editor10ExpandLineEi@Base 2.8.4
 _ZN6Editor10FoldExpandEiii@Base 2.8.4
 _ZN6Editor10KeyCommandEj@Base 2.8.4
 _ZN6Editor10KeyDefaultEii@Base 2.8.4
 _ZN6Editor10LinesSplitEi@Base 2.8.4
 _ZN6Editor10MouseLeaveEv@Base 2.8.4
 _ZN6Editor10NotifyCharEi@Base 2.8.4
 _ZN6Editor10NotifyZoomEv@Base 2.8.4
 _ZN6Editor10RedrawRectE10PRectangle@Base 2.8.4
 _ZN6Editor10ScrollTextEi@Base 2.8.4
 _ZN6Editor10SearchTextEjml@Base 2.8.4
 _ZN6Editor10SetTickingEb@Base 2.9
 _ZN6Editor10SetTopLineEi@Base 2.8.4
 _ZN6Editor11BytesResultElPKhj@Base 2.9
 _ZN6Editor11CancelModesEv@Base 2.8.4
 _ZN6Editor11DelCharBackEb@Base 2.8.4
 _ZN6Editor11FoldChangedEiii@Base 2.8.4
 _ZN6Editor11FormatRangeEbP17Sci_RangeToFormat@Base 2.8.4
 _ZN6Editor11InsertPasteEPKci@Base 2.9
 _ZN6Editor11InsertSpaceEij@Base 2.8.4
 _ZN6Editor11NotifyFocusEb@Base 2.8.4
 _ZN6Editor11ScrollRangeE14SelectionRange@Base 2.8.4
 _ZN6Editor11SetXYScrollENS_16XYScrollPositionE@Base 2.8.4
 _ZN6Editor11WrapOneLineEP7Surfacei@Base 2.8.4
 _ZN6Editor12AbandonPaintEv@Base 2.8.4
 _ZN6Editor12DropGraphicsEb@Base 2.8.4
 _ZN6Editor12NeedWrappingEii@Base 2.8.4
 _ZN6Editor12ParaUpOrDownEiN9Selection8selTypesE@Base 2.8.4
 _ZN6Editor12SearchAnchorEv@Base 2.8.4
 _ZN6Editor12SelectionEndEv@Base 2.8.4
 _ZN6Editor12SetSelectionE17SelectionPosition@Base 2.8.4
 _ZN6Editor12SetSelectionE17SelectionPositionS0_@Base 2.8.4
 _ZN6Editor12SetSelectionEi@Base 2.8.4
 _ZN6Editor12SetSelectionEii@Base 2.8.4
 _ZN6Editor12StringResultElPKc@Base 2.8.4
 _ZN6Editor13AddStyledTextEPci@Base 2.8.4
 _ZN6Editor13CaseMapStringERKNSt7__cxx1112basic_stringIcSt11char_traitsIcESaIcEEEi@Base 2.9
 _ZN6Editor13CopyAllowLineEv@Base 2.8.4
 _ZN6Editor13DisplayCursorEN6Window6CursorE@Base 2.8.4
 _ZN6Editor13DragThresholdE5PointS0_@Base 2.8.4
 _ZN6Editor13LineSelectionEiib@Base 2.8.4
 _ZN6Editor13LineTransposeEv@Base 2.8.4
 _ZN6Editor13ModifierFlagsEbbbb@Base 2.9
 _ZN6Editor13NotifyDeletedEP8DocumentPv@Base 2.8.4
 _ZN6Editor13NotifyPaintedEv@Base 2.8.4
 _ZN6Editor13PaintContainsE10PRectangle@Base 2.8.4
 _ZN6Editor13QueueIdleWorkEN10WorkNeeded9workItemsEi@Base 2.8.4
 _ZN6Editor13ReplaceTargetEbPKci@Base 2.8.4
 _ZN6Editor13SetDocPointerEP8Document@Base 2.8.4
 _ZN6Editor13SetFocusStateEb@Base 2.8.4
 _ZN6Editor13SetScrollBarsEv@Base 2.8.4
 _ZN6Editor13WordSelectionEi@Base 2.8.4
 _ZN6Editor13XFromPositionE17SelectionPosition@Base 2.8.4
 _ZN6Editor13XFromPositionEi@Base 2.8.4
 _ZN6Editor14CaretSetPeriodEi@Base 2.9
 _ZN6Editor14ClearSelectionEb@Base 2.8.4
 _ZN6Editor14CursorUpOrDownEiN9Selection8selTypesE@Base 2.8.4
 _ZN6Editor14MovePositionToE17SelectionPositionN9Selection8selTypesEb@Base 2.8.4
 _ZN6Editor14MovePositionToEiN9Selection8selTypesEb@Base 2.8.4
 _ZN6Editor14NotifyDwellingE5Pointb@Base 2.8.4
 _ZN6Editor14NotifyModifiedEP8Document15DocModificationPv@Base 2.8.4
 _ZN6Editor14NotifyUpdateUIEv@Base 2.8.4
 _ZN6Editor14PaintSelMarginEP7SurfaceR10PRectangle@Base 2.8.4
 _ZN6Editor14PointIsHotspotE5Point@Base 2.8.4
 _ZN6Editor14PointMainCaretEv@Base 2.8.4
 _ZN6Editor14RefreshPixMapsEP7Surface@Base 2.8.4
 _ZN6Editor14SearchInTargetEPKci@Base 2.8.4
 _ZN6Editor14SelectionStartEv@Base 2.8.4
 _ZN6Editor14SetLastXChosenEv@Base 2.8.4
 _ZN6Editor15DiscardOverdrawEv@Base 2.9
 _ZN6Editor15FineTickerStartENS_10TickReasonEii@Base 2.9
 _ZN6Editor15InvalidateCaretEv@Base 2.8.4
 _ZN6Editor15InvalidateRangeEii@Base 2.8.4
 _ZN6Editor15NotifyNeedShownEii@Base 2.8.4
 _ZN6Editor15NotifySavePointEP8DocumentPvb@Base 2.8.4
 _ZN6Editor15NotifySavePointEb@Base 2.8.4
 _ZN6Editor15RedrawSelMarginEib@Base 2.8.4
 _ZN6Editor15SetDragPositionE17SelectionPosition@Base 2.8.4
 _ZN6Editor15SetFoldExpandedEib@Base 2.8.4
 _ZN6Editor15SetHotSpotRangeEP5Point@Base 2.8.4
 _ZN6Editor15StyleGetMessageEjml@Base 2.8.4
 _ZN6Editor15StyleSetMessageEjml@Base 2.8.4
 _ZN6Editor16AllocateGraphicsEv@Base 2.8.4
 _ZN6Editor16FillVirtualSpaceEv@Base 2.9
 _ZN6Editor16FilterSelectionsEv@Base 2.8.4
 _ZN6Editor16FineTickerCancelENS_10TickReasonE@Base 2.9
 _ZN6Editor16InsertPasteShapeEPKciNS_10PasteShapeE@Base 2.9
 _ZN6Editor16PasteRectangularE17SelectionPositionPKci@Base 2.8.4
 _ZN6Editor16PointInSelectionE5Point@Base 2.8.4
 _ZN6Editor16RefreshStyleDataEv@Base 2.8.4
 _ZN6Editor16XYScrollPositionC1Eii@Base 2.8.4
 _ZN6Editor16XYScrollPositionC2Eii@Base 2.8.4
 _ZN6Editor17EnsureLineVisibleEib@Base 2.8.4
 _ZN6Editor17FineTickerRunningENS_10TickReasonE@Base 2.9
 _ZN6Editor17MoveSelectedLinesEi@Base 2.8.4
 _ZN6Editor17NotifyDoubleClickE5Pointbbb@Base 2.8.4
 _ZN6Editor17NotifyDoubleClickE5Pointi@Base 2.9
 _ZN6Editor17NotifyMacroRecordEjml@Base 2.8.4
 _ZN6Editor17NotifyMarginClickE5Pointbbb@Base 2.8.4
 _ZN6Editor17NotifyMarginClickE5Pointi@Base 2.9
 _ZN6Editor17NotifyStyleNeededEP8DocumentPvi@Base 2.8.4
 _ZN6Editor17PositionFromLineXEii@Base 2.8.4
 _ZN6Editor17SetBraceHighlightEiii@Base 2.8.4
 _ZN6Editor17SetEmptySelectionE17SelectionPosition@Base 2.8.4
 _ZN6Editor17SetEmptySelectionEi@Base 2.8.4
 _ZN6Editor17StringFromEOLModeEi@Base 2.8.4
 _ZN6Editor17UpdateSystemCaretEv@Base 2.8.4
 _ZN6Editor18ClearDocumentStyleEv@Base 2.8.4
 _ZN6Editor18CopySelectionRangeEP13SelectionTextb@Base 2.8.4
 _ZN6Editor18EnsureCaretVisibleEbbb@Base 2.8.4
 _ZN6Editor18HorizontalScrollToEi@Base 2.8.4
 _ZN6Editor18NotifyLexerChangedEP8DocumentPv@Base 2.8.4
 _ZN6Editor18RectangleFromRangeE5Rangei@Base 2.9
 _ZN6Editor18SPositionFromLineXEii@Base 2.8.4
 _ZN6Editor18SetRepresentationsEv@Base 2.8.4
 _ZN6Editor19DisplayFromPositionEi@Base 2.8.4
 _ZN6Editor19FineTickerAvailableEv@Base 2.9
 _ZN6Editor19InvalidateSelectionE14SelectionRangeb@Base 2.8.4
 _ZN6Editor19InvalidateStyleDataEv@Base 2.8.4
 _ZN6Editor19MoveCaretInsideViewEb@Base 2.8.4
 _ZN6Editor19MoveSelectedLinesUpEv@Base 2.8.4
 _ZN6Editor19NotifyErrorOccurredEP8DocumentPvi@Base 2.8.4
 _ZN6Editor19NotifyModifyAttemptEP8DocumentPv@Base 2.8.4
 _ZN6Editor19NotifyModifyAttemptEv@Base 2.8.4
 _ZN6Editor19NotifyStyleToNeededEi@Base 2.8.4
 _ZN6Editor19PaintContainsMarginEv@Base 2.8.4
 _ZN6Editor19PositionInSelectionEi@Base 2.8.4
 _ZN6Editor19SetRectangularRangeEv@Base 2.8.4
 _ZN6Editor19StartEndDisplayLineEib@Base 2.8.4
 _ZN6Editor19TrimAndSetSelectionEii@Base 2.8.4
 _ZN6Editor19VerticalCentreCaretEv@Base 2.8.4
 _ZN6Editor20ContainerNeedsUpdateEi@Base 2.8.4
 _ZN6Editor20CopyRangeToClipboardEii@Base 2.8.4
 _ZN6Editor20KeyDownWithModifiersEiiPb@Base 2.8.4
 _ZN6Editor20LocationFromPositionE17SelectionPosition@Base 2.8.4
 _ZN6Editor20LocationFromPositionEi@Base 2.8.4
 _ZN6Editor20NotifyHotSpotClickedEibbb@Base 2.8.4
 _ZN6Editor20NotifyHotSpotClickedEii@Base 2.9
 _ZN6Editor20NotifyIndicatorClickEbibbb@Base 2.8.4
 _ZN6Editor20NotifyIndicatorClickEbii@Base 2.9
 _ZN6Editor20PositionFromLocationE5Pointbb@Base 2.8.4
 _ZN6Editor20SetAnnotationHeightsEii@Base 2.8.4
 _ZN6Editor20SetAnnotationVisibleEi@Base 2.8.4
 _ZN6Editor20ThinRectangularRangeEv@Base 2.8.4
 _ZN6Editor21CaseFolderForEncodingEv@Base 2.8.4
 _ZN6Editor21ChangeCaseOfSelectionEi@Base 2.8.4
 _ZN6Editor21InvalidateStyleRedrawEv@Base 2.8.4
 _ZN6Editor21MovePositionSoVisibleE17SelectionPositioni@Base 2.8.4
 _ZN6Editor21MovePositionSoVisibleEii@Base 2.8.4
 _ZN6Editor21MoveSelectedLinesDownEv@Base 2.8.4
 _ZN6Editor21ReconfigureScrollBarsEv@Base 2.8.4
 _ZN6Editor21SPositionFromLocationE5Pointbbb@Base 2.8.4
 _ZN6Editor21StyleToPositionInViewEi@Base 2.8.4
 _ZN6Editor21XYScrollToMakeVisibleERK14SelectionRangeNS_15XYScrollOptionsE@Base 2.9
 _ZN6Editor22SetHoverIndicatorPointE5Point@Base 2.9
 _ZN6Editor23ButtonDownWithModifiersE5Pointji@Base 2.9
 _ZN6Editor23ButtonMoveWithModifiersE5Pointi@Base 2.8.4
 _ZN6Editor24CheckModificationForWrapE15DocModification@Base 2.8.4
 _ZN6Editor25GetClientDrawingRectangleEv@Base 2.9
 _ZN6Editor25NotifyHotSpotReleaseClickEibbb@Base 2.8.4
 _ZN6Editor25NotifyHotSpotReleaseClickEii@Base 2.9
 _ZN6Editor25SetHoverIndicatorPositionEi@Base 2.9
 _ZN6Editor26CheckForChangeOutsidePaintE5Range@Base 2.8.4
 _ZN6Editor26NotifyHotSpotDoubleClickedEibbb@Base 2.8.4
 _ZN6Editor26NotifyHotSpotDoubleClickedEii@Base 2.9
 _ZN6Editor26SelectionContainsProtectedEv@Base 2.8.4
 _ZN6Editor26ShowCaretAtCurrentPositionEv@Base 2.8.4
 _ZN6Editor3CutEv@Base 2.8.4
 _ZN6Editor4IdleEv@Base 2.8.4
 _ZN6Editor4RedoEv@Base 2.8.4
 _ZN6Editor4TickEv@Base 2.8.4
 _ZN6Editor4UndoEv@Base 2.8.4
 _ZN6Editor5ClearEv@Base 2.8.4
 _ZN6Editor5PaintEP7Surface10PRectangle@Base 2.8.4
 _ZN6Editor6DropAtE17SelectionPositionPKcbb@Base 2.8.4
 _ZN6Editor6DropAtE17SelectionPositionPKcjbb@Base 2.9
 _ZN6Editor6GetTagEPci@Base 2.8.4
 _ZN6Editor6IndentEb@Base 2.8.4
 _ZN6Editor6RedrawEv@Base 2.8.4
 _ZN6Editor7AddCharEc@Base 2.8.4
 _ZN6Editor7FoldAllEi@Base 2.8.4
 _ZN6Editor7KeyDownEibbbPb@Base 2.8.4
 _ZN6Editor7NewLineEv@Base 2.8.4
 _ZN6Editor7SetIdleEb@Base 2.8.4
 _ZN6Editor7TickForENS_10TickReasonE@Base 2.9
 _ZN6Editor7WndProcEjml@Base 2.8.4
 _ZN6Editor8ButtonUpE5Pointjb@Base 2.8.4
 _ZN6Editor8CanPasteEv@Base 2.8.4
 _ZN6Editor8ClearAllEv@Base 2.8.4
 _ZN6Editor8CopyTextEiPKc@Base 2.8.4
 _ZN6Editor8DwellEndEb@Base 2.8.4
 _ZN6Editor8FinaliseEv@Base 2.8.4
 _ZN6Editor8FindTextEml@Base 2.8.4
 _ZN6Editor8FoldLineEii@Base 2.8.4
 _ZN6Editor8GoToLineEi@Base 2.8.4
 _ZN6Editor8IdleWorkEv@Base 2.8.4
 _ZN6Editor8PageMoveEiN9Selection8selTypesEb@Base 2.8.4
 _ZN6Editor8ScrollToEib@Base 2.8.4
 _ZN6Editor9DropCaretEv@Base 2.8.4
 _ZN6Editor9DuplicateEb@Base 2.8.4
 _ZN6Editor9GetCtrlIDEv@Base 2.8.4
 _ZN6Editor9LinesJoinEv@Base 2.8.4
 _ZN6Editor9NeedShownEii@Base 2.8.4
 _ZN6Editor9SelectAllEv@Base 2.8.4
 _ZN6Editor9SetCtrlIDEi@Base 2.8.4
 _ZN6Editor9StartDragEv@Base 2.8.4
 _ZN6Editor9TextWidthEiPKc@Base 2.8.4
 _ZN6Editor9WrapCountEi@Base 2.8.4
 _ZN6Editor9WrapLinesENS_9wrapScopeE@Base 2.8.4
 _ZN6EditorC1Ev@Base 2.8.4
 _ZN6EditorC2Ev@Base 2.8.4
 _ZN6EditorD0Ev@Base 2.8.4
 _ZN6EditorD1Ev@Base 2.8.4
 _ZN6EditorD2Ev@Base 2.8.4
 _ZN6ILexerC1Ev@Base 2.8.4
 _ZN6ILexerC2Ev@Base 2.8.4
 _ZN6KeyMap10MapDefaultE@Base 2.8.4
 _ZN6KeyMap12AssignCmdKeyEiij@Base 2.8.4
 _ZN6KeyMap5ClearEv@Base 2.8.4
 _ZN6KeyMapC1Ev@Base 2.8.4
 _ZN6KeyMapC2Ev@Base 2.8.4
 _ZN6KeyMapD1Ev@Base 2.8.4
 _ZN6KeyMapD2Ev@Base 2.8.4
 _ZN6LexerD11PrivateCallEiPv@Base 2.8.4
 _ZN6LexerD11PropertySetEPKcS1_@Base 2.8.4
 _ZN6LexerD11WordListSetEiPKc@Base 2.8.4
 _ZN6LexerD12PropertyTypeEPKc@Base 2.8.4
 _ZN6LexerD13LexerFactoryDEv@Base 2.8.4
 _ZN6LexerD13PropertyNamesEv@Base 2.8.4
 _ZN6LexerD16DescribePropertyEPKc@Base 2.8.4
 _ZN6LexerD20DescribeWordListSetsEv@Base 2.8.4
 _ZN6LexerD3LexEjiiP9IDocument@Base 2.8.4
 _ZN6LexerD4FoldEjiiP9IDocument@Base 2.8.4
 _ZN6LexerD7ReleaseEv@Base 2.8.4
 _ZN6LexerDC1Eb@Base 2.8.4
 _ZN6LexerDC2Eb@Base 2.8.4
 _ZN6LexerDD0Ev@Base 2.8.4
 _ZN6LexerDD1Ev@Base 2.8.4
 _ZN6LexerDD2Ev@Base 2.8.4
 _ZN6QColorC1ERKS_@Base 2.8.4
 _ZN6QColorC1Eiiii@Base 2.8.4
 _ZN6QColorC1Ev@Base 2.8.4
 _ZN6QColorC2ERKS_@Base 2.8.4
 _ZN6QColorC2Eiiii@Base 2.8.4
 _ZN6QColorC2Ev@Base 2.8.4
 _ZN6QColoraSEOS_@Base 2.9.2+dfsg
 _ZN6QEvent6acceptEv@Base 2.8.4
 _ZN6QEvent6ignoreEv@Base 2.8.4
 _ZN6QFlagsIN10QArrayData16AllocationOptionEEC1ES1_@Base 2.8.4
 _ZN6QFlagsIN10QArrayData16AllocationOptionEEoRES1_@Base 2.8.4
 _ZN6QFlagsIN2Qt10DropActionEEC1E5QFlag@Base 2.8.4
 _ZN6QFlagsIN2Qt10DropActionEEC1ES1_@Base 2.8.4
 _ZN6QFlagsIN2Qt10WindowTypeEEC1E5QFlag@Base 2.8.4
 _ZN6QFlagsIN2Qt10WindowTypeEEC1ES1_@Base 2.8.4
 _ZN6QFlagsIN2Qt15InputMethodHintEEC1E5QFlag@Base 2.8.4
 _ZN6QFlagsIN2Qt15InputMethodHintEEC1ES1_@Base 2.8.4
 _ZN6QFlagsIN2Qt16KeyboardModifierEEC1E5QFlag@Base 2.8.4
 _ZN6QFlagsIN2Qt19ImageConversionFlagEEC1ES1_@Base 2.8.4
 _ZN6QFlagsIN2Qt9MatchFlagEEC1E5QFlag@Base 2.8.4
 _ZN6QFlagsIN2Qt9MatchFlagEEC1ES1_@Base 2.8.4
 _ZN6QFlagsIN4QDir6FilterEEC1ES1_@Base 2.8.4
 _ZN6QFlagsIN4QDir8SortFlagEEC1ES1_@Base 2.8.4
 _ZN6QFlagsIN9QIODevice12OpenModeFlagEEC1E5QFlag@Base 2.8.4
 _ZN6QFlagsIN9QIODevice12OpenModeFlagEEC1ES1_@Base 2.8.4
 _ZN6QPointC1Eii@Base 2.8.4
 _ZN6QPointC1Ev@Base 2.8.4
 _ZN6QPointC2Eii@Base 2.8.4
 _ZN6QPointC2Ev@Base 2.8.4
 _ZN6QRectFC1Edddd@Base 2.8.4
 _ZN6QRectFC2Edddd@Base 2.8.4
 _ZN6QStackIlE3popEv@Base 2.8.4
 _ZN6QStackIlE4pushERKl@Base 2.8.4
 _ZN6QStackIlEC1Ev@Base 2.8.4
 _ZN6QStackIlEC2Ev@Base 2.8.4
 _ZN6QStackIlED1Ev@Base 2.8.4
 _ZN6QStackIlED2Ev@Base 2.8.4
 _ZN6QTimer13setSingleShotEb@Base 2.8.4
 _ZN6SorterC1EP12AutoCompletePKc@Base 2.8.4
 _ZN6SorterC1ERKS_@Base 2.8.4
 _ZN6SorterC2EP12AutoCompletePKc@Base 2.8.4
 _ZN6SorterC2ERKS_@Base 2.8.4
 _ZN6SorterD1Ev@Base 2.8.4
 _ZN6SorterD2Ev@Base 2.8.4
 _ZN6SorterclEii@Base 2.8.4
 _ZN6Window11GetPositionEv@Base 2.8.4
 _ZN6Window11SetPositionE10PRectangle@Base 2.8.4
 _ZN6Window13InvalidateAllEv@Base 2.8.4
 _ZN6Window14GetMonitorRectE5Point@Base 2.8.4
 _ZN6Window17GetClientPositionEv@Base 2.8.4
 _ZN6Window19InvalidateRectangleE10PRectangle@Base 2.8.4
 _ZN6Window19SetPositionRelativeE10PRectangleS_@Base 2.8.4
 _ZN6Window4ShowEb@Base 2.8.4
 _ZN6Window7DestroyEv@Base 2.8.4
 _ZN6Window7SetFontER4Font@Base 2.8.4
 _ZN6Window8HasFocusEv@Base 2.8.4
 _ZN6Window8SetTitleEPKc@Base 2.8.4
 _ZN6Window9SetCursorENS_6CursorE@Base 2.8.4
 _ZN6WindowC1ERKS_@Base 2.8.4
 _ZN6WindowC1Ev@Base 2.8.4
 _ZN6WindowC2ERKS_@Base 2.8.4
 _ZN6WindowC2Ev@Base 2.8.4
 _ZN6WindowD0Ev@Base 2.8.4
 _ZN6WindowD1Ev@Base 2.8.4
 _ZN6WindowD2Ev@Base 2.8.4
 _ZN6WindowaSEPv@Base 2.8.4
 _ZN6WindowaSERKS_@Base 2.8.4
 _ZN7CallTip10MouseClickE5Point@Base 2.8.4
 _ZN7CallTip10SetTabSizeEi@Base 2.8.4
 _ZN7CallTip11SetForeBackERK13ColourDesiredS2_@Base 2.8.4
 _ZN7CallTip11SetPositionEb@Base 2.8.4
 _ZN7CallTip12CallTipStartEi5PointiPKcS2_iiiiR6Window@Base 2.8.4
 _ZN7CallTip12SetHighlightEii@Base 2.8.4
 _ZN7CallTip13CallTipCancelEv@Base 2.8.4
 _ZN7CallTip13PaintContentsEP7Surfaceb@Base 2.8.4
 _ZN7CallTip7PaintCTEP7Surface@Base 2.8.4
 _ZN7CallTip9DrawChunkEP7SurfaceRiPKciii10PRectanglebb@Base 2.8.4
 _ZN7CallTipC1Ev@Base 2.8.4
 _ZN7CallTipC2Ev@Base 2.8.4
 _ZN7CallTipD1Ev@Base 2.8.4
 _ZN7CallTipD2Ev@Base 2.8.4
 _ZN7ILoaderC1Ev@Base 2.8.4
 _ZN7ILoaderC2Ev@Base 2.8.4
 _ZN7ListBox8AllocateEv@Base 2.8.4
 _ZN7ListBoxC1Ev@Base 2.8.4
 _ZN7ListBoxC2Ev@Base 2.8.4
 _ZN7ListBoxD0Ev@Base 2.8.4
 _ZN7ListBoxD1Ev@Base 2.8.4
 _ZN7ListBoxD2Ev@Base 2.8.4
 _ZN7PerLineC1Ev@Base 2.8.4
 _ZN7PerLineC2Ev@Base 2.8.4
 _ZN7PerLineD0Ev@Base 2.8.4
 _ZN7PerLineD1Ev@Base 2.8.4
 _ZN7PerLineD2Ev@Base 2.8.4
 _ZN7QPointFC1Edd@Base 2.8.4
 _ZN7QPointFC1Ev@Base 2.8.4
 _ZN7QPointFC2Edd@Base 2.8.4
 _ZN7QPointFC2Ev@Base 2.8.4
 _ZN7QString10fromLatin1EPKci@Base 2.8.4
 _ZN7QString7prependE5QChar@Base 2.8.4
 _ZN7QString8fromUtf8EPKci@Base 2.8.4
 _ZN7QStringC1E13QLatin1String@Base 2.8.4
 _ZN7QStringC1E14QStringDataPtr@Base 2.8.4
 _ZN7QStringC1EOS_@Base 2.9.2+dfsg
 _ZN7QStringC1EPKc@Base 2.8.4
 _ZN7QStringC1ERKS_@Base 2.8.4
 _ZN7QStringC1Ev@Base 2.8.4
 _ZN7QStringC2E13QLatin1String@Base 2.8.4
 _ZN7QStringC2E14QStringDataPtr@Base 2.8.4
 _ZN7QStringC2EOS_@Base 2.9.2+dfsg
 _ZN7QStringC2EPKc@Base 2.8.4
 _ZN7QStringC2ERKS_@Base 2.8.4
 _ZN7QStringC2Ev@Base 2.8.4
 _ZN7QStringD1Ev@Base 2.8.4
 _ZN7QStringD2Ev@Base 2.8.4
 _ZN7QStringaSEOS_@Base 2.9.2+dfsg
 _ZN7QStringaSEPKc@Base 2.8.4
 _ZN7QStringixEi@Base 2.8.4
 _ZN7QStringpLE5QChar@Base 2.8.4
 _ZN7QStringpLERKS_@Base 2.8.4
 _ZN7QStringpLEc@Base 2.8.4
 _ZN7QVectorI7QPointFE11reallocDataEii6QFlagsIN10QArrayData16AllocationOptionEE@Base 2.8.4
 _ZN7QVectorI7QPointFE16defaultConstructEPS0_S2_@Base 2.8.4
 _ZN7QVectorI7QPointFE4dataEv@Base 2.8.4
 _ZN7QVectorI7QPointFE6detachEv@Base 2.8.4
 _ZN7QVectorI7QPointFE8destructEPS0_S2_@Base 2.8.4
 _ZN7QVectorI7QPointFE8freeDataEP15QTypedArrayDataIS0_E@Base 2.8.4
 _ZN7QVectorI7QPointFEC1Ei@Base 2.8.4
 _ZN7QVectorI7QPointFEC2Ei@Base 2.8.4
 _ZN7QVectorI7QPointFED1Ev@Base 2.8.4
 _ZN7QVectorI7QPointFED2Ev@Base 2.8.4
 _ZN7QVectorI7QPointFEixEi@Base 2.8.4
 _ZN7QVectorIlE11reallocDataEii6QFlagsIN10QArrayData16AllocationOptionEE@Base 2.8.4
 _ZN7QVectorIlE16defaultConstructEPlS1_@Base 2.8.4
 _ZN7QVectorIlE4dataEv@Base 2.8.4
 _ZN7QVectorIlE6appendERKl@Base 2.8.4
 _ZN7QVectorIlE6detachEv@Base 2.8.4
 _ZN7QVectorIlE6resizeEi@Base 2.8.4
 _ZN7QVectorIlE8destructEPlS1_@Base 2.8.4
 _ZN7QVectorIlE8freeDataEP15QTypedArrayDataIlE@Base 2.8.4
 _ZN7QVectorIlEC1Ev@Base 2.8.4
 _ZN7QVectorIlEC2Ev@Base 2.8.4
 _ZN7QVectorIlED1Ev@Base 2.8.4
 _ZN7QVectorIlED2Ev@Base 2.8.4
 _ZN7QWidget11setGeometryEiiii@Base 2.8.4
 _ZN7QWidget16setMouseTrackingEb@Base 2.8.4
 _ZN7QWidget6resizeEii@Base 2.8.4
 _ZN7QWidget6updateEiiii@Base 2.8.4
 _ZN7QWidget8setFocusEv@Base 2.8.4
 _ZN7Surface8AllocateEi@Base 2.8.4
 _ZN7SurfaceC1Ev@Base 2.8.4
 _ZN7SurfaceC2Ev@Base 2.8.4
 _ZN7SurfaceD0Ev@Base 2.8.4
 _ZN7SurfaceD1Ev@Base 2.8.4
 _ZN7SurfaceD2Ev@Base 2.8.4
 _ZN8Accessor12IndentAmountEiPiPFbRS_iiE@Base 2.8.4
 _ZN8AccessorC1EP9IDocumentP13PropSetSimple@Base 2.8.4
 _ZN8AccessorC2EP9IDocumentP13PropSetSimple@Base 2.8.4
 _ZN8Document10AddMarkSetEii@Base 2.8.4
 _ZN8Document10AddWatcherEP10DocWatcherPv@Base 2.8.4
 _ZN8Document10BraceMatchEii@Base 2.8.4
 _ZN8Document10DeleteMarkEii@Base 2.8.4
 _ZN8Document10FindColumnEii@Base 2.8.4
 _ZN8Document10InsertLineEi@Base 2.8.4
 _ZN8Document10ModifiedAtEi@Base 2.8.4
 _ZN8Document10RemoveLineEi@Base 2.8.4
 _ZN8Document11ClearLevelsEv@Base 2.8.4
 _ZN8Document11DelCharBackEi@Base 2.8.4
 _ZN8Document11DeleteCharsEii@Base 2.8.4
 _ZN8Document11NextWordEndEii@Base 2.8.4
 _ZN8Document11SetReadOnlyEb@Base 2.8.4
 _ZN8Document11SetStyleForEic@Base 2.8.4
 _ZN8Document12GetLastChildEiii@Base 2.8.4
 _ZN8Document12InsertStringEiPKci@Base 2.8.4
 _ZN8Document12LexerChangedEv@Base 2.8.4
 _ZN8Document12RangePointerEii@Base 2.8.4
 _ZN8Document12SetLineStateEii@Base 2.8.4
 _ZN8Document12SetSavePointEv@Base 2.8.4
 _ZN8Document12StartStylingEic@Base 2.8.4
 _ZN8Document12WordPartLeftEi@Base 2.8.4
 _ZN8Document13AddUndoActionEib@Base 2.8.4
 _ZN8Document13BufferPointerEv@Base 2.8.4
 _ZN8Document13CheckReadOnlyEv@Base 2.8.4
 _ZN8Document13EndUndoActionEv@Base 2.8.4
 _ZN8Document13MarginSetTextEiPKc@Base 2.8.4
 _ZN8Document13NextWordStartEii@Base 2.8.4
 _ZN8Document13RemoveWatcherEP10DocWatcherPv@Base 2.8.4
 _ZN8Document13SetCaseFolderEP10CaseFolder@Base 2.8.4
 _ZN8Document13TentativeUndoEv@Base 2.9
 _ZN8Document13WordPartRightEi@Base 2.8.4
 _ZN8Document14DeleteAllMarksEi@Base 2.8.4
 _ZN8Document14EnsureStyledToEi@Base 2.8.4
 _ZN8Document14LineFromHandleEi@Base 2.8.4
 _ZN8Document14MarginClearAllEv@Base 2.8.4
 _ZN8Document14MarginSetStyleEii@Base 2.8.4
 _ZN8Document14NotifyModifiedE15DocModification@Base 2.8.4
 _ZN8Document14SetCharClassesEPKhN12CharClassify2ccE@Base 2.8.4
 _ZN8Document14SetErrorStatusEi@Base 2.8.4
 _ZN8Document15BeginUndoActionEv@Base 2.8.4
 _ZN8Document15ChangeInsertionEPKci@Base 2.9
 _ZN8Document15ConvertLineEndsEi@Base 2.8.4
 _ZN8Document15GetCharsOfClassEN12CharClassify2ccEPh@Base 2.8.4
 _ZN8Document15GetMaxLineStateEv@Base 2.8.4
 _ZN8Document15MarginSetStylesEiPKh@Base 2.8.4
 _ZN8Document15NotifySavePointEb@Base 2.8.4
 _ZN8Document15SetDBCSCodePageEi@Base 2.8.4
 _ZN8Document16ChangeLexerStateEii@Base 2.8.4
 _ZN8Document16ExtendStyleRangeEiib@Base 2.8.4
 _ZN8Document16ExtendWordSelectEiib@Base 2.8.4
 _ZN8Document17AnnotationSetTextEiPKc@Base 2.8.4
 _ZN8Document17ConvertToDocumentEv@Base 2.8.4
 _ZN8Document17DeleteUndoHistoryEv@Base 2.8.4
 _ZN8Document17SetUndoCollectionEb@Base 2.8.4
 _ZN8Document17TransformLineEndsB5cxx11EPKcji@Base 2.9
 _ZN8Document18AnnotationClearAllEv@Base 2.8.4
 _ZN8Document18AnnotationSetStyleEii@Base 2.8.4
 _ZN8Document18CharacterExtractedC1Ejj@Base 2.9
 _ZN8Document18CharacterExtractedC2Ejj@Base 2.9
 _ZN8Document18GetLineIndentationEi@Base 2.8.4
 _ZN8Document18SetLineIndentationEii@Base 2.8.4
 _ZN8Document19AnnotationSetStylesEiPKh@Base 2.8.4
 _ZN8Document19DecorationFillRangeEiii@Base 2.8.4
 _ZN8Document19IncrementStyleClockEv@Base 2.8.4
 _ZN8Document19NotifyModifyAttemptEv@Base 2.8.4
 _ZN8Document19WatcherWithUserDataC1EP10DocWatcherPv@Base 2.8.4
 _ZN8Document19WatcherWithUserDataC2EP10DocWatcherPv@Base 2.8.4
 _ZN8Document20DeleteMarkFromHandleEi@Base 2.8.4
 _ZN8Document20SubstituteByPositionEPKcPi@Base 2.8.4
 _ZN8Document21SetDefaultCharClassesEb@Base 2.8.4
 _ZN8Document22GetHighlightDelimitersER18HighlightDelimiterii@Base 2.8.4
 _ZN8Document22SetLineEndTypesAllowedEi@Base 2.8.4
 _ZN8Document29DecorationSetCurrentIndicatorEi@Base 2.8.4
 _ZN8Document4InitEv@Base 2.8.4
 _ZN8Document4RedoEv@Base 2.8.4
 _ZN8Document4UndoEv@Base 2.8.4
 _ZN8Document6AddRefEv@Base 2.8.4
 _ZN8Document6IndentEbii@Base 2.8.4
 _ZN8Document7AddDataEPci@Base 2.8.4
 _ZN8Document7AddMarkEii@Base 2.8.4
 _ZN8Document7DelCharEi@Base 2.8.4
 _ZN8Document7GetMarkEi@Base 2.8.4
 _ZN8Document7LenCharEi@Base 2.8.4
 _ZN8Document7ReleaseEv@Base 2.8.4
 _ZN8Document8AllocateEi@Base 2.8.4
 _ZN8Document8FindTextEiiPKcbbbbiPi@Base 2.8.4
 _ZN8Document8SetLevelEii@Base 2.8.4
 _ZN8Document9GetColumnEi@Base 2.8.4
 _ZN8Document9SetStylesEiPKc@Base 2.8.4
 _ZN8DocumentC1Ev@Base 2.8.4
 _ZN8DocumentC2Ev@Base 2.8.4
 _ZN8DocumentD0Ev@Base 2.8.4
 _ZN8DocumentD1Ev@Base 2.8.4
 _ZN8DocumentD2Ev@Base 2.8.4
 _ZN8EditView10AddTabstopEii@Base 2.9
 _ZN8EditView10LayoutLineERK9EditModeliP7SurfaceRK9ViewStyleP10LineLayouti@Base 2.9
 _ZN8EditView11FormatRangeEbP17Sci_RangeToFormatP7SurfaceS3_RK9EditModelRK9ViewStyle@Base 2.9
 _ZN8EditView12DropGraphicsEb@Base 2.9
 _ZN8EditView13ClearTabstopsEi@Base 2.9
 _ZN8EditView13SetPhasesDrawEi@Base 2.9
 _ZN8EditView14DrawAnnotationEP7SurfaceRK9EditModelRK9ViewStylePK10LineLayoutii10PRectanglei9DrawPhase@Base 2.9
 _ZN8EditView14DrawForegroundEP7SurfaceRK9EditModelRK9ViewStylePK10LineLayouti10PRectangle5Rangeiii14ColourOptional@Base 2.9
 _ZN8EditView14RefreshPixMapsEP7SurfacePvRK9ViewStyle@Base 2.9
 _ZN8EditView15DrawIndentGuideEP7Surfaceiii10PRectangleb@Base 2.9
 _ZN8EditView15SetTwoPhaseDrawEb@Base 2.9
 _ZN8EditView16AllocateGraphicsERK9ViewStyle@Base 2.9
 _ZN8EditView16ClearAllTabstopsEv@Base 2.9
 _ZN8EditView18RetrieveLineLayoutEiRK9EditModel@Base 2.9
 _ZN8EditView18SPositionFromLineXEP7SurfaceRK9EditModeliiRK9ViewStyle@Base 2.9
 _ZN8EditView19DisplayFromPositionEP7SurfaceRK9EditModeliRK9ViewStyle@Base 2.9
 _ZN8EditView19LinesAddedOrRemovedEii@Base 2.9
 _ZN8EditView19StartEndDisplayLineEP7SurfaceRK9EditModelibRK9ViewStyle@Base 2.9
 _ZN8EditView20LocationFromPositionEP7SurfaceRK9EditModel17SelectionPositioniRK9ViewStyle@Base 2.9
 _ZN8EditView21SPositionFromLocationEP7SurfaceRK9EditModel5PointbbbRK9ViewStyle@Base 2.9
 _ZN8EditView25DrawIndentGuidesOverEmptyEP7SurfaceRK9EditModelRK9ViewStylePK10LineLayoutii10PRectangleii@Base 2.9
 _ZN8EditView7DrawEOLEP7SurfaceRK9EditModelRK9ViewStylePK10LineLayout10PRectangleiiiid14ColourOptional@Base 2.9
 _ZN8EditView8DrawLineEP7SurfaceRK9EditModelRK9ViewStylePK10LineLayoutiii10PRectanglei9DrawPhase@Base 2.9
 _ZN8EditView9PaintTextEP7SurfaceRK9EditModel10PRectangleS5_RK9ViewStyle@Base 2.9
 _ZN8EditViewC1Ev@Base 2.9
 _ZN8EditViewC2Ev@Base 2.9
 _ZN8EditViewD0Ev@Base 2.9
 _ZN8EditViewD1Ev@Base 2.9
 _ZN8EditViewD2Ev@Base 2.9
 _ZN8LMMinderD1Ev@Base 2.8.4
 _ZN8LMMinderD2Ev@Base 2.8.4
 _ZN8LexState11PrivateCallEiPv@Base 2.8.4
 _ZN8LexState11SetWordListEiPKc@Base 2.8.4
 _ZN8LexState12PropertyTypeEPKc@Base 2.8.4
 _ZN8LexState13FreeSubStylesEv@Base 2.8.4
 _ZN8LexState13PropertyNamesEv@Base 2.8.4
 _ZN8LexState14SetIdentifiersEiPKc@Base 2.8.4
 _ZN8LexState14SetLexerModuleEPK11LexerModule@Base 2.8.4
 _ZN8LexState14SubStylesStartEi@Base 2.8.4
 _ZN8LexState15SubStylesLengthEi@Base 2.8.4
 _ZN8LexState16DescribePropertyEPKc@Base 2.8.4
 _ZN8LexState16GetSubStyleBasesEv@Base 2.8.4
 _ZN8LexState16SetLexerLanguageEPKc@Base 2.8.4
 _ZN8LexState17AllocateSubStylesEii@Base 2.8.4
 _ZN8LexState17StyleFromSubStyleEi@Base 2.8.4
 _ZN8LexState20DescribeWordListSetsEv@Base 2.8.4
 _ZN8LexState21LineEndTypesSupportedEv@Base 2.8.4
 _ZN8LexState21PrimaryStyleFromStyleEi@Base 2.8.4
 _ZN8LexState25DistanceToSecondaryStylesEv@Base 2.8.4
 _ZN8LexState7PropSetEPKcS1_@Base 2.8.4
 _ZN8LexState8SetLexerEm@Base 2.8.4
 _ZN8LexStateC1EP8Document@Base 2.8.4
 _ZN8LexStateC2EP8Document@Base 2.8.4
 _ZN8LexStateD0Ev@Base 2.8.4
 _ZN8LexStateD1Ev@Base 2.8.4
 _ZN8LexStateD2Ev@Base 2.8.4
 _ZN8LexerAsm11PrivateCallEiPv@Base 2.8.4
 _ZN8LexerAsm11PropertySetEPKcS1_@Base 2.8.4
 _ZN8LexerAsm11WordListSetEiPKc@Base 2.8.4
 _ZN8LexerAsm12PropertyTypeEPKc@Base 2.8.4
 _ZN8LexerAsm13PropertyNamesEv@Base 2.8.4
 _ZN8LexerAsm14LexerFactoryAsEv@Base 2.9
 _ZN8LexerAsm15LexerFactoryAsmEv@Base 2.8.4
 _ZN8LexerAsm16DescribePropertyEPKc@Base 2.8.4
 _ZN8LexerAsm20DescribeWordListSetsEv@Base 2.8.4
 _ZN8LexerAsm3LexEjiiP9IDocument@Base 2.8.4
 _ZN8LexerAsm4FoldEjiiP9IDocument@Base 2.8.4
 _ZN8LexerAsm7ReleaseEv@Base 2.8.4
 _ZN8LexerAsmC1Ei@Base 2.9
 _ZN8LexerAsmC2Ei@Base 2.9
 _ZN8LexerAsmD0Ev@Base 2.8.4
 _ZN8LexerAsmD1Ev@Base 2.8.4
 _ZN8LexerAsmD2Ev@Base 2.8.4
 _ZN8LexerCPP10MaskActiveEi@Base 2.8.4
 _ZN8LexerCPP11PrivateCallEiPv@Base 2.8.4
 _ZN8LexerCPP11PropertySetEPKcS1_@Base 2.8.4
 _ZN8LexerCPP11SymbolValueC1ERKNSt7__cxx1112basic_stringIcSt11char_traitsIcESaIcEEES8_@Base 2.9
 _ZN8LexerCPP11SymbolValueC1ERKS0_@Base 2.9
 _ZN8LexerCPP11SymbolValueC2ERKNSt7__cxx1112basic_stringIcSt11char_traitsIcESaIcEEES8_@Base 2.9
 _ZN8LexerCPP11SymbolValueC2ERKS0_@Base 2.9
 _ZN8LexerCPP11SymbolValueD1Ev@Base 2.9
 _ZN8LexerCPP11SymbolValueD2Ev@Base 2.9
 _ZN8LexerCPP11SymbolValueaSEOS0_@Base 2.9.2+dfsg
 _ZN8LexerCPP11SymbolValueaSERKNSt7__cxx1112basic_stringIcSt11char_traitsIcESaIcEEE@Base 2.9
 _ZN8LexerCPP11WordListSetEiPKc@Base 2.8.4
 _ZN8LexerCPP12PropertyTypeEPKc@Base 2.8.4
 _ZN8LexerCPP13FreeSubStylesEv@Base 2.8.4
 _ZN8LexerCPP13PropertyNamesEv@Base 2.8.4
 _ZN8LexerCPP14EvaluateTokensERSt6vectorINSt7__cxx1112basic_stringIcSt11char_traitsIcESaIcEEESaIS6_EERKSt3mapIS6_NS_11SymbolValueESt4lessIS6_ESaISt4pairIKS6_SB_EEE@Base 2.9
 _ZN8LexerCPP14SetIdentifiersEiPKc@Base 2.8.4
 _ZN8LexerCPP14SubStylesStartEi@Base 2.8.4
 _ZN8LexerCPP15LexerFactoryCPPEv@Base 2.8.4
 _ZN8LexerCPP15SubStylesLengthEi@Base 2.8.4
 _ZN8LexerCPP16DescribePropertyEPKc@Base 2.8.4
 _ZN8LexerCPP16GetSubStyleBasesEv@Base 2.8.4
 _ZN8LexerCPP17AllocateSubStylesEii@Base 2.8.4
 _ZN8LexerCPP17StyleFromSubStyleEi@Base 2.8.4
 _ZN8LexerCPP18EvaluateExpressionERKNSt7__cxx1112basic_stringIcSt11char_traitsIcESaIcEEERKSt3mapIS5_NS_11SymbolValueESt4lessIS5_ESaISt4pairIS6_S9_EEE@Base 2.9
 _ZN8LexerCPP20DescribeWordListSetsEv@Base 2.8.4
 _ZN8LexerCPP21LineEndTypesSupportedEv@Base 2.8.4
 _ZN8LexerCPP21PrimaryStyleFromStyleEi@Base 2.8.4
 _ZN8LexerCPP25DistanceToSecondaryStylesEv@Base 2.8.4
 _ZN8LexerCPP26LexerFactoryCPPInsensitiveEv@Base 2.8.4
 _ZN8LexerCPP3LexEjiiP9IDocument@Base 2.8.4
 _ZN8LexerCPP4FoldEjiiP9IDocument@Base 2.8.4
 _ZN8LexerCPP7ReleaseEv@Base 2.8.4
 _ZN8LexerCPPC1Eb@Base 2.8.4
 _ZN8LexerCPPC2Eb@Base 2.8.4
 _ZN8LexerCPPD0Ev@Base 2.8.4
 _ZN8LexerCPPD1Ev@Base 2.8.4
 _ZN8LexerCPPD2Ev@Base 2.8.4
 _ZN8LexerSQL11PrivateCallEiPv@Base 2.8.4
 _ZN8LexerSQL11PropertySetEPKcS1_@Base 2.8.4
 _ZN8LexerSQL11WordListSetEiPKc@Base 2.8.4
 _ZN8LexerSQL12PropertyTypeEPKc@Base 2.8.4
 _ZN8LexerSQL13IsCommentLineEiR11LexAccessor@Base 2.8.4
 _ZN8LexerSQL13PropertyNamesEv@Base 2.8.4
 _ZN8LexerSQL14IsCommentStyleEi@Base 2.8.4
 _ZN8LexerSQL15LexerFactorySQLEv@Base 2.8.4
 _ZN8LexerSQL16DescribePropertyEPKc@Base 2.8.4
 _ZN8LexerSQL20DescribeWordListSetsEv@Base 2.8.4
 _ZN8LexerSQL20IsStreamCommentStyleEi@Base 2.8.4
 _ZN8LexerSQL3LexEjiiP9IDocument@Base 2.8.4
 _ZN8LexerSQL4FoldEjiiP9IDocument@Base 2.8.4
 _ZN8LexerSQL7ReleaseEv@Base 2.8.4
 _ZN8LexerSQLC1Ev@Base 2.8.4
 _ZN8LexerSQLC2Ev@Base 2.8.4
 _ZN8LexerSQLD0Ev@Base 2.8.4
 _ZN8LexerSQLD1Ev@Base 2.8.4
 _ZN8LexerSQLD2Ev@Base 2.8.4
 _ZN8OptionsDC1Ev@Base 2.8.4
 _ZN8OptionsDC2Ev@Base 2.8.4
 _ZN8OptionsDD1Ev@Base 2.8.4
 _ZN8OptionsDD2Ev@Base 2.8.4
 _ZN8Platform11DebugPrintfEPKcz@Base 2.8.4
 _ZN8Platform11DefaultFontEv@Base 2.8.4
 _ZN8Platform12DebugDisplayEPKc@Base 2.8.4
 _ZN8Platform13SendScintillaEPvjml@Base 2.8.4
 _ZN8Platform14DBCSCharLengthEiPKc@Base 2.8.4
 _ZN8Platform14IsDBCSLeadByteEic@Base 2.8.4
 _ZN8Platform15ChromeHighlightEv@Base 2.8.4
 _ZN8Platform15DefaultFontSizeEv@Base 2.8.4
 _ZN8Platform15DoubleClickTimeEv@Base 2.8.4
 _ZN8Platform16LowShortFromLongEl@Base 2.8.4
 _ZN8Platform17DBCSCharMaxLengthEv@Base 2.8.4
 _ZN8Platform17HighShortFromLongEl@Base 2.8.4
 _ZN8Platform17MouseButtonBounceEv@Base 2.8.4
 _ZN8Platform19ShowAssertionPopUpsEb@Base 2.8.4
 _ZN8Platform20SendScintillaPointerEPvjmS0_@Base 2.8.4
 _ZN8Platform5ClampEiii@Base 2.8.4
 _ZN8Platform6AssertEPKcS1_i@Base 2.8.4
 _ZN8Platform6ChromeEv@Base 2.8.4
 _ZN8Platform7MaximumEii@Base 2.8.4
 _ZN8Platform7MinimumEii@Base 2.8.4
 _ZN8Platform9IsKeyDownEi@Base 2.8.4
 _ZN8QCharRefC1ER7QStringi@Base 2.8.4
 _ZN8QCharRefC2ER7QStringi@Base 2.8.4
 _ZN8QMapDataI7QString5QListI5QPairIjjEEE10createNodeERKS0_RKS4_P8QMapNodeIS0_S4_Eb@Base 2.8.4
 _ZN8QMapDataI7QString5QListI5QPairIjjEEE3endEv@Base 2.8.4
 _ZN8QMapDataI7QString5QListI5QPairIjjEEE5beginEv@Base 2.8.4
 _ZN8QMapDataI7QString5QListI5QPairIjjEEE6createEv@Base 2.8.4
 _ZN8QMapDataI7QString5QListI5QPairIjjEEE7destroyEv@Base 2.8.4
 _ZN8QMapDataI7QStringS0_E10createNodeERKS0_S3_P8QMapNodeIS0_S0_Eb@Base 2.8.4
 _ZN8QMapDataI7QStringS0_E3endEv@Base 2.8.4
 _ZN8QMapDataI7QStringS0_E6createEv@Base 2.8.4
 _ZN8QMapDataI7QStringS0_E7destroyEv@Base 2.8.4
 _ZN8QMapDataIi7QPixmapE10createNodeERKiRKS0_P8QMapNodeIiS0_Eb@Base 2.8.4
 _ZN8QMapDataIi7QPixmapE3endEv@Base 2.8.4
 _ZN8QMapDataIi7QPixmapE5beginEv@Base 2.8.4
 _ZN8QMapDataIi7QPixmapE6createEv@Base 2.8.4
 _ZN8QMapDataIi7QPixmapE7destroyEv@Base 2.8.4
 _ZN8QMapDataIiN9QsciLexer9StyleDataEE10createNodeERKiRKS1_P8QMapNodeIiS1_Eb@Base 2.8.4
 _ZN8QMapDataIiN9QsciLexer9StyleDataEE3endEv@Base 2.8.4
 _ZN8QMapDataIiN9QsciLexer9StyleDataEE6createEv@Base 2.8.4
 _ZN8QMapDataIiN9QsciLexer9StyleDataEE7destroyEv@Base 2.8.4
 _ZN8QMapNodeI7QString5QListI5QPairIjjEEE10lowerBoundERKS0_@Base 2.8.4
 _ZN8QMapNodeI7QString5QListI5QPairIjjEEE14destroySubTreeEv@Base 2.8.4
 _ZN8QMapNodeI7QString5QListI5QPairIjjEEE16doDestroySubTreeEN9QtPrivate17integral_constantIbLb1EEE@Base 2.9.2+dfsg
 _ZN8QMapNodeI7QStringS0_E10lowerBoundERKS0_@Base 2.8.4
 _ZN8QMapNodeI7QStringS0_E14destroySubTreeEv@Base 2.8.4
 _ZN8QMapNodeI7QStringS0_E16doDestroySubTreeEN9QtPrivate17integral_constantIbLb1EEE@Base 2.9.2+dfsg
 _ZN8QMapNodeIi7QPixmapE10lowerBoundERKi@Base 2.8.4
 _ZN8QMapNodeIi7QPixmapE14destroySubTreeEv@Base 2.8.4
 _ZN8QMapNodeIi7QPixmapE16doDestroySubTreeEN9QtPrivate17integral_constantIbLb1EEE@Base 2.9.2+dfsg
 _ZN8QMapNodeIiN9QsciLexer9StyleDataEE10lowerBoundERKi@Base 2.8.4
 _ZN8QMapNodeIiN9QsciLexer9StyleDataEE14destroySubTreeEv@Base 2.8.4
 _ZN8QMapNodeIiN9QsciLexer9StyleDataEE16doDestroySubTreeEN9QtPrivate17integral_constantIbLb1EEE@Base 2.9.2+dfsg
 _ZN8QPainter10drawPixmapERK7QPointFRK7QPixmapRK6QRectF@Base 2.8.4
 _ZN8QPainter11drawPolygonERK9QPolygonFN2Qt8FillRuleE@Base 2.8.4
 _ZN8QPainter8drawLineEiiii@Base 2.8.4
 _ZN8QPainter8drawRectERK6QRectF@Base 2.8.4
 _ZN8QPointerI9QsciLexerEC1Ev@Base 2.8.4
 _ZN8QPointerI9QsciLexerEC2Ev@Base 2.8.4
 _ZN8QPointerI9QsciLexerED1Ev@Base 2.8.4
 _ZN8QPointerI9QsciLexerED2Ev@Base 2.8.4
 _ZN8QPointerI9QsciLexerEaSEPS0_@Base 2.8.4
 _ZN8QVariant7PrivateC1Ev@Base 2.8.4
 _ZN8QVariant7PrivateC2Ev@Base 2.8.4
 _ZN8QVariantC1Ev@Base 2.8.4
 _ZN8QVariantC2Ev@Base 2.8.4
 _ZN8QsciAPIs11qt_metacallEN11QMetaObject4CallEiPPv@Base 2.8.4
 _ZN8QsciAPIs11qt_metacastEPKc@Base 2.8.4
 _ZN8QsciAPIs12deleteWorkerEv@Base 2.8.4
 _ZN8QsciAPIs12enoughCommasERK7QStringi@Base 2.8.4
 _ZN8QsciAPIs12loadPreparedERK7QString@Base 2.8.4
 _ZN8QsciAPIs13addAPIEntriesERK5QListI5QPairIjjEEbR11QStringListRb@Base 2.8.4
 _ZN8QsciAPIs14positionOriginERK11QStringListR7QString@Base 2.8.4
 _ZN8QsciAPIs15lastPartialWordERK7QStringR11QStringListRb@Base 2.8.4
 _ZN8QsciAPIs16lastCompleteWordERK7QStringR11QStringListRb@Base 2.8.4
 _ZN8QsciAPIs16originStartsWithERK7QStringS2_@Base 2.8.4
 _ZN8QsciAPIs16staticMetaObjectE@Base 2.8.4
 _ZN8QsciAPIs17cancelPreparationEv@Base 2.8.4
 _ZN8QsciAPIs21apiPreparationStartedEv@Base 2.8.4
 _ZN8QsciAPIs22apiPreparationFinishedEv@Base 2.8.4
 _ZN8QsciAPIs22autoCompletionSelectedERK7QString@Base 2.8.4
 _ZN8QsciAPIs23apiPreparationCancelledEv@Base 2.8.4
 _ZN8QsciAPIs24updateAutoCompletionListERK11QStringListRS0_@Base 2.8.4
 _ZN8QsciAPIs3addERK7QString@Base 2.8.4
 _ZN8QsciAPIs4loadERK7QString@Base 2.8.4
 _ZN8QsciAPIs5clearEv@Base 2.8.4
 _ZN8QsciAPIs5eventEP6QEvent@Base 2.8.4
 _ZN8QsciAPIs6removeERK7QString@Base 2.8.4
 _ZN8QsciAPIs7prepareEv@Base 2.8.4
 _ZN8QsciAPIs8callTipsERK11QStringListiN13QsciScintilla13CallTipsStyleER5QListIiE@Base 2.8.4
 _ZN8QsciAPIsC1EP9QsciLexer@Base 2.8.4
 _ZN8QsciAPIsC2EP9QsciLexer@Base 2.8.4
 _ZN8QsciAPIsD0Ev@Base 2.8.4
 _ZN8QsciAPIsD1Ev@Base 2.8.4
 _ZN8QsciAPIsD2Ev@Base 2.8.4
 _ZN8QuoteCls3NewEv@Base 2.8.4
 _ZN8QuoteCls4OpenEc@Base 2.8.4
 _ZN8QuoteClsC1ERKS_@Base 2.8.4
 _ZN8QuoteClsC1Ev@Base 2.8.4
 _ZN8QuoteClsC2ERKS_@Base 2.8.4
 _ZN8QuoteClsC2Ev@Base 2.8.4
 _ZN8QuoteClsaSERKS_@Base 2.8.4
 _ZN8RESearch11GrabMatchesER16CharacterIndexer@Base 2.8.4
 _ZN8RESearch13ChSetWithCaseEhb@Base 2.8.4
 _ZN8RESearch22GetBackslashExpressionEPKcRi@Base 2.8.4
 _ZN8RESearch5ChSetEh@Base 2.8.4
 _ZN8RESearch5ClearEv@Base 2.8.4
 _ZN8RESearch6PMatchER16CharacterIndexeriiPc@Base 2.8.4
 _ZN8RESearch7CompileEPKcibb@Base 2.8.4
 _ZN8RESearch7ExecuteER16CharacterIndexerii@Base 2.8.4
 _ZN8RESearchC1EP12CharClassify@Base 2.8.4
 _ZN8RESearchC2EP12CharClassify@Base 2.8.4
 _ZN8RESearchD1Ev@Base 2.8.4
 _ZN8RESearchD2Ev@Base 2.8.4
 _ZN8VarChainC1EPKcPKS_@Base 2.8.4
 _ZN8VarChainC2EPKcPKS_@Base 2.8.4
 _ZN8WordList3SetEPKc@Base 2.8.4
 _ZN8WordList5ClearEv@Base 2.8.4
 _ZN8WordListC1Eb@Base 2.8.4
 _ZN8WordListC2Eb@Base 2.8.4
 _ZN8WordListD1Ev@Base 2.8.4
 _ZN8WordListD2Ev@Base 2.8.4
 _ZN9Catalogue14AddLexerModuleEP11LexerModule@Base 2.8.4
 _ZN9Catalogue4FindEPKc@Base 2.8.4
 _ZN9Catalogue4FindEi@Base 2.8.4
 _ZN9EditModelC1Ev@Base 2.9
 _ZN9EditModelC2Ev@Base 2.9
 _ZN9EditModelD0Ev@Base 2.9
 _ZN9EditModelD1Ev@Base 2.9
 _ZN9EditModelD2Ev@Base 2.9
 _ZN9FontAlias9ClearFontEv@Base 2.8.4
 _ZN9FontAlias9MakeAliasER4Font@Base 2.8.4
 _ZN9FontAliasC1ERKS_@Base 2.9
 _ZN9FontAliasC1Ev@Base 2.8.4
 _ZN9FontAliasC2ERKS_@Base 2.9
 _ZN9FontAliasC2Ev@Base 2.8.4
 _ZN9FontAliasD0Ev@Base 2.8.4
 _ZN9FontAliasD1Ev@Base 2.8.4
 _ZN9FontAliasD2Ev@Base 2.8.4
 _ZN9FontNames4SaveEPKc@Base 2.8.4
 _ZN9FontNames5ClearEv@Base 2.8.4
 _ZN9FontNamesC1Ev@Base 2.8.4
 _ZN9FontNamesC2Ev@Base 2.8.4
 _ZN9FontNamesD1Ev@Base 2.8.4
 _ZN9FontNamesD2Ev@Base 2.8.4
 _ZN9IDocumentC1Ev@Base 2.8.4
 _ZN9IDocumentC2Ev@Base 2.8.4
 _ZN9Indicator8SetFlagsEi@Base 2.9
 _ZN9IndicatorC1Ei13ColourDesiredbii@Base 2.9
 _ZN9IndicatorC1Ev@Base 2.8.4
 _ZN9IndicatorC2Ei13ColourDesiredbii@Base 2.9
 _ZN9IndicatorC2Ev@Base 2.8.4
 _ZN9LexerBase11PrivateCallEiPv@Base 2.8.4
 _ZN9LexerBase11PropertySetEPKcS1_@Base 2.8.4
 _ZN9LexerBase11WordListSetEiPKc@Base 2.8.4
 _ZN9LexerBase12PropertyTypeEPKc@Base 2.8.4
 _ZN9LexerBase13PropertyNamesEv@Base 2.8.4
 _ZN9LexerBase16DescribePropertyEPKc@Base 2.8.4
 _ZN9LexerBase20DescribeWordListSetsEv@Base 2.8.4
 _ZN9LexerBase7ReleaseEv@Base 2.8.4
 _ZN9LexerBaseC1Ev@Base 2.8.4
 _ZN9LexerBaseC2Ev@Base 2.8.4
 _ZN9LexerBaseD0Ev@Base 2.8.4
 _ZN9LexerBaseD1Ev@Base 2.8.4
 _ZN9LexerBaseD2Ev@Base 2.8.4
 _ZN9LexerDMIS11PrivateCallEiPv@Base 2.9
 _ZN9LexerDMIS11PropertySetEPKcS1_@Base 2.9
 _ZN9LexerDMIS11WordListSetEiPKc@Base 2.9
 _ZN9LexerDMIS12PropertyTypeEPKc@Base 2.9
 _ZN9LexerDMIS13PropertyNamesEv@Base 2.9
 _ZN9LexerDMIS16DescribePropertyEPKc@Base 2.9
 _ZN9LexerDMIS16InitWordListSetsEv@Base 2.9
 _ZN9LexerDMIS16LexerFactoryDMISEv@Base 2.9
 _ZN9LexerDMIS20DescribeWordListSetsEv@Base 2.9
 _ZN9LexerDMIS3LexEjiiP9IDocument@Base 2.9
 _ZN9LexerDMIS4FoldEjiiP9IDocument@Base 2.9
 _ZN9LexerDMIS7ReleaseEv@Base 2.9
 _ZN9LexerDMIS9UpperCaseEPc@Base 2.9
 _ZN9LexerDMISC1Ev@Base 2.9
 _ZN9LexerDMISC2Ev@Base 2.9
 _ZN9LexerDMISD0Ev@Base 2.9
 _ZN9LexerDMISD1Ev@Base 2.9
 _ZN9LexerDMISD2Ev@Base 2.9
 _ZN9LexerPerl11PrivateCallEiPv@Base 2.8.4
 _ZN9LexerPerl11PropertySetEPKcS1_@Base 2.8.4
 _ZN9LexerPerl11WordListSetEiPKc@Base 2.8.4
 _ZN9LexerPerl12PropertyTypeEPKc@Base 2.8.4
 _ZN9LexerPerl13PropertyNamesEv@Base 2.8.4
 _ZN9LexerPerl15InputSymbolScanER12StyleContext@Base 2.8.4
 _ZN9LexerPerl16DescribePropertyEPKc@Base 2.8.4
 _ZN9LexerPerl16LexerFactoryPerlEv@Base 2.8.4
 _ZN9LexerPerl18InterpolateSegmentER12StyleContextib@Base 2.8.4
 _ZN9LexerPerl20DescribeWordListSetsEv@Base 2.8.4
 _ZN9LexerPerl3LexEjiiP9IDocument@Base 2.8.4
 _ZN9LexerPerl4FoldEjiiP9IDocument@Base 2.8.4
 _ZN9LexerPerl7ReleaseEv@Base 2.8.4
 _ZN9LexerPerlC1Ev@Base 2.8.4
 _ZN9LexerPerlC2Ev@Base 2.8.4
 _ZN9LexerPerlD0Ev@Base 2.8.4
 _ZN9LexerPerlD1Ev@Base 2.8.4
 _ZN9LexerPerlD2Ev@Base 2.8.4
 _ZN9LexerRust11PrivateCallEiPv@Base 2.8.4
 _ZN9LexerRust11PropertySetEPKcS1_@Base 2.8.4
 _ZN9LexerRust11WordListSetEiPKc@Base 2.8.4
 _ZN9LexerRust12PropertyTypeEPKc@Base 2.8.4
 _ZN9LexerRust13PropertyNamesEv@Base 2.8.4
 _ZN9LexerRust16DescribePropertyEPKc@Base 2.8.4
 _ZN9LexerRust16LexerFactoryRustEv@Base 2.8.4
 _ZN9LexerRust20DescribeWordListSetsEv@Base 2.8.4
 _ZN9LexerRust3LexEjiiP9IDocument@Base 2.8.4
 _ZN9LexerRust4FoldEjiiP9IDocument@Base 2.8.4
 _ZN9LexerRust7ReleaseEv@Base 2.8.4
 _ZN9LexerRustC1Ev@Base 2.8.4
 _ZN9LexerRustC2Ev@Base 2.8.4
 _ZN9LexerRustD0Ev@Base 2.8.4
 _ZN9LexerRustD1Ev@Base 2.8.4
 _ZN9LexerRustD2Ev@Base 2.8.4
 _ZN9LineState10InsertLineEi@Base 2.8.4
 _ZN9LineState10RemoveLineEi@Base 2.8.4
 _ZN9LineState12GetLineStateEi@Base 2.8.4
 _ZN9LineState12SetLineStateEii@Base 2.8.4
 _ZN9LineState4InitEv@Base 2.8.4
 _ZN9LineStateC1Ev@Base 2.8.4
 _ZN9LineStateC2Ev@Base 2.8.4
 _ZN9LineStateD0Ev@Base 2.8.4
 _ZN9LineStateD1Ev@Base 2.8.4
 _ZN9LineStateD2Ev@Base 2.8.4
 _ZN9OptionSetI10OptionsAsmE10AppendNameEPKc@Base 2.8.4
 _ZN9OptionSetI10OptionsAsmE11PropertySetEPS0_PKcS4_@Base 2.8.4
 _ZN9OptionSetI10OptionsAsmE12PropertyTypeEPKc@Base 2.8.4
 _ZN9OptionSetI10OptionsAsmE14DefinePropertyEPKcMS0_NSt7__cxx1112basic_stringIcSt11char_traitsIcESaIcEEES9_@Base 2.9
 _ZN9OptionSetI10OptionsAsmE14DefinePropertyEPKcMS0_bNSt7__cxx1112basic_stringIcSt11char_traitsIcESaIcEEE@Base 2.9
 _ZN9OptionSetI10OptionsAsmE16DescribePropertyEPKc@Base 2.8.4
 _ZN9OptionSetI10OptionsAsmE18DefineWordListSetsEPKPKc@Base 2.8.4
 _ZN9OptionSetI10OptionsAsmE6OptionC1EMS0_NSt7__cxx1112basic_stringIcSt11char_traitsIcESaIcEEES8_@Base 2.9
 _ZN9OptionSetI10OptionsAsmE6OptionC1EMS0_bNSt7__cxx1112basic_stringIcSt11char_traitsIcESaIcEEE@Base 2.9
 _ZN9OptionSetI10OptionsAsmE6OptionC1Ev@Base 2.8.4
 _ZN9OptionSetI10OptionsAsmE6OptionC2EMS0_NSt7__cxx1112basic_stringIcSt11char_traitsIcESaIcEEES8_@Base 2.9
 _ZN9OptionSetI10OptionsAsmE6OptionC2EMS0_bNSt7__cxx1112basic_stringIcSt11char_traitsIcESaIcEEE@Base 2.9
 _ZN9OptionSetI10OptionsAsmE6OptionC2Ev@Base 2.8.4
 _ZN9OptionSetI10OptionsAsmE6OptionD1Ev@Base 2.8.4
 _ZN9OptionSetI10OptionsAsmE6OptionD2Ev@Base 2.8.4
 _ZN9OptionSetI10OptionsAsmE6OptionaSEOS2_@Base 2.9.2+dfsg
 _ZN9OptionSetI10OptionsAsmEC1Ev@Base 2.8.4
 _ZN9OptionSetI10OptionsAsmEC2Ev@Base 2.8.4
 _ZN9OptionSetI10OptionsAsmED0Ev@Base 2.8.4
 _ZN9OptionSetI10OptionsAsmED1Ev@Base 2.8.4
 _ZN9OptionSetI10OptionsAsmED2Ev@Base 2.8.4
 _ZN9OptionSetI10OptionsSQLE10AppendNameEPKc@Base 2.8.4
 _ZN9OptionSetI10OptionsSQLE11PropertySetEPS0_PKcS4_@Base 2.8.4
 _ZN9OptionSetI10OptionsSQLE12PropertyTypeEPKc@Base 2.8.4
 _ZN9OptionSetI10OptionsSQLE14DefinePropertyEPKcMS0_bNSt7__cxx1112basic_stringIcSt11char_traitsIcESaIcEEE@Base 2.9
 _ZN9OptionSetI10OptionsSQLE16DescribePropertyEPKc@Base 2.8.4
 _ZN9OptionSetI10OptionsSQLE18DefineWordListSetsEPKPKc@Base 2.8.4
 _ZN9OptionSetI10OptionsSQLE6OptionC1EMS0_bNSt7__cxx1112basic_stringIcSt11char_traitsIcESaIcEEE@Base 2.9
 _ZN9OptionSetI10OptionsSQLE6OptionC1Ev@Base 2.8.4
 _ZN9OptionSetI10OptionsSQLE6OptionC2EMS0_bNSt7__cxx1112basic_stringIcSt11char_traitsIcESaIcEEE@Base 2.9
 _ZN9OptionSetI10OptionsSQLE6OptionC2Ev@Base 2.8.4
 _ZN9OptionSetI10OptionsSQLE6OptionD1Ev@Base 2.8.4
 _ZN9OptionSetI10OptionsSQLE6OptionD2Ev@Base 2.8.4
 _ZN9OptionSetI10OptionsSQLE6OptionaSEOS2_@Base 2.9.2+dfsg
 _ZN9OptionSetI10OptionsSQLEC1Ev@Base 2.8.4
 _ZN9OptionSetI10OptionsSQLEC2Ev@Base 2.8.4
 _ZN9OptionSetI10OptionsSQLED0Ev@Base 2.8.4
 _ZN9OptionSetI10OptionsSQLED1Ev@Base 2.8.4
 _ZN9OptionSetI10OptionsSQLED2Ev@Base 2.8.4
 _ZN9OptionSetI11OptionsPerlE10AppendNameEPKc@Base 2.8.4
 _ZN9OptionSetI11OptionsPerlE11PropertySetEPS0_PKcS4_@Base 2.8.4
 _ZN9OptionSetI11OptionsPerlE12PropertyTypeEPKc@Base 2.8.4
 _ZN9OptionSetI11OptionsPerlE14DefinePropertyEPKcMS0_bNSt7__cxx1112basic_stringIcSt11char_traitsIcESaIcEEE@Base 2.9
 _ZN9OptionSetI11OptionsPerlE16DescribePropertyEPKc@Base 2.8.4
 _ZN9OptionSetI11OptionsPerlE18DefineWordListSetsEPKPKc@Base 2.8.4
 _ZN9OptionSetI11OptionsPerlE6OptionC1EMS0_bNSt7__cxx1112basic_stringIcSt11char_traitsIcESaIcEEE@Base 2.9
 _ZN9OptionSetI11OptionsPerlE6OptionC1Ev@Base 2.8.4
 _ZN9OptionSetI11OptionsPerlE6OptionC2EMS0_bNSt7__cxx1112basic_stringIcSt11char_traitsIcESaIcEEE@Base 2.9
 _ZN9OptionSetI11OptionsPerlE6OptionC2Ev@Base 2.8.4
 _ZN9OptionSetI11OptionsPerlE6OptionD1Ev@Base 2.8.4
 _ZN9OptionSetI11OptionsPerlE6OptionD2Ev@Base 2.8.4
 _ZN9OptionSetI11OptionsPerlE6OptionaSEOS2_@Base 2.9.2+dfsg
 _ZN9OptionSetI11OptionsPerlEC1Ev@Base 2.8.4
 _ZN9OptionSetI11OptionsPerlEC2Ev@Base 2.8.4
 _ZN9OptionSetI11OptionsPerlED0Ev@Base 2.8.4
 _ZN9OptionSetI11OptionsPerlED1Ev@Base 2.8.4
 _ZN9OptionSetI11OptionsPerlED2Ev@Base 2.8.4
 _ZN9OptionSetI11OptionsRustE10AppendNameEPKc@Base 2.8.4
 _ZN9OptionSetI11OptionsRustE11PropertySetEPS0_PKcS4_@Base 2.8.4
 _ZN9OptionSetI11OptionsRustE12PropertyTypeEPKc@Base 2.8.4
 _ZN9OptionSetI11OptionsRustE14DefinePropertyEPKcMS0_NSt7__cxx1112basic_stringIcSt11char_traitsIcESaIcEEES9_@Base 2.9
 _ZN9OptionSetI11OptionsRustE14DefinePropertyEPKcMS0_bNSt7__cxx1112basic_stringIcSt11char_traitsIcESaIcEEE@Base 2.9
 _ZN9OptionSetI11OptionsRustE14DefinePropertyEPKcMS0_iNSt7__cxx1112basic_stringIcSt11char_traitsIcESaIcEEE@Base 2.9
 _ZN9OptionSetI11OptionsRustE16DescribePropertyEPKc@Base 2.8.4
 _ZN9OptionSetI11OptionsRustE18DefineWordListSetsEPKPKc@Base 2.8.4
 _ZN9OptionSetI11OptionsRustE6OptionC1EMS0_NSt7__cxx1112basic_stringIcSt11char_traitsIcESaIcEEES8_@Base 2.9
 _ZN9OptionSetI11OptionsRustE6OptionC1EMS0_bNSt7__cxx1112basic_stringIcSt11char_traitsIcESaIcEEE@Base 2.9
 _ZN9OptionSetI11OptionsRustE6OptionC1EMS0_iNSt7__cxx1112basic_stringIcSt11char_traitsIcESaIcEEE@Base 2.9
 _ZN9OptionSetI11OptionsRustE6OptionC1Ev@Base 2.8.4
 _ZN9OptionSetI11OptionsRustE6OptionC2EMS0_NSt7__cxx1112basic_stringIcSt11char_traitsIcESaIcEEES8_@Base 2.9
 _ZN9OptionSetI11OptionsRustE6OptionC2EMS0_bNSt7__cxx1112basic_stringIcSt11char_traitsIcESaIcEEE@Base 2.9
 _ZN9OptionSetI11OptionsRustE6OptionC2EMS0_iNSt7__cxx1112basic_stringIcSt11char_traitsIcESaIcEEE@Base 2.9
 _ZN9OptionSetI11OptionsRustE6OptionC2Ev@Base 2.8.4
 _ZN9OptionSetI11OptionsRustE6OptionD1Ev@Base 2.8.4
 _ZN9OptionSetI11OptionsRustE6OptionD2Ev@Base 2.8.4
 _ZN9OptionSetI11OptionsRustE6OptionaSEOS2_@Base 2.9.2+dfsg
 _ZN9OptionSetI11OptionsRustEC1Ev@Base 2.8.4
 _ZN9OptionSetI11OptionsRustEC2Ev@Base 2.8.4
 _ZN9OptionSetI11OptionsRustED0Ev@Base 2.8.4
 _ZN9OptionSetI11OptionsRustED1Ev@Base 2.8.4
 _ZN9OptionSetI11OptionsRustED2Ev@Base 2.8.4
 _ZN9OptionSetI12OptionsBasicE10AppendNameEPKc@Base 2.8.4
 _ZN9OptionSetI12OptionsBasicE11PropertySetEPS0_PKcS4_@Base 2.8.4
 _ZN9OptionSetI12OptionsBasicE12PropertyTypeEPKc@Base 2.8.4
 _ZN9OptionSetI12OptionsBasicE14DefinePropertyEPKcMS0_NSt7__cxx1112basic_stringIcSt11char_traitsIcESaIcEEES9_@Base 2.9
 _ZN9OptionSetI12OptionsBasicE14DefinePropertyEPKcMS0_bNSt7__cxx1112basic_stringIcSt11char_traitsIcESaIcEEE@Base 2.9
 _ZN9OptionSetI12OptionsBasicE16DescribePropertyEPKc@Base 2.8.4
 _ZN9OptionSetI12OptionsBasicE18DefineWordListSetsEPKPKc@Base 2.8.4
 _ZN9OptionSetI12OptionsBasicE6OptionC1EMS0_NSt7__cxx1112basic_stringIcSt11char_traitsIcESaIcEEES8_@Base 2.9
 _ZN9OptionSetI12OptionsBasicE6OptionC1EMS0_bNSt7__cxx1112basic_stringIcSt11char_traitsIcESaIcEEE@Base 2.9
 _ZN9OptionSetI12OptionsBasicE6OptionC1Ev@Base 2.8.4
 _ZN9OptionSetI12OptionsBasicE6OptionC2EMS0_NSt7__cxx1112basic_stringIcSt11char_traitsIcESaIcEEES8_@Base 2.9
 _ZN9OptionSetI12OptionsBasicE6OptionC2EMS0_bNSt7__cxx1112basic_stringIcSt11char_traitsIcESaIcEEE@Base 2.9
 _ZN9OptionSetI12OptionsBasicE6OptionC2Ev@Base 2.8.4
 _ZN9OptionSetI12OptionsBasicE6OptionD1Ev@Base 2.8.4
 _ZN9OptionSetI12OptionsBasicE6OptionD2Ev@Base 2.8.4
 _ZN9OptionSetI12OptionsBasicE6OptionaSEOS2_@Base 2.9.2+dfsg
 _ZN9OptionSetI12OptionsBasicEC1Ev@Base 2.8.4
 _ZN9OptionSetI12OptionsBasicEC2Ev@Base 2.8.4
 _ZN9OptionSetI12OptionsBasicED0Ev@Base 2.8.4
 _ZN9OptionSetI12OptionsBasicED1Ev@Base 2.8.4
 _ZN9OptionSetI12OptionsBasicED2Ev@Base 2.8.4
 _ZN9OptionSetI14OptionsHaskellE10AppendNameEPKc@Base 2.8.4
 _ZN9OptionSetI14OptionsHaskellE11PropertySetEPS0_PKcS4_@Base 2.8.4
 _ZN9OptionSetI14OptionsHaskellE12PropertyTypeEPKc@Base 2.8.4
 _ZN9OptionSetI14OptionsHaskellE14DefinePropertyEPKcMS0_bNSt7__cxx1112basic_stringIcSt11char_traitsIcESaIcEEE@Base 2.9
 _ZN9OptionSetI14OptionsHaskellE16DescribePropertyEPKc@Base 2.8.4
 _ZN9OptionSetI14OptionsHaskellE18DefineWordListSetsEPKPKc@Base 2.8.4
 _ZN9OptionSetI14OptionsHaskellE6OptionC1EMS0_bNSt7__cxx1112basic_stringIcSt11char_traitsIcESaIcEEE@Base 2.9
 _ZN9OptionSetI14OptionsHaskellE6OptionC1Ev@Base 2.8.4
 _ZN9OptionSetI14OptionsHaskellE6OptionC2EMS0_bNSt7__cxx1112basic_stringIcSt11char_traitsIcESaIcEEE@Base 2.9
 _ZN9OptionSetI14OptionsHaskellE6OptionC2Ev@Base 2.8.4
 _ZN9OptionSetI14OptionsHaskellE6OptionD1Ev@Base 2.8.4
 _ZN9OptionSetI14OptionsHaskellE6OptionD2Ev@Base 2.8.4
 _ZN9OptionSetI14OptionsHaskellE6OptionaSEOS2_@Base 2.9.2+dfsg
 _ZN9OptionSetI14OptionsHaskellEC1Ev@Base 2.8.4
 _ZN9OptionSetI14OptionsHaskellEC2Ev@Base 2.8.4
 _ZN9OptionSetI14OptionsHaskellED0Ev@Base 2.8.4
 _ZN9OptionSetI14OptionsHaskellED1Ev@Base 2.8.4
 _ZN9OptionSetI14OptionsHaskellED2Ev@Base 2.8.4
 _ZN9OptionSetI15OptionsRegistryE10AppendNameEPKc@Base 2.9
 _ZN9OptionSetI15OptionsRegistryE11PropertySetEPS0_PKcS4_@Base 2.9
 _ZN9OptionSetI15OptionsRegistryE12PropertyTypeEPKc@Base 2.9
 _ZN9OptionSetI15OptionsRegistryE14DefinePropertyEPKcMS0_bNSt7__cxx1112basic_stringIcSt11char_traitsIcESaIcEEE@Base 2.9
 _ZN9OptionSetI15OptionsRegistryE16DescribePropertyEPKc@Base 2.9
 _ZN9OptionSetI15OptionsRegistryE18DefineWordListSetsEPKPKc@Base 2.9
 _ZN9OptionSetI15OptionsRegistryE6OptionC1EMS0_bNSt7__cxx1112basic_stringIcSt11char_traitsIcESaIcEEE@Base 2.9
 _ZN9OptionSetI15OptionsRegistryE6OptionC1Ev@Base 2.9
 _ZN9OptionSetI15OptionsRegistryE6OptionC2EMS0_bNSt7__cxx1112basic_stringIcSt11char_traitsIcESaIcEEE@Base 2.9
 _ZN9OptionSetI15OptionsRegistryE6OptionC2Ev@Base 2.9
 _ZN9OptionSetI15OptionsRegistryE6OptionD1Ev@Base 2.9
 _ZN9OptionSetI15OptionsRegistryE6OptionD2Ev@Base 2.9
 _ZN9OptionSetI15OptionsRegistryE6OptionaSEOS2_@Base 2.9.2+dfsg
 _ZN9OptionSetI15OptionsRegistryEC1Ev@Base 2.9
 _ZN9OptionSetI15OptionsRegistryEC2Ev@Base 2.9
 _ZN9OptionSetI15OptionsRegistryED0Ev@Base 2.9
 _ZN9OptionSetI15OptionsRegistryED1Ev@Base 2.9
 _ZN9OptionSetI15OptionsRegistryED2Ev@Base 2.9
 _ZN9OptionSetI19OptionsVisualPrologE11PropertySetEPS0_PKcS4_@Base 2.8.4
 _ZN9OptionSetI19OptionsVisualPrologE12PropertyTypeEPKc@Base 2.8.4
 _ZN9OptionSetI19OptionsVisualPrologE16DescribePropertyEPKc@Base 2.8.4
 _ZN9OptionSetI19OptionsVisualPrologE18DefineWordListSetsEPKPKc@Base 2.8.4
 _ZN9OptionSetI19OptionsVisualPrologE6OptionD1Ev@Base 2.8.4
 _ZN9OptionSetI19OptionsVisualPrologE6OptionD2Ev@Base 2.8.4
 _ZN9OptionSetI19OptionsVisualPrologEC1Ev@Base 2.8.4
 _ZN9OptionSetI19OptionsVisualPrologEC2Ev@Base 2.8.4
 _ZN9OptionSetI19OptionsVisualPrologED0Ev@Base 2.8.4
 _ZN9OptionSetI19OptionsVisualPrologED1Ev@Base 2.8.4
 _ZN9OptionSetI19OptionsVisualPrologED2Ev@Base 2.8.4
 _ZN9OptionSetI8OptionsDE10AppendNameEPKc@Base 2.8.4
 _ZN9OptionSetI8OptionsDE11PropertySetEPS0_PKcS4_@Base 2.8.4
 _ZN9OptionSetI8OptionsDE12PropertyTypeEPKc@Base 2.8.4
 _ZN9OptionSetI8OptionsDE14DefinePropertyEPKcMS0_NSt7__cxx1112basic_stringIcSt11char_traitsIcESaIcEEES9_@Base 2.9
 _ZN9OptionSetI8OptionsDE14DefinePropertyEPKcMS0_bNSt7__cxx1112basic_stringIcSt11char_traitsIcESaIcEEE@Base 2.9
 _ZN9OptionSetI8OptionsDE14DefinePropertyEPKcMS0_iNSt7__cxx1112basic_stringIcSt11char_traitsIcESaIcEEE@Base 2.9
 _ZN9OptionSetI8OptionsDE16DescribePropertyEPKc@Base 2.8.4
 _ZN9OptionSetI8OptionsDE18DefineWordListSetsEPKPKc@Base 2.8.4
 _ZN9OptionSetI8OptionsDE6OptionC1EMS0_NSt7__cxx1112basic_stringIcSt11char_traitsIcESaIcEEES8_@Base 2.9
 _ZN9OptionSetI8OptionsDE6OptionC1EMS0_bNSt7__cxx1112basic_stringIcSt11char_traitsIcESaIcEEE@Base 2.9
 _ZN9OptionSetI8OptionsDE6OptionC1EMS0_iNSt7__cxx1112basic_stringIcSt11char_traitsIcESaIcEEE@Base 2.9
 _ZN9OptionSetI8OptionsDE6OptionC1Ev@Base 2.8.4
 _ZN9OptionSetI8OptionsDE6OptionC2EMS0_NSt7__cxx1112basic_stringIcSt11char_traitsIcESaIcEEES8_@Base 2.9
 _ZN9OptionSetI8OptionsDE6OptionC2EMS0_bNSt7__cxx1112basic_stringIcSt11char_traitsIcESaIcEEE@Base 2.9
 _ZN9OptionSetI8OptionsDE6OptionC2EMS0_iNSt7__cxx1112basic_stringIcSt11char_traitsIcESaIcEEE@Base 2.9
 _ZN9OptionSetI8OptionsDE6OptionC2Ev@Base 2.8.4
 _ZN9OptionSetI8OptionsDE6OptionD1Ev@Base 2.8.4
 _ZN9OptionSetI8OptionsDE6OptionD2Ev@Base 2.8.4
 _ZN9OptionSetI8OptionsDE6OptionaSEOS2_@Base 2.9.2+dfsg
 _ZN9OptionSetI8OptionsDEC1Ev@Base 2.8.4
 _ZN9OptionSetI8OptionsDEC2Ev@Base 2.8.4
 _ZN9OptionSetI8OptionsDED0Ev@Base 2.8.4
 _ZN9OptionSetI8OptionsDED1Ev@Base 2.8.4
 _ZN9OptionSetI8OptionsDED2Ev@Base 2.8.4
 _ZN9QIODevice5writeERK10QByteArray@Base 2.8.4
 _ZN9QListData7disposeEv@Base 2.8.4
 _ZN9QPolygonFC1Ei@Base 2.8.4
 _ZN9QPolygonFC2Ei@Base 2.8.4
 _ZN9QPolygonFD1Ev@Base 2.8.4
 _ZN9QPolygonFD2Ev@Base 2.8.4
 _ZN9QsciLexer10setEolFillEbi@Base 2.8.4
 _ZN9QsciLexer11fontChangedERK5QFonti@Base 2.8.4
 _ZN9QsciLexer11qt_metacallEN11QMetaObject4CallEiPPv@Base 2.8.4
 _ZN9QsciLexer11qt_metacastEPKc@Base 2.8.4
 _ZN9QsciLexer12StyleDataMapC1Ev@Base 2.8.4
 _ZN9QsciLexer12StyleDataMapC2Ev@Base 2.8.4
 _ZN9QsciLexer12StyleDataMapD1Ev@Base 2.8.4
 _ZN9QsciLexer12StyleDataMapD2Ev@Base 2.8.4
 _ZN9QsciLexer12colorChangedERK6QColori@Base 2.8.4
 _ZN9QsciLexer12paperChangedERK6QColori@Base 2.8.4
 _ZN9QsciLexer12readSettingsER9QSettingsPKc@Base 2.8.4
 _ZN9QsciLexer14eolFillChangedEbi@Base 2.8.4
 _ZN9QsciLexer14readPropertiesER9QSettingsRK7QString@Base 2.8.4
 _ZN9QsciLexer14setDefaultFontERK5QFont@Base 2.8.4
 _ZN9QsciLexer15autoIndentStyleEv@Base 2.8.4
 _ZN9QsciLexer15propertyChangedEPKcS1_@Base 2.8.4
 _ZN9QsciLexer15setDefaultColorERK6QColor@Base 2.8.4
 _ZN9QsciLexer15setDefaultPaperERK6QColor@Base 2.8.4
 _ZN9QsciLexer16staticMetaObjectE@Base 2.8.4
 _ZN9QsciLexer17refreshPropertiesEv@Base 2.8.4
 _ZN9QsciLexer18setAutoIndentStyleEi@Base 2.8.4
 _ZN9QsciLexer7setAPIsEP16QsciAbstractAPIs@Base 2.8.4
 _ZN9QsciLexer7setFontERK5QFonti@Base 2.8.4
 _ZN9QsciLexer8setColorERK6QColori@Base 2.8.4
 _ZN9QsciLexer8setPaperERK6QColori@Base 2.8.4
 _ZN9QsciLexer9StyleDataC1ERKS0_@Base 2.8.4
 _ZN9QsciLexer9StyleDataC1Ev@Base 2.8.4
 _ZN9QsciLexer9StyleDataC2ERKS0_@Base 2.8.4
 _ZN9QsciLexer9StyleDataC2Ev@Base 2.8.4
 _ZN9QsciLexer9StyleDataD1Ev@Base 2.8.4
 _ZN9QsciLexer9StyleDataD2Ev@Base 2.8.4
 _ZN9QsciLexer9StyleDataaSERKS0_@Base 2.8.4
 _ZN9QsciLexer9setEditorEP13QsciScintilla@Base 2.8.4
 _ZN9QsciLexerC1EP7QObject@Base 2.8.4
 _ZN9QsciLexerC2EP7QObject@Base 2.8.4
 _ZN9QsciLexerD0Ev@Base 2.8.4
 _ZN9QsciLexerD1Ev@Base 2.8.4
 _ZN9QsciLexerD2Ev@Base 2.8.4
 _ZN9QsciMacro11qt_metacallEN11QMetaObject4CallEiPPv@Base 2.8.4
 _ZN9QsciMacro11qt_metacastEPKc@Base 2.8.4
 _ZN9QsciMacro12endRecordingEv@Base 2.8.4
 _ZN9QsciMacro14startRecordingEv@Base 2.8.4
 _ZN9QsciMacro16staticMetaObjectE@Base 2.8.4
 _ZN9QsciMacro4loadERK7QString@Base 2.8.4
 _ZN9QsciMacro4playEv@Base 2.8.4
 _ZN9QsciMacro5MacroC1ERKS0_@Base 2.8.4
 _ZN9QsciMacro5MacroC1Ev@Base 2.8.4
 _ZN9QsciMacro5MacroC2ERKS0_@Base 2.8.4
 _ZN9QsciMacro5MacroC2Ev@Base 2.8.4
 _ZN9QsciMacro5MacroD1Ev@Base 2.8.4
 _ZN9QsciMacro5MacroD2Ev@Base 2.8.4
 _ZN9QsciMacro5clearEv@Base 2.8.4
 _ZN9QsciMacro6recordEjmPv@Base 2.8.4
 _ZN9QsciMacroC1EP13QsciScintilla@Base 2.8.4
 _ZN9QsciMacroC1ERK7QStringP13QsciScintilla@Base 2.8.4
 _ZN9QsciMacroC2EP13QsciScintilla@Base 2.8.4
 _ZN9QsciMacroC2ERK7QStringP13QsciScintilla@Base 2.8.4
 _ZN9QsciMacroD0Ev@Base 2.8.4
 _ZN9QsciMacroD1Ev@Base 2.8.4
 _ZN9QsciMacroD2Ev@Base 2.8.4
 _ZN9QsciStyle10setEolFillEb@Base 2.8.4
 _ZN9QsciStyle10setHotspotEb@Base 2.8.4
 _ZN9QsciStyle10setVisibleEb@Base 2.8.4
 _ZN9QsciStyle11setTextCaseENS_8TextCaseE@Base 2.8.4
 _ZN9QsciStyle13setChangeableEb@Base 2.8.4
 _ZN9QsciStyle14setDescriptionERK7QString@Base 2.8.4
 _ZN9QsciStyle4initEi@Base 2.8.4
 _ZN9QsciStyle7refreshEv@Base 2.8.4
 _ZN9QsciStyle7setFontERK5QFont@Base 2.8.4
 _ZN9QsciStyle8setColorERK6QColor@Base 2.8.4
 _ZN9QsciStyle8setPaperERK6QColor@Base 2.8.4
 _ZN9QsciStyleC1ERKS_@Base 2.8.4
 _ZN9QsciStyleC1Ei@Base 2.8.4
 _ZN9QsciStyleC1EiRK7QStringRK6QColorS5_RK5QFontb@Base 2.8.4
 _ZN9QsciStyleC2ERKS_@Base 2.8.4
 _ZN9QsciStyleC2Ei@Base 2.8.4
 _ZN9QsciStyleC2EiRK7QStringRK6QColorS5_RK5QFontb@Base 2.8.4
 _ZN9QtPrivate15MetaTypeInvokerINS_19QVariantValueHelperI11QTextFormatEERK8QVariantS2_E6invokeES6_@Base 2.8.4
 _ZN9QtPrivate16StreamStateSaverC1EP11QDataStream@Base 2.9.3
 _ZN9QtPrivate16StreamStateSaverC2EP11QDataStream@Base 2.9.3
 _ZN9QtPrivate16StreamStateSaverD1Ev@Base 2.9.3
 _ZN9QtPrivate16StreamStateSaverD2Ev@Base 2.9.3
 _ZN9QtPrivate19QVariantValueHelperI11QTextFormatE8metaTypeERK8QVariant@Base 2.8.4
 _ZN9QtPrivate8RefCount3refEv@Base 2.8.4
 _ZN9QtPrivate8RefCount5derefEv@Base 2.8.4
 _ZN9RGBAImage8SetPixelEii13ColourDesiredi@Base 2.8.4
 _ZN9RGBAImageC1ERK3XPM@Base 2.8.4
 _ZN9RGBAImageC1EiifPKh@Base 2.8.4
 _ZN9RGBAImageC2ERK3XPM@Base 2.8.4
 _ZN9RGBAImageC2EiifPKh@Base 2.8.4
 _ZN9RGBAImageD0Ev@Base 2.8.4
 _ZN9RGBAImageD1Ev@Base 2.8.4
 _ZN9RGBAImageD2Ev@Base 2.8.4
 _ZN9RunStyles10SetValueAtEii@Base 2.8.4
 _ZN9RunStyles11DeleteRangeEii@Base 2.8.4
 _ZN9RunStyles11InsertSpaceEii@Base 2.8.4
 _ZN9RunStyles16RemoveRunIfEmptyEi@Base 2.8.4
 _ZN9RunStyles25RemoveRunIfSameAsPreviousEi@Base 2.8.4
 _ZN9RunStyles8SplitRunEi@Base 2.8.4
 _ZN9RunStyles9DeleteAllEv@Base 2.8.4
 _ZN9RunStyles9FillRangeERiiS0_@Base 2.8.4
 _ZN9RunStyles9RemoveRunEi@Base 2.8.4
 _ZN9RunStylesC1Ev@Base 2.8.4
 _ZN9RunStylesC2Ev@Base 2.8.4
 _ZN9RunStylesD1Ev@Base 2.8.4
 _ZN9RunStylesD2Ev@Base 2.8.4
 _ZN9SQLStates10IgnoreWhenEjb@Base 2.8.4
 _ZN9SQLStates12EndCaseBlockEj@Base 2.8.4
 _ZN9SQLStates12IsIgnoreWhenEj@Base 2.8.4
 _ZN9SQLStates13IntoConditionEjb@Base 2.8.4
 _ZN9SQLStates14BeginCaseBlockEj@Base 2.8.4
 _ZN9SQLStates15IsIntoCaseBlockEj@Base 2.8.4
 _ZN9SQLStates15IsIntoConditionEj@Base 2.8.4
 _ZN9SQLStates16IntoDeclareBlockEjb@Base 2.8.4
 _ZN9SQLStates18IntoExceptionBlockEjb@Base 2.8.4
 _ZN9SQLStates18IntoMergeStatementEjb@Base 2.8.4
 _ZN9SQLStates18IsIntoDeclareBlockEj@Base 2.8.4
 _ZN9SQLStates19IntoCreateStatementEjb@Base 2.8.4
 _ZN9SQLStates20IsIntoExceptionBlockEj@Base 2.8.4
 _ZN9SQLStates20IsIntoMergeStatementEj@Base 2.8.4
 _ZN9SQLStates21IsIntoCreateStatementEj@Base 2.8.4
 _ZN9SQLStates23IntoCreateViewStatementEjb@Base 2.8.4
 _ZN9SQLStates25CaseMergeWithoutWhenFoundEjb@Base 2.8.4
 _ZN9SQLStates25IntoCreateViewAsStatementEjb@Base 2.8.4
 _ZN9SQLStates25IsIntoCreateViewStatementEj@Base 2.8.4
 _ZN9SQLStates27IsCaseMergeWithoutWhenFoundEj@Base 2.8.4
 _ZN9SQLStates27IsIntoCreateViewAsStatementEj@Base 2.8.4
 _ZN9SQLStates31IntoSelectStatementOrAssignmentEjb@Base 2.8.4
 _ZN9SQLStates33IsIntoSelectStatementOrAssignmentEj@Base 2.8.4
 _ZN9SQLStates3SetEit@Base 2.8.4
 _ZN9SQLStates7ForLineEi@Base 2.8.4
 _ZN9SQLStatesC1Ev@Base 2.8.4
 _ZN9SQLStatesC2Ev@Base 2.8.4
 _ZN9SQLStatesD1Ev@Base 2.8.4
 _ZN9SQLStatesD2Ev@Base 2.8.4
 _ZN9Selection10RotateMainEv@Base 2.8.4
 _ZN9Selection11RectangularEv@Base 2.8.4
 _ZN9Selection12AddSelectionE14SelectionRange@Base 2.8.4
 _ZN9Selection12SetSelectionE14SelectionRange@Base 2.8.4
 _ZN9Selection13DropSelectionEj@Base 2.9
 _ZN9Selection13MovePositionsEbii@Base 2.8.4
 _ZN9Selection13TrimSelectionE14SelectionRange@Base 2.8.4
 _ZN9Selection14SetMoveExtendsEb@Base 2.8.4
 _ZN9Selection15CommitTentativeEv@Base 2.8.4
 _ZN9Selection16RemoveDuplicatesEv@Base 2.8.4
 _ZN9Selection18TentativeSelectionE14SelectionRange@Base 2.8.4
 _ZN9Selection23AddSelectionWithoutTrimE14SelectionRange@Base 2.8.4
 _ZN9Selection5ClearEv@Base 2.8.4
 _ZN9Selection5RangeEj@Base 2.9
 _ZN9Selection7SetMainEj@Base 2.9
 _ZN9Selection9RangeMainEv@Base 2.8.4
 _ZN9SelectionC1Ev@Base 2.8.4
 _ZN9SelectionC2Ev@Base 2.8.4
 _ZN9SelectionD1Ev@Base 2.8.4
 _ZN9SelectionD2Ev@Base 2.8.4
 _ZN9SubStyles14SetIdentifiersEiPKc@Base 2.8.4
 _ZN9SubStyles4FreeEv@Base 2.8.4
 _ZN9SubStyles5StartEi@Base 2.8.4
 _ZN9SubStyles6LengthEi@Base 2.8.4
 _ZN9SubStyles8AllocateEii@Base 2.8.4
 _ZN9SubStylesC1EPKciii@Base 2.8.4
 _ZN9SubStylesC2EPKciii@Base 2.8.4
 _ZN9SubStylesD1Ev@Base 2.8.4
 _ZN9SubStylesD2Ev@Base 2.8.4
 _ZN9UndoGroupC1EP8Documentb@Base 2.8.4
 _ZN9UndoGroupC2EP8Documentb@Base 2.8.4
 _ZN9UndoGroupD1Ev@Base 2.8.4
 _ZN9UndoGroupD2Ev@Base 2.8.4
 _ZN9ViewStyle11AllocStylesEj@Base 2.9
 _ZN9ViewStyle11ClearStylesEv@Base 2.8.4
 _ZN9ViewStyle11EnsureStyleEj@Base 2.9
 _ZN9ViewStyle12SetWrapStateEi@Base 2.8.4
 _ZN9ViewStyle16CreateAndAddFontERK17FontSpecification@Base 2.9
 _ZN9ViewStyle16SetStyleFontNameEiPKc@Base 2.8.4
 _ZN9ViewStyle17ResetDefaultStyleEv@Base 2.8.4
 _ZN9ViewStyle17SetWrapIndentModeEi@Base 2.8.4
 _ZN9ViewStyle18SetWrapVisualFlagsEi@Base 2.8.4
 _ZN9ViewStyle20FindMaxAscentDescentEv@Base 2.8.4
 _ZN9ViewStyle22AllocateExtendedStylesEi@Base 2.8.4
 _ZN9ViewStyle23CalcLargestMarkerHeightEv@Base 2.8.4
 _ZN9ViewStyle24ReleaseAllExtendedStylesEv@Base 2.8.4
 _ZN9ViewStyle24SetWrapVisualStartIndentEi@Base 2.8.4
 _ZN9ViewStyle26SetWrapVisualFlagsLocationEi@Base 2.8.4
 _ZN9ViewStyle4FindERK17FontSpecification@Base 2.8.4
 _ZN9ViewStyle4InitEj@Base 2.9
 _ZN9ViewStyle7RefreshER7Surfacei@Base 2.8.4
 _ZN9ViewStyleC1ERKS_@Base 2.8.4
 _ZN9ViewStyleC1Ev@Base 2.8.4
 _ZN9ViewStyleC2ERKS_@Base 2.8.4
 _ZN9ViewStyleC2Ev@Base 2.8.4
 _ZN9ViewStyleD1Ev@Base 2.8.4
 _ZN9ViewStyleD2Ev@Base 2.8.4
 _ZN9__gnu_cxx13new_allocatorI13latexFoldSaveE10deallocateEPS1_j@Base 2.9
 _ZN9__gnu_cxx13new_allocatorI13latexFoldSaveE8allocateEjPKv@Base 2.9
 _ZN9__gnu_cxx13new_allocatorI13latexFoldSaveEC1Ev@Base 2.8.4
 _ZN9__gnu_cxx13new_allocatorI13latexFoldSaveEC2Ev@Base 2.8.4
 _ZN9__gnu_cxx13new_allocatorI13latexFoldSaveED1Ev@Base 2.8.4
 _ZN9__gnu_cxx13new_allocatorI13latexFoldSaveED2Ev@Base 2.8.4
 _ZN9__gnu_cxx13new_allocatorI14SelectionRangeE10deallocateEPS1_j@Base 2.9
 _ZN9__gnu_cxx13new_allocatorI14SelectionRangeE7destroyIS1_EEvPT_@Base 2.9.2+dfsg
 _ZN9__gnu_cxx13new_allocatorI14SelectionRangeE8allocateEjPKv@Base 2.9
 _ZN9__gnu_cxx13new_allocatorI14SelectionRangeE9constructIS1_JRKS1_EEEvPT_DpOT0_@Base 2.9.2+dfsg
 _ZN9__gnu_cxx13new_allocatorI14SelectionRangeE9constructIS1_JS1_EEEvPT_DpOT0_@Base 2.9.2+dfsg
 _ZN9__gnu_cxx13new_allocatorI14SelectionRangeEC1ERKS2_@Base 2.8.4
 _ZN9__gnu_cxx13new_allocatorI14SelectionRangeEC1Ev@Base 2.8.4
 _ZN9__gnu_cxx13new_allocatorI14SelectionRangeEC2ERKS2_@Base 2.8.4
 _ZN9__gnu_cxx13new_allocatorI14SelectionRangeEC2Ev@Base 2.8.4
 _ZN9__gnu_cxx13new_allocatorI14SelectionRangeED1Ev@Base 2.8.4
 _ZN9__gnu_cxx13new_allocatorI14SelectionRangeED2Ev@Base 2.8.4
 _ZN9__gnu_cxx13new_allocatorI14WordClassifierE10deallocateEPS1_j@Base 2.9
 _ZN9__gnu_cxx13new_allocatorI14WordClassifierE7destroyIS1_EEvPT_@Base 2.9.2+dfsg
 _ZN9__gnu_cxx13new_allocatorI14WordClassifierE8allocateEjPKv@Base 2.9
 _ZN9__gnu_cxx13new_allocatorI14WordClassifierE9constructIS1_JS1_EEEvPT_DpOT0_@Base 2.9.2+dfsg
 _ZN9__gnu_cxx13new_allocatorI14WordClassifierEC1Ev@Base 2.8.4
 _ZN9__gnu_cxx13new_allocatorI14WordClassifierEC2Ev@Base 2.8.4
 _ZN9__gnu_cxx13new_allocatorI14WordClassifierED1Ev@Base 2.8.4
 _ZN9__gnu_cxx13new_allocatorI14WordClassifierED2Ev@Base 2.8.4
 _ZN9__gnu_cxx13new_allocatorI18PositionCacheEntryE10deallocateEPS1_j@Base 2.9
 _ZN9__gnu_cxx13new_allocatorI18PositionCacheEntryE8allocateEjPKv@Base 2.9
 _ZN9__gnu_cxx13new_allocatorI18PositionCacheEntryEC1Ev@Base 2.8.4
 _ZN9__gnu_cxx13new_allocatorI18PositionCacheEntryEC2Ev@Base 2.8.4
 _ZN9__gnu_cxx13new_allocatorI18PositionCacheEntryED1Ev@Base 2.8.4
 _ZN9__gnu_cxx13new_allocatorI18PositionCacheEntryED2Ev@Base 2.8.4
 _ZN9__gnu_cxx13new_allocatorI5StyleE10deallocateEPS1_j@Base 2.9
 _ZN9__gnu_cxx13new_allocatorI5StyleE8allocateEjPKv@Base 2.9
 _ZN9__gnu_cxx13new_allocatorI5StyleEC1Ev@Base 2.8.4
 _ZN9__gnu_cxx13new_allocatorI5StyleEC2Ev@Base 2.8.4
 _ZN9__gnu_cxx13new_allocatorI5StyleED1Ev@Base 2.8.4
 _ZN9__gnu_cxx13new_allocatorI5StyleED2Ev@Base 2.8.4
 _ZN9__gnu_cxx13new_allocatorI9DrawPhaseE10deallocateEPS1_j@Base 2.9
 _ZN9__gnu_cxx13new_allocatorI9DrawPhaseE7destroyIS1_EEvPT_@Base 2.9.2+dfsg
 _ZN9__gnu_cxx13new_allocatorI9DrawPhaseE8allocateEjPKv@Base 2.9
 _ZN9__gnu_cxx13new_allocatorI9DrawPhaseE9constructIS1_JRKS1_EEEvPT_DpOT0_@Base 2.9.2+dfsg
 _ZN9__gnu_cxx13new_allocatorI9DrawPhaseE9constructIS1_JS1_EEEvPT_DpOT0_@Base 2.9.2+dfsg
 _ZN9__gnu_cxx13new_allocatorI9DrawPhaseEC1Ev@Base 2.9
 _ZN9__gnu_cxx13new_allocatorI9DrawPhaseEC2Ev@Base 2.9
 _ZN9__gnu_cxx13new_allocatorI9DrawPhaseED1Ev@Base 2.9
 _ZN9__gnu_cxx13new_allocatorI9DrawPhaseED2Ev@Base 2.9
 _ZN9__gnu_cxx13new_allocatorIN11SparseStateINSt7__cxx1112basic_stringIcSt11char_traitsIcESaIcEEEE5StateEE10deallocateEPS9_j@Base 2.9
 _ZN9__gnu_cxx13new_allocatorIN11SparseStateINSt7__cxx1112basic_stringIcSt11char_traitsIcESaIcEEEE5StateEE7destroyIS9_EEvPT_@Base 2.9.2+dfsg
 _ZN9__gnu_cxx13new_allocatorIN11SparseStateINSt7__cxx1112basic_stringIcSt11char_traitsIcESaIcEEEE5StateEE8allocateEjPKv@Base 2.9
 _ZN9__gnu_cxx13new_allocatorIN11SparseStateINSt7__cxx1112basic_stringIcSt11char_traitsIcESaIcEEEE5StateEE9constructIS9_JS9_EEEvPT_DpOT0_@Base 2.9.2+dfsg
 _ZN9__gnu_cxx13new_allocatorIN11SparseStateINSt7__cxx1112basic_stringIcSt11char_traitsIcESaIcEEEE5StateEEC1Ev@Base 2.9
 _ZN9__gnu_cxx13new_allocatorIN11SparseStateINSt7__cxx1112basic_stringIcSt11char_traitsIcESaIcEEEE5StateEEC2Ev@Base 2.9
 _ZN9__gnu_cxx13new_allocatorIN11SparseStateINSt7__cxx1112basic_stringIcSt11char_traitsIcESaIcEEEE5StateEED1Ev@Base 2.9
 _ZN9__gnu_cxx13new_allocatorIN11SparseStateINSt7__cxx1112basic_stringIcSt11char_traitsIcESaIcEEEE5StateEED2Ev@Base 2.9
 _ZN9__gnu_cxx13new_allocatorIN11SparseStateIjE5StateEE10deallocateEPS3_j@Base 2.9
 _ZN9__gnu_cxx13new_allocatorIN11SparseStateIjE5StateEE7destroyIS3_EEvPT_@Base 2.9.2+dfsg
 _ZN9__gnu_cxx13new_allocatorIN11SparseStateIjE5StateEE8allocateEjPKv@Base 2.9
 _ZN9__gnu_cxx13new_allocatorIN11SparseStateIjE5StateEE9constructIS3_JS3_EEEvPT_DpOT0_@Base 2.9.2+dfsg
 _ZN9__gnu_cxx13new_allocatorIN11SparseStateIjE5StateEEC1Ev@Base 2.8.4
 _ZN9__gnu_cxx13new_allocatorIN11SparseStateIjE5StateEEC2Ev@Base 2.8.4
 _ZN9__gnu_cxx13new_allocatorIN11SparseStateIjE5StateEED1Ev@Base 2.8.4
 _ZN9__gnu_cxx13new_allocatorIN11SparseStateIjE5StateEED2Ev@Base 2.8.4
 _ZN9__gnu_cxx13new_allocatorIN8Document19WatcherWithUserDataEE10deallocateEPS2_j@Base 2.9
 _ZN9__gnu_cxx13new_allocatorIN8Document19WatcherWithUserDataEE7destroyIS2_EEvPT_@Base 2.9.2+dfsg
 _ZN9__gnu_cxx13new_allocatorIN8Document19WatcherWithUserDataEE8allocateEjPKv@Base 2.9
 _ZN9__gnu_cxx13new_allocatorIN8Document19WatcherWithUserDataEE9constructIS2_JRKS2_EEEvPT_DpOT0_@Base 2.9.2+dfsg
 _ZN9__gnu_cxx13new_allocatorIN8Document19WatcherWithUserDataEEC1Ev@Base 2.8.4
 _ZN9__gnu_cxx13new_allocatorIN8Document19WatcherWithUserDataEEC2Ev@Base 2.8.4
 _ZN9__gnu_cxx13new_allocatorIN8Document19WatcherWithUserDataEED1Ev@Base 2.8.4
 _ZN9__gnu_cxx13new_allocatorIN8Document19WatcherWithUserDataEED2Ev@Base 2.8.4
 _ZN9__gnu_cxx13new_allocatorINSt7__cxx1112basic_stringIcSt11char_traitsIcESaIcEEEE10deallocateEPS6_j@Base 2.9
 _ZN9__gnu_cxx13new_allocatorINSt7__cxx1112basic_stringIcSt11char_traitsIcESaIcEEEE7destroyIS6_EEvPT_@Base 2.9.2+dfsg
 _ZN9__gnu_cxx13new_allocatorINSt7__cxx1112basic_stringIcSt11char_traitsIcESaIcEEEE8allocateEjPKv@Base 2.9
 _ZN9__gnu_cxx13new_allocatorINSt7__cxx1112basic_stringIcSt11char_traitsIcESaIcEEEE9constructIS6_JRKS6_EEEvPT_DpOT0_@Base 2.9.2+dfsg
 _ZN9__gnu_cxx13new_allocatorINSt7__cxx1112basic_stringIcSt11char_traitsIcESaIcEEEE9constructIS6_JS6_EEEvPT_DpOT0_@Base 2.9.2+dfsg
 _ZN9__gnu_cxx13new_allocatorINSt7__cxx1112basic_stringIcSt11char_traitsIcESaIcEEEEC1ERKS7_@Base 2.9
 _ZN9__gnu_cxx13new_allocatorINSt7__cxx1112basic_stringIcSt11char_traitsIcESaIcEEEEC1Ev@Base 2.9
 _ZN9__gnu_cxx13new_allocatorINSt7__cxx1112basic_stringIcSt11char_traitsIcESaIcEEEEC2ERKS7_@Base 2.9
 _ZN9__gnu_cxx13new_allocatorINSt7__cxx1112basic_stringIcSt11char_traitsIcESaIcEEEEC2Ev@Base 2.9
 _ZN9__gnu_cxx13new_allocatorINSt7__cxx1112basic_stringIcSt11char_traitsIcESaIcEEEED1Ev@Base 2.9
 _ZN9__gnu_cxx13new_allocatorINSt7__cxx1112basic_stringIcSt11char_traitsIcESaIcEEEED2Ev@Base 2.9
 _ZN9__gnu_cxx13new_allocatorIP10LineLayoutE10deallocateEPS2_j@Base 2.9
 _ZN9__gnu_cxx13new_allocatorIP10LineLayoutE8allocateEjPKv@Base 2.9
 _ZN9__gnu_cxx13new_allocatorIP10LineLayoutEC1Ev@Base 2.8.4
 _ZN9__gnu_cxx13new_allocatorIP10LineLayoutEC2Ev@Base 2.8.4
 _ZN9__gnu_cxx13new_allocatorIP10LineLayoutED1Ev@Base 2.8.4
 _ZN9__gnu_cxx13new_allocatorIP10LineLayoutED2Ev@Base 2.8.4
 _ZN9__gnu_cxx13new_allocatorIP11LexerModuleE10deallocateEPS2_j@Base 2.9
 _ZN9__gnu_cxx13new_allocatorIP11LexerModuleE7destroyIS2_EEvPT_@Base 2.9.2+dfsg
 _ZN9__gnu_cxx13new_allocatorIP11LexerModuleE8allocateEjPKv@Base 2.9
 _ZN9__gnu_cxx13new_allocatorIP11LexerModuleE9constructIS2_JRKS2_EEEvPT_DpOT0_@Base 2.9.2+dfsg
 _ZN9__gnu_cxx13new_allocatorIP11LexerModuleEC1Ev@Base 2.8.4
 _ZN9__gnu_cxx13new_allocatorIP11LexerModuleEC2Ev@Base 2.8.4
 _ZN9__gnu_cxx13new_allocatorIP11LexerModuleED1Ev@Base 2.8.4
 _ZN9__gnu_cxx13new_allocatorIP11LexerModuleED2Ev@Base 2.8.4
 _ZN9__gnu_cxx13new_allocatorIP14SelectionRangeE10deallocateEPS2_j@Base 2.9
 _ZN9__gnu_cxx13new_allocatorIP14SelectionRangeE7destroyIS2_EEvPT_@Base 2.9.2+dfsg
 _ZN9__gnu_cxx13new_allocatorIP14SelectionRangeE8allocateEjPKv@Base 2.9
 _ZN9__gnu_cxx13new_allocatorIP14SelectionRangeE9constructIS2_JS2_EEEvPT_DpOT0_@Base 2.9.2+dfsg
 _ZN9__gnu_cxx13new_allocatorIP14SelectionRangeEC1Ev@Base 2.8.4
 _ZN9__gnu_cxx13new_allocatorIP14SelectionRangeEC2Ev@Base 2.8.4
 _ZN9__gnu_cxx13new_allocatorIP14SelectionRangeED1Ev@Base 2.8.4
 _ZN9__gnu_cxx13new_allocatorIP14SelectionRangeED2Ev@Base 2.8.4
 _ZN9__gnu_cxx13new_allocatorIPcE10deallocateEPS1_j@Base 2.9
 _ZN9__gnu_cxx13new_allocatorIPcE7destroyIS1_EEvPT_@Base 2.9.2+dfsg
 _ZN9__gnu_cxx13new_allocatorIPcE8allocateEjPKv@Base 2.9
 _ZN9__gnu_cxx13new_allocatorIPcE9constructIS1_JRKS1_EEEvPT_DpOT0_@Base 2.9.2+dfsg
 _ZN9__gnu_cxx13new_allocatorIPcEC1Ev@Base 2.8.4
 _ZN9__gnu_cxx13new_allocatorIPcEC2Ev@Base 2.8.4
 _ZN9__gnu_cxx13new_allocatorIPcED1Ev@Base 2.8.4
 _ZN9__gnu_cxx13new_allocatorIPcED2Ev@Base 2.8.4
 _ZN9__gnu_cxx13new_allocatorISt13_Rb_tree_nodeISt4pairIK12KeyModifiersjEEE10deallocateEPS6_j@Base 2.9
 _ZN9__gnu_cxx13new_allocatorISt13_Rb_tree_nodeISt4pairIK12KeyModifiersjEEE7destroyIS5_EEvPT_@Base 2.9.2+dfsg
 _ZN9__gnu_cxx13new_allocatorISt13_Rb_tree_nodeISt4pairIK12KeyModifiersjEEE8allocateEjPKv@Base 2.9
 _ZN9__gnu_cxx13new_allocatorISt13_Rb_tree_nodeISt4pairIK12KeyModifiersjEEE9constructIS5_JRKSt21piecewise_construct_tSt5tupleIJOS3_EESC_IJEEEEEvPT_DpOT0_@Base 2.9.2+dfsg
 _ZN9__gnu_cxx13new_allocatorISt13_Rb_tree_nodeISt4pairIK12KeyModifiersjEEEC1Ev@Base 2.9
 _ZN9__gnu_cxx13new_allocatorISt13_Rb_tree_nodeISt4pairIK12KeyModifiersjEEEC2Ev@Base 2.9
 _ZN9__gnu_cxx13new_allocatorISt13_Rb_tree_nodeISt4pairIK12KeyModifiersjEEED1Ev@Base 2.9
 _ZN9__gnu_cxx13new_allocatorISt13_Rb_tree_nodeISt4pairIK12KeyModifiersjEEED2Ev@Base 2.9
 _ZN9__gnu_cxx13new_allocatorISt13_Rb_tree_nodeISt4pairIK17FontSpecificationP12FontRealisedEEE10deallocateEPS8_j@Base 2.9
 _ZN9__gnu_cxx13new_allocatorISt13_Rb_tree_nodeISt4pairIK17FontSpecificationP12FontRealisedEEE7destroyIS7_EEvPT_@Base 2.9.2+dfsg
 _ZN9__gnu_cxx13new_allocatorISt13_Rb_tree_nodeISt4pairIK17FontSpecificationP12FontRealisedEEE8allocateEjPKv@Base 2.9
 _ZN9__gnu_cxx13new_allocatorISt13_Rb_tree_nodeISt4pairIK17FontSpecificationP12FontRealisedEEE9constructIS7_JRKSt21piecewise_construct_tSt5tupleIJRS4_EESE_IJEEEEEvPT_DpOT0_@Base 2.9.2+dfsg
 _ZN9__gnu_cxx13new_allocatorISt13_Rb_tree_nodeISt4pairIK17FontSpecificationP12FontRealisedEEEC1Ev@Base 2.8.4
 _ZN9__gnu_cxx13new_allocatorISt13_Rb_tree_nodeISt4pairIK17FontSpecificationP12FontRealisedEEEC2Ev@Base 2.8.4
 _ZN9__gnu_cxx13new_allocatorISt13_Rb_tree_nodeISt4pairIK17FontSpecificationP12FontRealisedEEED1Ev@Base 2.8.4
 _ZN9__gnu_cxx13new_allocatorISt13_Rb_tree_nodeISt4pairIK17FontSpecificationP12FontRealisedEEED2Ev@Base 2.8.4
 _ZN9__gnu_cxx13new_allocatorISt13_Rb_tree_nodeISt4pairIKNSt7__cxx1112basic_stringIcSt11char_traitsIcESaIcEEEN12LexerVerilog11SymbolValueEEEE10deallocateEPSD_j@Base 2.9
 _ZN9__gnu_cxx13new_allocatorISt13_Rb_tree_nodeISt4pairIKNSt7__cxx1112basic_stringIcSt11char_traitsIcESaIcEEEN12LexerVerilog11SymbolValueEEEE7destroyISC_EEvPT_@Base 2.9.2+dfsg
 _ZN9__gnu_cxx13new_allocatorISt13_Rb_tree_nodeISt4pairIKNSt7__cxx1112basic_stringIcSt11char_traitsIcESaIcEEEN12LexerVerilog11SymbolValueEEEE8allocateEjPKv@Base 2.9
 _ZN9__gnu_cxx13new_allocatorISt13_Rb_tree_nodeISt4pairIKNSt7__cxx1112basic_stringIcSt11char_traitsIcESaIcEEEN12LexerVerilog11SymbolValueEEEE9constructISC_JRKSC_EEEvPT_DpOT0_@Base 2.9.2+dfsg
 _ZN9__gnu_cxx13new_allocatorISt13_Rb_tree_nodeISt4pairIKNSt7__cxx1112basic_stringIcSt11char_traitsIcESaIcEEEN12LexerVerilog11SymbolValueEEEE9constructISC_JRKSt21piecewise_construct_tSt5tupleIJRS9_EESJ_IJEEEEEvPT_DpOT0_@Base 2.9.2+dfsg
 _ZN9__gnu_cxx13new_allocatorISt13_Rb_tree_nodeISt4pairIKNSt7__cxx1112basic_stringIcSt11char_traitsIcESaIcEEEN12LexerVerilog11SymbolValueEEEEC1ERKSE_@Base 2.9
 _ZN9__gnu_cxx13new_allocatorISt13_Rb_tree_nodeISt4pairIKNSt7__cxx1112basic_stringIcSt11char_traitsIcESaIcEEEN12LexerVerilog11SymbolValueEEEEC1Ev@Base 2.9
 _ZN9__gnu_cxx13new_allocatorISt13_Rb_tree_nodeISt4pairIKNSt7__cxx1112basic_stringIcSt11char_traitsIcESaIcEEEN12LexerVerilog11SymbolValueEEEEC2ERKSE_@Base 2.9
 _ZN9__gnu_cxx13new_allocatorISt13_Rb_tree_nodeISt4pairIKNSt7__cxx1112basic_stringIcSt11char_traitsIcESaIcEEEN12LexerVerilog11SymbolValueEEEEC2Ev@Base 2.9
 _ZN9__gnu_cxx13new_allocatorISt13_Rb_tree_nodeISt4pairIKNSt7__cxx1112basic_stringIcSt11char_traitsIcESaIcEEEN12LexerVerilog11SymbolValueEEEED1Ev@Base 2.9
 _ZN9__gnu_cxx13new_allocatorISt13_Rb_tree_nodeISt4pairIKNSt7__cxx1112basic_stringIcSt11char_traitsIcESaIcEEEN12LexerVerilog11SymbolValueEEEED2Ev@Base 2.9
 _ZN9__gnu_cxx13new_allocatorISt13_Rb_tree_nodeISt4pairIKNSt7__cxx1112basic_stringIcSt11char_traitsIcESaIcEEEN8LexerCPP11SymbolValueEEEE10deallocateEPSD_j@Base 2.9
 _ZN9__gnu_cxx13new_allocatorISt13_Rb_tree_nodeISt4pairIKNSt7__cxx1112basic_stringIcSt11char_traitsIcESaIcEEEN8LexerCPP11SymbolValueEEEE7destroyISC_EEvPT_@Base 2.9.2+dfsg
 _ZN9__gnu_cxx13new_allocatorISt13_Rb_tree_nodeISt4pairIKNSt7__cxx1112basic_stringIcSt11char_traitsIcESaIcEEEN8LexerCPP11SymbolValueEEEE8allocateEjPKv@Base 2.9
 _ZN9__gnu_cxx13new_allocatorISt13_Rb_tree_nodeISt4pairIKNSt7__cxx1112basic_stringIcSt11char_traitsIcESaIcEEEN8LexerCPP11SymbolValueEEEE9constructISC_JRKSC_EEEvPT_DpOT0_@Base 2.9.2+dfsg
 _ZN9__gnu_cxx13new_allocatorISt13_Rb_tree_nodeISt4pairIKNSt7__cxx1112basic_stringIcSt11char_traitsIcESaIcEEEN8LexerCPP11SymbolValueEEEE9constructISC_JRKSt21piecewise_construct_tSt5tupleIJRS9_EESJ_IJEEEEEvPT_DpOT0_@Base 2.9.2+dfsg
 _ZN9__gnu_cxx13new_allocatorISt13_Rb_tree_nodeISt4pairIKNSt7__cxx1112basic_stringIcSt11char_traitsIcESaIcEEEN8LexerCPP11SymbolValueEEEEC1ERKSE_@Base 2.9
 _ZN9__gnu_cxx13new_allocatorISt13_Rb_tree_nodeISt4pairIKNSt7__cxx1112basic_stringIcSt11char_traitsIcESaIcEEEN8LexerCPP11SymbolValueEEEEC1Ev@Base 2.9
 _ZN9__gnu_cxx13new_allocatorISt13_Rb_tree_nodeISt4pairIKNSt7__cxx1112basic_stringIcSt11char_traitsIcESaIcEEEN8LexerCPP11SymbolValueEEEEC2ERKSE_@Base 2.9
 _ZN9__gnu_cxx13new_allocatorISt13_Rb_tree_nodeISt4pairIKNSt7__cxx1112basic_stringIcSt11char_traitsIcESaIcEEEN8LexerCPP11SymbolValueEEEEC2Ev@Base 2.9
 _ZN9__gnu_cxx13new_allocatorISt13_Rb_tree_nodeISt4pairIKNSt7__cxx1112basic_stringIcSt11char_traitsIcESaIcEEEN8LexerCPP11SymbolValueEEEED1Ev@Base 2.9
 _ZN9__gnu_cxx13new_allocatorISt13_Rb_tree_nodeISt4pairIKNSt7__cxx1112basic_stringIcSt11char_traitsIcESaIcEEEN8LexerCPP11SymbolValueEEEED2Ev@Base 2.9
 _ZN9__gnu_cxx13new_allocatorISt13_Rb_tree_nodeISt4pairIKNSt7__cxx1112basic_stringIcSt11char_traitsIcESaIcEEEN9OptionSetI10OptionsAsmE6OptionEEEE10deallocateEPSF_j@Base 2.9
 _ZN9__gnu_cxx13new_allocatorISt13_Rb_tree_nodeISt4pairIKNSt7__cxx1112basic_stringIcSt11char_traitsIcESaIcEEEN9OptionSetI10OptionsAsmE6OptionEEEE7destroyISE_EEvPT_@Base 2.9.2+dfsg
 _ZN9__gnu_cxx13new_allocatorISt13_Rb_tree_nodeISt4pairIKNSt7__cxx1112basic_stringIcSt11char_traitsIcESaIcEEEN9OptionSetI10OptionsAsmE6OptionEEEE8allocateEjPKv@Base 2.9
 _ZN9__gnu_cxx13new_allocatorISt13_Rb_tree_nodeISt4pairIKNSt7__cxx1112basic_stringIcSt11char_traitsIcESaIcEEEN9OptionSetI10OptionsAsmE6OptionEEEE9constructISE_JRKSt21piecewise_construct_tSt5tupleIJOS8_EESL_IJEEEEEvPT_DpOT0_@Base 2.9.2+dfsg
 _ZN9__gnu_cxx13new_allocatorISt13_Rb_tree_nodeISt4pairIKNSt7__cxx1112basic_stringIcSt11char_traitsIcESaIcEEEN9OptionSetI10OptionsAsmE6OptionEEEEC1Ev@Base 2.9
 _ZN9__gnu_cxx13new_allocatorISt13_Rb_tree_nodeISt4pairIKNSt7__cxx1112basic_stringIcSt11char_traitsIcESaIcEEEN9OptionSetI10OptionsAsmE6OptionEEEEC2Ev@Base 2.9
 _ZN9__gnu_cxx13new_allocatorISt13_Rb_tree_nodeISt4pairIKNSt7__cxx1112basic_stringIcSt11char_traitsIcESaIcEEEN9OptionSetI10OptionsAsmE6OptionEEEED1Ev@Base 2.9
 _ZN9__gnu_cxx13new_allocatorISt13_Rb_tree_nodeISt4pairIKNSt7__cxx1112basic_stringIcSt11char_traitsIcESaIcEEEN9OptionSetI10OptionsAsmE6OptionEEEED2Ev@Base 2.9
 _ZN9__gnu_cxx13new_allocatorISt13_Rb_tree_nodeISt4pairIKNSt7__cxx1112basic_stringIcSt11char_traitsIcESaIcEEEN9OptionSetI10OptionsSQLE6OptionEEEE10deallocateEPSF_j@Base 2.9
 _ZN9__gnu_cxx13new_allocatorISt13_Rb_tree_nodeISt4pairIKNSt7__cxx1112basic_stringIcSt11char_traitsIcESaIcEEEN9OptionSetI10OptionsSQLE6OptionEEEE7destroyISE_EEvPT_@Base 2.9.2+dfsg
 _ZN9__gnu_cxx13new_allocatorISt13_Rb_tree_nodeISt4pairIKNSt7__cxx1112basic_stringIcSt11char_traitsIcESaIcEEEN9OptionSetI10OptionsSQLE6OptionEEEE8allocateEjPKv@Base 2.9
 _ZN9__gnu_cxx13new_allocatorISt13_Rb_tree_nodeISt4pairIKNSt7__cxx1112basic_stringIcSt11char_traitsIcESaIcEEEN9OptionSetI10OptionsSQLE6OptionEEEE9constructISE_JRKSt21piecewise_construct_tSt5tupleIJOS8_EESL_IJEEEEEvPT_DpOT0_@Base 2.9.2+dfsg
 _ZN9__gnu_cxx13new_allocatorISt13_Rb_tree_nodeISt4pairIKNSt7__cxx1112basic_stringIcSt11char_traitsIcESaIcEEEN9OptionSetI10OptionsSQLE6OptionEEEEC1Ev@Base 2.9
 _ZN9__gnu_cxx13new_allocatorISt13_Rb_tree_nodeISt4pairIKNSt7__cxx1112basic_stringIcSt11char_traitsIcESaIcEEEN9OptionSetI10OptionsSQLE6OptionEEEEC2Ev@Base 2.9
 _ZN9__gnu_cxx13new_allocatorISt13_Rb_tree_nodeISt4pairIKNSt7__cxx1112basic_stringIcSt11char_traitsIcESaIcEEEN9OptionSetI10OptionsSQLE6OptionEEEED1Ev@Base 2.9
 _ZN9__gnu_cxx13new_allocatorISt13_Rb_tree_nodeISt4pairIKNSt7__cxx1112basic_stringIcSt11char_traitsIcESaIcEEEN9OptionSetI10OptionsSQLE6OptionEEEED2Ev@Base 2.9
 _ZN9__gnu_cxx13new_allocatorISt13_Rb_tree_nodeISt4pairIKNSt7__cxx1112basic_stringIcSt11char_traitsIcESaIcEEEN9OptionSetI11OptionsPerlE6OptionEEEE10deallocateEPSF_j@Base 2.9
 _ZN9__gnu_cxx13new_allocatorISt13_Rb_tree_nodeISt4pairIKNSt7__cxx1112basic_stringIcSt11char_traitsIcESaIcEEEN9OptionSetI11OptionsPerlE6OptionEEEE7destroyISE_EEvPT_@Base 2.9.2+dfsg
 _ZN9__gnu_cxx13new_allocatorISt13_Rb_tree_nodeISt4pairIKNSt7__cxx1112basic_stringIcSt11char_traitsIcESaIcEEEN9OptionSetI11OptionsPerlE6OptionEEEE8allocateEjPKv@Base 2.9
 _ZN9__gnu_cxx13new_allocatorISt13_Rb_tree_nodeISt4pairIKNSt7__cxx1112basic_stringIcSt11char_traitsIcESaIcEEEN9OptionSetI11OptionsPerlE6OptionEEEE9constructISE_JRKSt21piecewise_construct_tSt5tupleIJOS8_EESL_IJEEEEEvPT_DpOT0_@Base 2.9.2+dfsg
 _ZN9__gnu_cxx13new_allocatorISt13_Rb_tree_nodeISt4pairIKNSt7__cxx1112basic_stringIcSt11char_traitsIcESaIcEEEN9OptionSetI11OptionsPerlE6OptionEEEEC1Ev@Base 2.9
 _ZN9__gnu_cxx13new_allocatorISt13_Rb_tree_nodeISt4pairIKNSt7__cxx1112basic_stringIcSt11char_traitsIcESaIcEEEN9OptionSetI11OptionsPerlE6OptionEEEEC2Ev@Base 2.9
 _ZN9__gnu_cxx13new_allocatorISt13_Rb_tree_nodeISt4pairIKNSt7__cxx1112basic_stringIcSt11char_traitsIcESaIcEEEN9OptionSetI11OptionsPerlE6OptionEEEED1Ev@Base 2.9
 _ZN9__gnu_cxx13new_allocatorISt13_Rb_tree_nodeISt4pairIKNSt7__cxx1112basic_stringIcSt11char_traitsIcESaIcEEEN9OptionSetI11OptionsPerlE6OptionEEEED2Ev@Base 2.9
 _ZN9__gnu_cxx13new_allocatorISt13_Rb_tree_nodeISt4pairIKNSt7__cxx1112basic_stringIcSt11char_traitsIcESaIcEEEN9OptionSetI11OptionsRustE6OptionEEEE10deallocateEPSF_j@Base 2.9
 _ZN9__gnu_cxx13new_allocatorISt13_Rb_tree_nodeISt4pairIKNSt7__cxx1112basic_stringIcSt11char_traitsIcESaIcEEEN9OptionSetI11OptionsRustE6OptionEEEE7destroyISE_EEvPT_@Base 2.9.2+dfsg
 _ZN9__gnu_cxx13new_allocatorISt13_Rb_tree_nodeISt4pairIKNSt7__cxx1112basic_stringIcSt11char_traitsIcESaIcEEEN9OptionSetI11OptionsRustE6OptionEEEE8allocateEjPKv@Base 2.9
 _ZN9__gnu_cxx13new_allocatorISt13_Rb_tree_nodeISt4pairIKNSt7__cxx1112basic_stringIcSt11char_traitsIcESaIcEEEN9OptionSetI11OptionsRustE6OptionEEEE9constructISE_JRKSt21piecewise_construct_tSt5tupleIJOS8_EESL_IJEEEEEvPT_DpOT0_@Base 2.9.2+dfsg
 _ZN9__gnu_cxx13new_allocatorISt13_Rb_tree_nodeISt4pairIKNSt7__cxx1112basic_stringIcSt11char_traitsIcESaIcEEEN9OptionSetI11OptionsRustE6OptionEEEEC1Ev@Base 2.9
 _ZN9__gnu_cxx13new_allocatorISt13_Rb_tree_nodeISt4pairIKNSt7__cxx1112basic_stringIcSt11char_traitsIcESaIcEEEN9OptionSetI11OptionsRustE6OptionEEEEC2Ev@Base 2.9
 _ZN9__gnu_cxx13new_allocatorISt13_Rb_tree_nodeISt4pairIKNSt7__cxx1112basic_stringIcSt11char_traitsIcESaIcEEEN9OptionSetI11OptionsRustE6OptionEEEED1Ev@Base 2.9
 _ZN9__gnu_cxx13new_allocatorISt13_Rb_tree_nodeISt4pairIKNSt7__cxx1112basic_stringIcSt11char_traitsIcESaIcEEEN9OptionSetI11OptionsRustE6OptionEEEED2Ev@Base 2.9
 _ZN9__gnu_cxx13new_allocatorISt13_Rb_tree_nodeISt4pairIKNSt7__cxx1112basic_stringIcSt11char_traitsIcESaIcEEEN9OptionSetI12OptionsBasicE6OptionEEEE10deallocateEPSF_j@Base 2.9
 _ZN9__gnu_cxx13new_allocatorISt13_Rb_tree_nodeISt4pairIKNSt7__cxx1112basic_stringIcSt11char_traitsIcESaIcEEEN9OptionSetI12OptionsBasicE6OptionEEEE7destroyISE_EEvPT_@Base 2.9.2+dfsg
 _ZN9__gnu_cxx13new_allocatorISt13_Rb_tree_nodeISt4pairIKNSt7__cxx1112basic_stringIcSt11char_traitsIcESaIcEEEN9OptionSetI12OptionsBasicE6OptionEEEE8allocateEjPKv@Base 2.9
 _ZN9__gnu_cxx13new_allocatorISt13_Rb_tree_nodeISt4pairIKNSt7__cxx1112basic_stringIcSt11char_traitsIcESaIcEEEN9OptionSetI12OptionsBasicE6OptionEEEE9constructISE_JRKSt21piecewise_construct_tSt5tupleIJOS8_EESL_IJEEEEEvPT_DpOT0_@Base 2.9.2+dfsg
 _ZN9__gnu_cxx13new_allocatorISt13_Rb_tree_nodeISt4pairIKNSt7__cxx1112basic_stringIcSt11char_traitsIcESaIcEEEN9OptionSetI12OptionsBasicE6OptionEEEEC1Ev@Base 2.9
 _ZN9__gnu_cxx13new_allocatorISt13_Rb_tree_nodeISt4pairIKNSt7__cxx1112basic_stringIcSt11char_traitsIcESaIcEEEN9OptionSetI12OptionsBasicE6OptionEEEEC2Ev@Base 2.9
 _ZN9__gnu_cxx13new_allocatorISt13_Rb_tree_nodeISt4pairIKNSt7__cxx1112basic_stringIcSt11char_traitsIcESaIcEEEN9OptionSetI12OptionsBasicE6OptionEEEED1Ev@Base 2.9
 _ZN9__gnu_cxx13new_allocatorISt13_Rb_tree_nodeISt4pairIKNSt7__cxx1112basic_stringIcSt11char_traitsIcESaIcEEEN9OptionSetI12OptionsBasicE6OptionEEEED2Ev@Base 2.9
 _ZN9__gnu_cxx13new_allocatorISt13_Rb_tree_nodeISt4pairIKNSt7__cxx1112basic_stringIcSt11char_traitsIcESaIcEEEN9OptionSetI14OptionsHaskellE6OptionEEEE10deallocateEPSF_j@Base 2.9
 _ZN9__gnu_cxx13new_allocatorISt13_Rb_tree_nodeISt4pairIKNSt7__cxx1112basic_stringIcSt11char_traitsIcESaIcEEEN9OptionSetI14OptionsHaskellE6OptionEEEE7destroyISE_EEvPT_@Base 2.9.2+dfsg
 _ZN9__gnu_cxx13new_allocatorISt13_Rb_tree_nodeISt4pairIKNSt7__cxx1112basic_stringIcSt11char_traitsIcESaIcEEEN9OptionSetI14OptionsHaskellE6OptionEEEE8allocateEjPKv@Base 2.9
 _ZN9__gnu_cxx13new_allocatorISt13_Rb_tree_nodeISt4pairIKNSt7__cxx1112basic_stringIcSt11char_traitsIcESaIcEEEN9OptionSetI14OptionsHaskellE6OptionEEEE9constructISE_JRKSt21piecewise_construct_tSt5tupleIJOS8_EESL_IJEEEEEvPT_DpOT0_@Base 2.9.2+dfsg
 _ZN9__gnu_cxx13new_allocatorISt13_Rb_tree_nodeISt4pairIKNSt7__cxx1112basic_stringIcSt11char_traitsIcESaIcEEEN9OptionSetI14OptionsHaskellE6OptionEEEEC1Ev@Base 2.9
 _ZN9__gnu_cxx13new_allocatorISt13_Rb_tree_nodeISt4pairIKNSt7__cxx1112basic_stringIcSt11char_traitsIcESaIcEEEN9OptionSetI14OptionsHaskellE6OptionEEEEC2Ev@Base 2.9
 _ZN9__gnu_cxx13new_allocatorISt13_Rb_tree_nodeISt4pairIKNSt7__cxx1112basic_stringIcSt11char_traitsIcESaIcEEEN9OptionSetI14OptionsHaskellE6OptionEEEED1Ev@Base 2.9
 _ZN9__gnu_cxx13new_allocatorISt13_Rb_tree_nodeISt4pairIKNSt7__cxx1112basic_stringIcSt11char_traitsIcESaIcEEEN9OptionSetI14OptionsHaskellE6OptionEEEED2Ev@Base 2.9
 _ZN9__gnu_cxx13new_allocatorISt13_Rb_tree_nodeISt4pairIKNSt7__cxx1112basic_stringIcSt11char_traitsIcESaIcEEEN9OptionSetI15OptionsRegistryE6OptionEEEE10deallocateEPSF_j@Base 2.9
 _ZN9__gnu_cxx13new_allocatorISt13_Rb_tree_nodeISt4pairIKNSt7__cxx1112basic_stringIcSt11char_traitsIcESaIcEEEN9OptionSetI15OptionsRegistryE6OptionEEEE7destroyISE_EEvPT_@Base 2.9.2+dfsg
 _ZN9__gnu_cxx13new_allocatorISt13_Rb_tree_nodeISt4pairIKNSt7__cxx1112basic_stringIcSt11char_traitsIcESaIcEEEN9OptionSetI15OptionsRegistryE6OptionEEEE8allocateEjPKv@Base 2.9
 _ZN9__gnu_cxx13new_allocatorISt13_Rb_tree_nodeISt4pairIKNSt7__cxx1112basic_stringIcSt11char_traitsIcESaIcEEEN9OptionSetI15OptionsRegistryE6OptionEEEE9constructISE_JRKSt21piecewise_construct_tSt5tupleIJOS8_EESL_IJEEEEEvPT_DpOT0_@Base 2.9.2+dfsg
 _ZN9__gnu_cxx13new_allocatorISt13_Rb_tree_nodeISt4pairIKNSt7__cxx1112basic_stringIcSt11char_traitsIcESaIcEEEN9OptionSetI15OptionsRegistryE6OptionEEEEC1Ev@Base 2.9
 _ZN9__gnu_cxx13new_allocatorISt13_Rb_tree_nodeISt4pairIKNSt7__cxx1112basic_stringIcSt11char_traitsIcESaIcEEEN9OptionSetI15OptionsRegistryE6OptionEEEEC2Ev@Base 2.9
 _ZN9__gnu_cxx13new_allocatorISt13_Rb_tree_nodeISt4pairIKNSt7__cxx1112basic_stringIcSt11char_traitsIcESaIcEEEN9OptionSetI15OptionsRegistryE6OptionEEEED1Ev@Base 2.9
 _ZN9__gnu_cxx13new_allocatorISt13_Rb_tree_nodeISt4pairIKNSt7__cxx1112basic_stringIcSt11char_traitsIcESaIcEEEN9OptionSetI15OptionsRegistryE6OptionEEEED2Ev@Base 2.9
 _ZN9__gnu_cxx13new_allocatorISt13_Rb_tree_nodeISt4pairIKNSt7__cxx1112basic_stringIcSt11char_traitsIcESaIcEEEN9OptionSetI19OptionsVisualPrologE6OptionEEEE10deallocateEPSF_j@Base 2.9
 _ZN9__gnu_cxx13new_allocatorISt13_Rb_tree_nodeISt4pairIKNSt7__cxx1112basic_stringIcSt11char_traitsIcESaIcEEEN9OptionSetI19OptionsVisualPrologE6OptionEEEE7destroyISE_EEvPT_@Base 2.9.2+dfsg
 _ZN9__gnu_cxx13new_allocatorISt13_Rb_tree_nodeISt4pairIKNSt7__cxx1112basic_stringIcSt11char_traitsIcESaIcEEEN9OptionSetI19OptionsVisualPrologE6OptionEEEEC1Ev@Base 2.9
 _ZN9__gnu_cxx13new_allocatorISt13_Rb_tree_nodeISt4pairIKNSt7__cxx1112basic_stringIcSt11char_traitsIcESaIcEEEN9OptionSetI19OptionsVisualPrologE6OptionEEEEC2Ev@Base 2.9
 _ZN9__gnu_cxx13new_allocatorISt13_Rb_tree_nodeISt4pairIKNSt7__cxx1112basic_stringIcSt11char_traitsIcESaIcEEEN9OptionSetI19OptionsVisualPrologE6OptionEEEED1Ev@Base 2.9
 _ZN9__gnu_cxx13new_allocatorISt13_Rb_tree_nodeISt4pairIKNSt7__cxx1112basic_stringIcSt11char_traitsIcESaIcEEEN9OptionSetI19OptionsVisualPrologE6OptionEEEED2Ev@Base 2.9
 _ZN9__gnu_cxx13new_allocatorISt13_Rb_tree_nodeISt4pairIKNSt7__cxx1112basic_stringIcSt11char_traitsIcESaIcEEEN9OptionSetI8OptionsDE6OptionEEEE10deallocateEPSF_j@Base 2.9
 _ZN9__gnu_cxx13new_allocatorISt13_Rb_tree_nodeISt4pairIKNSt7__cxx1112basic_stringIcSt11char_traitsIcESaIcEEEN9OptionSetI8OptionsDE6OptionEEEE7destroyISE_EEvPT_@Base 2.9.2+dfsg
 _ZN9__gnu_cxx13new_allocatorISt13_Rb_tree_nodeISt4pairIKNSt7__cxx1112basic_stringIcSt11char_traitsIcESaIcEEEN9OptionSetI8OptionsDE6OptionEEEE8allocateEjPKv@Base 2.9
 _ZN9__gnu_cxx13new_allocatorISt13_Rb_tree_nodeISt4pairIKNSt7__cxx1112basic_stringIcSt11char_traitsIcESaIcEEEN9OptionSetI8OptionsDE6OptionEEEE9constructISE_JRKSt21piecewise_construct_tSt5tupleIJOS8_EESL_IJEEEEEvPT_DpOT0_@Base 2.9.2+dfsg
 _ZN9__gnu_cxx13new_allocatorISt13_Rb_tree_nodeISt4pairIKNSt7__cxx1112basic_stringIcSt11char_traitsIcESaIcEEEN9OptionSetI8OptionsDE6OptionEEEEC1Ev@Base 2.9
 _ZN9__gnu_cxx13new_allocatorISt13_Rb_tree_nodeISt4pairIKNSt7__cxx1112basic_stringIcSt11char_traitsIcESaIcEEEN9OptionSetI8OptionsDE6OptionEEEEC2Ev@Base 2.9
 _ZN9__gnu_cxx13new_allocatorISt13_Rb_tree_nodeISt4pairIKNSt7__cxx1112basic_stringIcSt11char_traitsIcESaIcEEEN9OptionSetI8OptionsDE6OptionEEEED1Ev@Base 2.9
 _ZN9__gnu_cxx13new_allocatorISt13_Rb_tree_nodeISt4pairIKNSt7__cxx1112basic_stringIcSt11char_traitsIcESaIcEEEN9OptionSetI8OptionsDE6OptionEEEED2Ev@Base 2.9
 _ZN9__gnu_cxx13new_allocatorISt13_Rb_tree_nodeISt4pairIKNSt7__cxx1112basic_stringIcSt11char_traitsIcESaIcEEES8_EEE10deallocateEPSB_j@Base 2.9
 _ZN9__gnu_cxx13new_allocatorISt13_Rb_tree_nodeISt4pairIKNSt7__cxx1112basic_stringIcSt11char_traitsIcESaIcEEES8_EEE7destroyISA_EEvPT_@Base 2.9.2+dfsg
 _ZN9__gnu_cxx13new_allocatorISt13_Rb_tree_nodeISt4pairIKNSt7__cxx1112basic_stringIcSt11char_traitsIcESaIcEEES8_EEE8allocateEjPKv@Base 2.9
 _ZN9__gnu_cxx13new_allocatorISt13_Rb_tree_nodeISt4pairIKNSt7__cxx1112basic_stringIcSt11char_traitsIcESaIcEEES8_EEE9constructISA_JRKSt21piecewise_construct_tSt5tupleIJOS8_EESH_IJEEEEEvPT_DpOT0_@Base 2.9.2+dfsg
 _ZN9__gnu_cxx13new_allocatorISt13_Rb_tree_nodeISt4pairIKNSt7__cxx1112basic_stringIcSt11char_traitsIcESaIcEEES8_EEE9constructISA_JRKSt21piecewise_construct_tSt5tupleIJRS9_EESH_IJEEEEEvPT_DpOT0_@Base 2.9.2+dfsg
 _ZN9__gnu_cxx13new_allocatorISt13_Rb_tree_nodeISt4pairIKNSt7__cxx1112basic_stringIcSt11char_traitsIcESaIcEEES8_EEEC1Ev@Base 2.9
 _ZN9__gnu_cxx13new_allocatorISt13_Rb_tree_nodeISt4pairIKNSt7__cxx1112basic_stringIcSt11char_traitsIcESaIcEEES8_EEEC2Ev@Base 2.9
 _ZN9__gnu_cxx13new_allocatorISt13_Rb_tree_nodeISt4pairIKNSt7__cxx1112basic_stringIcSt11char_traitsIcESaIcEEES8_EEED1Ev@Base 2.9
 _ZN9__gnu_cxx13new_allocatorISt13_Rb_tree_nodeISt4pairIKNSt7__cxx1112basic_stringIcSt11char_traitsIcESaIcEEES8_EEED2Ev@Base 2.9
 _ZN9__gnu_cxx13new_allocatorISt13_Rb_tree_nodeISt4pairIKNSt7__cxx1112basic_stringIcSt11char_traitsIcESaIcEEEiEEE10deallocateEPSB_j@Base 2.9
 _ZN9__gnu_cxx13new_allocatorISt13_Rb_tree_nodeISt4pairIKNSt7__cxx1112basic_stringIcSt11char_traitsIcESaIcEEEiEEE7destroyISA_EEvPT_@Base 2.9.2+dfsg
 _ZN9__gnu_cxx13new_allocatorISt13_Rb_tree_nodeISt4pairIKNSt7__cxx1112basic_stringIcSt11char_traitsIcESaIcEEEiEEE8allocateEjPKv@Base 2.9
 _ZN9__gnu_cxx13new_allocatorISt13_Rb_tree_nodeISt4pairIKNSt7__cxx1112basic_stringIcSt11char_traitsIcESaIcEEEiEEE9constructISA_JRKSt21piecewise_construct_tSt5tupleIJRS9_EESH_IJEEEEEvPT_DpOT0_@Base 2.9.2+dfsg
 _ZN9__gnu_cxx13new_allocatorISt13_Rb_tree_nodeISt4pairIKNSt7__cxx1112basic_stringIcSt11char_traitsIcESaIcEEEiEEEC1ERKSC_@Base 2.9
 _ZN9__gnu_cxx13new_allocatorISt13_Rb_tree_nodeISt4pairIKNSt7__cxx1112basic_stringIcSt11char_traitsIcESaIcEEEiEEEC1Ev@Base 2.9
 _ZN9__gnu_cxx13new_allocatorISt13_Rb_tree_nodeISt4pairIKNSt7__cxx1112basic_stringIcSt11char_traitsIcESaIcEEEiEEEC2ERKSC_@Base 2.9
 _ZN9__gnu_cxx13new_allocatorISt13_Rb_tree_nodeISt4pairIKNSt7__cxx1112basic_stringIcSt11char_traitsIcESaIcEEEiEEEC2Ev@Base 2.9
 _ZN9__gnu_cxx13new_allocatorISt13_Rb_tree_nodeISt4pairIKNSt7__cxx1112basic_stringIcSt11char_traitsIcESaIcEEEiEEED1Ev@Base 2.9
 _ZN9__gnu_cxx13new_allocatorISt13_Rb_tree_nodeISt4pairIKNSt7__cxx1112basic_stringIcSt11char_traitsIcESaIcEEEiEEED2Ev@Base 2.9
 _ZN9__gnu_cxx13new_allocatorISt13_Rb_tree_nodeISt4pairIKi14RepresentationEEE10deallocateEPS6_j@Base 2.9
 _ZN9__gnu_cxx13new_allocatorISt13_Rb_tree_nodeISt4pairIKi14RepresentationEEE7destroyIS5_EEvPT_@Base 2.9.2+dfsg
 _ZN9__gnu_cxx13new_allocatorISt13_Rb_tree_nodeISt4pairIKi14RepresentationEEE8allocateEjPKv@Base 2.9
 _ZN9__gnu_cxx13new_allocatorISt13_Rb_tree_nodeISt4pairIKi14RepresentationEEE9constructIS5_JRKSt21piecewise_construct_tSt5tupleIJOiEESC_IJEEEEEvPT_DpOT0_@Base 2.9.2+dfsg
 _ZN9__gnu_cxx13new_allocatorISt13_Rb_tree_nodeISt4pairIKi14RepresentationEEEC1Ev@Base 2.8.4
 _ZN9__gnu_cxx13new_allocatorISt13_Rb_tree_nodeISt4pairIKi14RepresentationEEEC2Ev@Base 2.8.4
 _ZN9__gnu_cxx13new_allocatorISt13_Rb_tree_nodeISt4pairIKi14RepresentationEEED1Ev@Base 2.8.4
 _ZN9__gnu_cxx13new_allocatorISt13_Rb_tree_nodeISt4pairIKi14RepresentationEEED2Ev@Base 2.8.4
 _ZN9__gnu_cxx13new_allocatorISt13_Rb_tree_nodeISt4pairIKiiEEE10deallocateEPS5_j@Base 2.9
 _ZN9__gnu_cxx13new_allocatorISt13_Rb_tree_nodeISt4pairIKiiEEE7destroyIS4_EEvPT_@Base 2.9.2+dfsg
 _ZN9__gnu_cxx13new_allocatorISt13_Rb_tree_nodeISt4pairIKiiEEE8allocateEjPKv@Base 2.9
 _ZN9__gnu_cxx13new_allocatorISt13_Rb_tree_nodeISt4pairIKiiEEE9constructIS4_JRKSt21piecewise_construct_tSt5tupleIJRS3_EESB_IJEEEEEvPT_DpOT0_@Base 2.9.2+dfsg
 _ZN9__gnu_cxx13new_allocatorISt13_Rb_tree_nodeISt4pairIKiiEEEC1Ev@Base 2.9
 _ZN9__gnu_cxx13new_allocatorISt13_Rb_tree_nodeISt4pairIKiiEEEC2Ev@Base 2.9
 _ZN9__gnu_cxx13new_allocatorISt13_Rb_tree_nodeISt4pairIKiiEEED1Ev@Base 2.9
 _ZN9__gnu_cxx13new_allocatorISt13_Rb_tree_nodeISt4pairIKiiEEED2Ev@Base 2.9
 _ZN9__gnu_cxx13new_allocatorIcE10deallocateEPcj@Base 2.9
 _ZN9__gnu_cxx13new_allocatorIcE8allocateEjPKv@Base 2.9
 _ZN9__gnu_cxx13new_allocatorIiE10deallocateEPij@Base 2.9
 _ZN9__gnu_cxx13new_allocatorIiE7destroyIiEEvPT_@Base 2.9.2+dfsg
 _ZN9__gnu_cxx13new_allocatorIiE8allocateEjPKv@Base 2.9
 _ZN9__gnu_cxx13new_allocatorIiE9constructIiJRKiEEEvPT_DpOT0_@Base 2.9.2+dfsg
 _ZN9__gnu_cxx13new_allocatorIiE9constructIiJiEEEvPT_DpOT0_@Base 2.9.2+dfsg
 _ZN9__gnu_cxx13new_allocatorIiEC1ERKS1_@Base 2.8.4
 _ZN9__gnu_cxx13new_allocatorIiEC1Ev@Base 2.8.4
 _ZN9__gnu_cxx13new_allocatorIiEC2ERKS1_@Base 2.8.4
 _ZN9__gnu_cxx13new_allocatorIiEC2Ev@Base 2.8.4
 _ZN9__gnu_cxx13new_allocatorIiED1Ev@Base 2.8.4
 _ZN9__gnu_cxx13new_allocatorIiED2Ev@Base 2.8.4
 _ZN9__gnu_cxx14__alloc_traitsISaI14SelectionRangeEE15_S_always_equalEv@Base 2.9.2+dfsg
 _ZN9__gnu_cxx14__alloc_traitsISaI14SelectionRangeEE17_S_select_on_copyERKS2_@Base 2.8.4
 _ZN9__gnu_cxx14__alloc_traitsISaI14SelectionRangeEE27_S_propagate_on_copy_assignEv@Base 2.9.2+dfsg
 _ZN9__gnu_cxx14__alloc_traitsISaISt13_Rb_tree_nodeISt4pairIKNSt7__cxx1112basic_stringIcSt11char_traitsIcESaIcEEEN12LexerVerilog11SymbolValueEEEEE17_S_select_on_copyERKSE_@Base 2.9
 _ZN9__gnu_cxx14__alloc_traitsISaISt13_Rb_tree_nodeISt4pairIKNSt7__cxx1112basic_stringIcSt11char_traitsIcESaIcEEEN8LexerCPP11SymbolValueEEEEE17_S_select_on_copyERKSE_@Base 2.9
 _ZN9__gnu_cxx14__alloc_traitsISaIiEE17_S_select_on_copyERKS1_@Base 2.8.4
 _ZN9__gnu_cxx16__aligned_membufISt4pairIK12KeyModifiersjEE6_M_ptrEv@Base 2.9.2+dfsg
 _ZN9__gnu_cxx16__aligned_membufISt4pairIK12KeyModifiersjEE7_M_addrEv@Base 2.9.2+dfsg
 _ZN9__gnu_cxx16__aligned_membufISt4pairIK12KeyModifiersjEEC1Ev@Base 2.9.2+dfsg
 _ZN9__gnu_cxx16__aligned_membufISt4pairIK12KeyModifiersjEEC2Ev@Base 2.9.2+dfsg
 _ZN9__gnu_cxx16__aligned_membufISt4pairIK17FontSpecificationP12FontRealisedEE6_M_ptrEv@Base 2.9.2+dfsg
 _ZN9__gnu_cxx16__aligned_membufISt4pairIK17FontSpecificationP12FontRealisedEE7_M_addrEv@Base 2.9.2+dfsg
 _ZN9__gnu_cxx16__aligned_membufISt4pairIK17FontSpecificationP12FontRealisedEEC1Ev@Base 2.9.2+dfsg
 _ZN9__gnu_cxx16__aligned_membufISt4pairIK17FontSpecificationP12FontRealisedEEC2Ev@Base 2.9.2+dfsg
 _ZN9__gnu_cxx16__aligned_membufISt4pairIKNSt7__cxx1112basic_stringIcSt11char_traitsIcESaIcEEEN12LexerVerilog11SymbolValueEEE6_M_ptrEv@Base 2.9.2+dfsg
 _ZN9__gnu_cxx16__aligned_membufISt4pairIKNSt7__cxx1112basic_stringIcSt11char_traitsIcESaIcEEEN12LexerVerilog11SymbolValueEEE7_M_addrEv@Base 2.9.2+dfsg
 _ZN9__gnu_cxx16__aligned_membufISt4pairIKNSt7__cxx1112basic_stringIcSt11char_traitsIcESaIcEEEN12LexerVerilog11SymbolValueEEEC1Ev@Base 2.9.2+dfsg
 _ZN9__gnu_cxx16__aligned_membufISt4pairIKNSt7__cxx1112basic_stringIcSt11char_traitsIcESaIcEEEN12LexerVerilog11SymbolValueEEEC2Ev@Base 2.9.2+dfsg
 _ZN9__gnu_cxx16__aligned_membufISt4pairIKNSt7__cxx1112basic_stringIcSt11char_traitsIcESaIcEEEN8LexerCPP11SymbolValueEEE6_M_ptrEv@Base 2.9.2+dfsg
 _ZN9__gnu_cxx16__aligned_membufISt4pairIKNSt7__cxx1112basic_stringIcSt11char_traitsIcESaIcEEEN8LexerCPP11SymbolValueEEE7_M_addrEv@Base 2.9.2+dfsg
 _ZN9__gnu_cxx16__aligned_membufISt4pairIKNSt7__cxx1112basic_stringIcSt11char_traitsIcESaIcEEEN8LexerCPP11SymbolValueEEEC1Ev@Base 2.9.2+dfsg
 _ZN9__gnu_cxx16__aligned_membufISt4pairIKNSt7__cxx1112basic_stringIcSt11char_traitsIcESaIcEEEN8LexerCPP11SymbolValueEEEC2Ev@Base 2.9.2+dfsg
 _ZN9__gnu_cxx16__aligned_membufISt4pairIKNSt7__cxx1112basic_stringIcSt11char_traitsIcESaIcEEEN9OptionSetI10OptionsAsmE6OptionEEE6_M_ptrEv@Base 2.9.2+dfsg
 _ZN9__gnu_cxx16__aligned_membufISt4pairIKNSt7__cxx1112basic_stringIcSt11char_traitsIcESaIcEEEN9OptionSetI10OptionsAsmE6OptionEEE7_M_addrEv@Base 2.9.2+dfsg
 _ZN9__gnu_cxx16__aligned_membufISt4pairIKNSt7__cxx1112basic_stringIcSt11char_traitsIcESaIcEEEN9OptionSetI10OptionsAsmE6OptionEEEC1Ev@Base 2.9.2+dfsg
 _ZN9__gnu_cxx16__aligned_membufISt4pairIKNSt7__cxx1112basic_stringIcSt11char_traitsIcESaIcEEEN9OptionSetI10OptionsAsmE6OptionEEEC2Ev@Base 2.9.2+dfsg
 _ZN9__gnu_cxx16__aligned_membufISt4pairIKNSt7__cxx1112basic_stringIcSt11char_traitsIcESaIcEEEN9OptionSetI10OptionsSQLE6OptionEEE6_M_ptrEv@Base 2.9.2+dfsg
 _ZN9__gnu_cxx16__aligned_membufISt4pairIKNSt7__cxx1112basic_stringIcSt11char_traitsIcESaIcEEEN9OptionSetI10OptionsSQLE6OptionEEE7_M_addrEv@Base 2.9.2+dfsg
 _ZN9__gnu_cxx16__aligned_membufISt4pairIKNSt7__cxx1112basic_stringIcSt11char_traitsIcESaIcEEEN9OptionSetI10OptionsSQLE6OptionEEEC1Ev@Base 2.9.2+dfsg
 _ZN9__gnu_cxx16__aligned_membufISt4pairIKNSt7__cxx1112basic_stringIcSt11char_traitsIcESaIcEEEN9OptionSetI10OptionsSQLE6OptionEEEC2Ev@Base 2.9.2+dfsg
 _ZN9__gnu_cxx16__aligned_membufISt4pairIKNSt7__cxx1112basic_stringIcSt11char_traitsIcESaIcEEEN9OptionSetI11OptionsPerlE6OptionEEE6_M_ptrEv@Base 2.9.2+dfsg
 _ZN9__gnu_cxx16__aligned_membufISt4pairIKNSt7__cxx1112basic_stringIcSt11char_traitsIcESaIcEEEN9OptionSetI11OptionsPerlE6OptionEEE7_M_addrEv@Base 2.9.2+dfsg
 _ZN9__gnu_cxx16__aligned_membufISt4pairIKNSt7__cxx1112basic_stringIcSt11char_traitsIcESaIcEEEN9OptionSetI11OptionsPerlE6OptionEEEC1Ev@Base 2.9.2+dfsg
 _ZN9__gnu_cxx16__aligned_membufISt4pairIKNSt7__cxx1112basic_stringIcSt11char_traitsIcESaIcEEEN9OptionSetI11OptionsPerlE6OptionEEEC2Ev@Base 2.9.2+dfsg
 _ZN9__gnu_cxx16__aligned_membufISt4pairIKNSt7__cxx1112basic_stringIcSt11char_traitsIcESaIcEEEN9OptionSetI11OptionsRustE6OptionEEE6_M_ptrEv@Base 2.9.2+dfsg
 _ZN9__gnu_cxx16__aligned_membufISt4pairIKNSt7__cxx1112basic_stringIcSt11char_traitsIcESaIcEEEN9OptionSetI11OptionsRustE6OptionEEE7_M_addrEv@Base 2.9.2+dfsg
 _ZN9__gnu_cxx16__aligned_membufISt4pairIKNSt7__cxx1112basic_stringIcSt11char_traitsIcESaIcEEEN9OptionSetI11OptionsRustE6OptionEEEC1Ev@Base 2.9.2+dfsg
 _ZN9__gnu_cxx16__aligned_membufISt4pairIKNSt7__cxx1112basic_stringIcSt11char_traitsIcESaIcEEEN9OptionSetI11OptionsRustE6OptionEEEC2Ev@Base 2.9.2+dfsg
 _ZN9__gnu_cxx16__aligned_membufISt4pairIKNSt7__cxx1112basic_stringIcSt11char_traitsIcESaIcEEEN9OptionSetI12OptionsBasicE6OptionEEE6_M_ptrEv@Base 2.9.2+dfsg
 _ZN9__gnu_cxx16__aligned_membufISt4pairIKNSt7__cxx1112basic_stringIcSt11char_traitsIcESaIcEEEN9OptionSetI12OptionsBasicE6OptionEEE7_M_addrEv@Base 2.9.2+dfsg
 _ZN9__gnu_cxx16__aligned_membufISt4pairIKNSt7__cxx1112basic_stringIcSt11char_traitsIcESaIcEEEN9OptionSetI12OptionsBasicE6OptionEEEC1Ev@Base 2.9.2+dfsg
 _ZN9__gnu_cxx16__aligned_membufISt4pairIKNSt7__cxx1112basic_stringIcSt11char_traitsIcESaIcEEEN9OptionSetI12OptionsBasicE6OptionEEEC2Ev@Base 2.9.2+dfsg
 _ZN9__gnu_cxx16__aligned_membufISt4pairIKNSt7__cxx1112basic_stringIcSt11char_traitsIcESaIcEEEN9OptionSetI14OptionsHaskellE6OptionEEE6_M_ptrEv@Base 2.9.2+dfsg
 _ZN9__gnu_cxx16__aligned_membufISt4pairIKNSt7__cxx1112basic_stringIcSt11char_traitsIcESaIcEEEN9OptionSetI14OptionsHaskellE6OptionEEE7_M_addrEv@Base 2.9.2+dfsg
 _ZN9__gnu_cxx16__aligned_membufISt4pairIKNSt7__cxx1112basic_stringIcSt11char_traitsIcESaIcEEEN9OptionSetI14OptionsHaskellE6OptionEEEC1Ev@Base 2.9.2+dfsg
 _ZN9__gnu_cxx16__aligned_membufISt4pairIKNSt7__cxx1112basic_stringIcSt11char_traitsIcESaIcEEEN9OptionSetI14OptionsHaskellE6OptionEEEC2Ev@Base 2.9.2+dfsg
 _ZN9__gnu_cxx16__aligned_membufISt4pairIKNSt7__cxx1112basic_stringIcSt11char_traitsIcESaIcEEEN9OptionSetI15OptionsRegistryE6OptionEEE6_M_ptrEv@Base 2.9.2+dfsg
 _ZN9__gnu_cxx16__aligned_membufISt4pairIKNSt7__cxx1112basic_stringIcSt11char_traitsIcESaIcEEEN9OptionSetI15OptionsRegistryE6OptionEEE7_M_addrEv@Base 2.9.2+dfsg
 _ZN9__gnu_cxx16__aligned_membufISt4pairIKNSt7__cxx1112basic_stringIcSt11char_traitsIcESaIcEEEN9OptionSetI15OptionsRegistryE6OptionEEEC1Ev@Base 2.9.2+dfsg
 _ZN9__gnu_cxx16__aligned_membufISt4pairIKNSt7__cxx1112basic_stringIcSt11char_traitsIcESaIcEEEN9OptionSetI15OptionsRegistryE6OptionEEEC2Ev@Base 2.9.2+dfsg
 _ZN9__gnu_cxx16__aligned_membufISt4pairIKNSt7__cxx1112basic_stringIcSt11char_traitsIcESaIcEEEN9OptionSetI19OptionsVisualPrologE6OptionEEE6_M_ptrEv@Base 2.9.2+dfsg
 _ZN9__gnu_cxx16__aligned_membufISt4pairIKNSt7__cxx1112basic_stringIcSt11char_traitsIcESaIcEEEN9OptionSetI19OptionsVisualPrologE6OptionEEE7_M_addrEv@Base 2.9.2+dfsg
 _ZN9__gnu_cxx16__aligned_membufISt4pairIKNSt7__cxx1112basic_stringIcSt11char_traitsIcESaIcEEEN9OptionSetI8OptionsDE6OptionEEE6_M_ptrEv@Base 2.9.2+dfsg
 _ZN9__gnu_cxx16__aligned_membufISt4pairIKNSt7__cxx1112basic_stringIcSt11char_traitsIcESaIcEEEN9OptionSetI8OptionsDE6OptionEEE7_M_addrEv@Base 2.9.2+dfsg
 _ZN9__gnu_cxx16__aligned_membufISt4pairIKNSt7__cxx1112basic_stringIcSt11char_traitsIcESaIcEEEN9OptionSetI8OptionsDE6OptionEEEC1Ev@Base 2.9.2+dfsg
 _ZN9__gnu_cxx16__aligned_membufISt4pairIKNSt7__cxx1112basic_stringIcSt11char_traitsIcESaIcEEEN9OptionSetI8OptionsDE6OptionEEEC2Ev@Base 2.9.2+dfsg
 _ZN9__gnu_cxx16__aligned_membufISt4pairIKNSt7__cxx1112basic_stringIcSt11char_traitsIcESaIcEEES7_EE6_M_ptrEv@Base 2.9.2+dfsg
 _ZN9__gnu_cxx16__aligned_membufISt4pairIKNSt7__cxx1112basic_stringIcSt11char_traitsIcESaIcEEES7_EE7_M_addrEv@Base 2.9.2+dfsg
 _ZN9__gnu_cxx16__aligned_membufISt4pairIKNSt7__cxx1112basic_stringIcSt11char_traitsIcESaIcEEES7_EEC1Ev@Base 2.9.2+dfsg
 _ZN9__gnu_cxx16__aligned_membufISt4pairIKNSt7__cxx1112basic_stringIcSt11char_traitsIcESaIcEEES7_EEC2Ev@Base 2.9.2+dfsg
 _ZN9__gnu_cxx16__aligned_membufISt4pairIKNSt7__cxx1112basic_stringIcSt11char_traitsIcESaIcEEEiEE6_M_ptrEv@Base 2.9.2+dfsg
 _ZN9__gnu_cxx16__aligned_membufISt4pairIKNSt7__cxx1112basic_stringIcSt11char_traitsIcESaIcEEEiEE7_M_addrEv@Base 2.9.2+dfsg
 _ZN9__gnu_cxx16__aligned_membufISt4pairIKNSt7__cxx1112basic_stringIcSt11char_traitsIcESaIcEEEiEEC1Ev@Base 2.9.2+dfsg
 _ZN9__gnu_cxx16__aligned_membufISt4pairIKNSt7__cxx1112basic_stringIcSt11char_traitsIcESaIcEEEiEEC2Ev@Base 2.9.2+dfsg
 _ZN9__gnu_cxx16__aligned_membufISt4pairIKi14RepresentationEE6_M_ptrEv@Base 2.9.2+dfsg
 _ZN9__gnu_cxx16__aligned_membufISt4pairIKi14RepresentationEE7_M_addrEv@Base 2.9.2+dfsg
 _ZN9__gnu_cxx16__aligned_membufISt4pairIKi14RepresentationEEC1Ev@Base 2.9.2+dfsg
 _ZN9__gnu_cxx16__aligned_membufISt4pairIKi14RepresentationEEC2Ev@Base 2.9.2+dfsg
 _ZN9__gnu_cxx16__aligned_membufISt4pairIKiiEE6_M_ptrEv@Base 2.9.2+dfsg
 _ZN9__gnu_cxx16__aligned_membufISt4pairIKiiEE7_M_addrEv@Base 2.9.2+dfsg
 _ZN9__gnu_cxx16__aligned_membufISt4pairIKiiEEC1Ev@Base 2.9.2+dfsg
 _ZN9__gnu_cxx16__aligned_membufISt4pairIKiiEEC2Ev@Base 2.9.2+dfsg
 _ZN9__gnu_cxx17__normal_iteratorIP14SelectionRangeSt6vectorIS1_SaIS1_EEEC1ERKS2_@Base 2.8.4
 _ZN9__gnu_cxx17__normal_iteratorIP14SelectionRangeSt6vectorIS1_SaIS1_EEEC2ERKS2_@Base 2.8.4
 _ZN9__gnu_cxx17__normal_iteratorIP14SelectionRangeSt6vectorIS1_SaIS1_EEEmmEv@Base 2.8.4
 _ZN9__gnu_cxx17__normal_iteratorIP14SelectionRangeSt6vectorIS1_SaIS1_EEEppEv@Base 2.8.4
 _ZN9__gnu_cxx17__normal_iteratorIP14WordClassifierSt6vectorIS1_SaIS1_EEEC1ERKS2_@Base 2.8.4
 _ZN9__gnu_cxx17__normal_iteratorIP14WordClassifierSt6vectorIS1_SaIS1_EEEC2ERKS2_@Base 2.8.4
 _ZN9__gnu_cxx17__normal_iteratorIP14WordClassifierSt6vectorIS1_SaIS1_EEEppEv@Base 2.8.4
 _ZN9__gnu_cxx17__normal_iteratorIP9DrawPhaseSt6vectorIS1_SaIS1_EEEC1ERKS2_@Base 2.9
 _ZN9__gnu_cxx17__normal_iteratorIP9DrawPhaseSt6vectorIS1_SaIS1_EEEC2ERKS2_@Base 2.9
 _ZN9__gnu_cxx17__normal_iteratorIP9DrawPhaseSt6vectorIS1_SaIS1_EEEppEv@Base 2.9
 _ZN9__gnu_cxx17__normal_iteratorIPK14SelectionRangeSt6vectorIS1_SaIS1_EEEC1ERKS3_@Base 2.8.4
 _ZN9__gnu_cxx17__normal_iteratorIPK14SelectionRangeSt6vectorIS1_SaIS1_EEEC1IPS1_EERKNS0_IT_NS_11__enable_ifIXsrSt10__are_sameISA_S9_E7__valueES6_E6__typeEEE@Base 2.9.2+dfsg
 _ZN9__gnu_cxx17__normal_iteratorIPK14SelectionRangeSt6vectorIS1_SaIS1_EEEC2ERKS3_@Base 2.8.4
 _ZN9__gnu_cxx17__normal_iteratorIPK14SelectionRangeSt6vectorIS1_SaIS1_EEEC2IPS1_EERKNS0_IT_NS_11__enable_ifIXsrSt10__are_sameISA_S9_E7__valueES6_E6__typeEEE@Base 2.9.2+dfsg
 _ZN9__gnu_cxx17__normal_iteratorIPK14SelectionRangeSt6vectorIS1_SaIS1_EEEppEv@Base 2.8.4
 _ZN9__gnu_cxx17__normal_iteratorIPK14WordClassifierSt6vectorIS1_SaIS1_EEEC1ERKS3_@Base 2.8.4
 _ZN9__gnu_cxx17__normal_iteratorIPK14WordClassifierSt6vectorIS1_SaIS1_EEEC2ERKS3_@Base 2.8.4
 _ZN9__gnu_cxx17__normal_iteratorIPK14WordClassifierSt6vectorIS1_SaIS1_EEEppEv@Base 2.8.4
 _ZN9__gnu_cxx17__normal_iteratorIPK18PositionCacheEntrySt6vectorIS1_SaIS1_EEEC1ERKS3_@Base 2.8.4
 _ZN9__gnu_cxx17__normal_iteratorIPK18PositionCacheEntrySt6vectorIS1_SaIS1_EEEC2ERKS3_@Base 2.8.4
 _ZN9__gnu_cxx17__normal_iteratorIPKN11SparseStateINSt7__cxx1112basic_stringIcSt11char_traitsIcESaIcEEEE5StateESt6vectorIS9_SaIS9_EEEC1ERKSB_@Base 2.9
 _ZN9__gnu_cxx17__normal_iteratorIPKN11SparseStateINSt7__cxx1112basic_stringIcSt11char_traitsIcESaIcEEEE5StateESt6vectorIS9_SaIS9_EEEC1IPS9_EERKNS0_IT_NS_11__enable_ifIXsrSt10__are_sameISI_SH_E7__valueESE_E6__typeEEE@Base 2.9.2+dfsg
 _ZN9__gnu_cxx17__normal_iteratorIPKN11SparseStateINSt7__cxx1112basic_stringIcSt11char_traitsIcESaIcEEEE5StateESt6vectorIS9_SaIS9_EEEC2ERKSB_@Base 2.9
 _ZN9__gnu_cxx17__normal_iteratorIPKN11SparseStateINSt7__cxx1112basic_stringIcSt11char_traitsIcESaIcEEEE5StateESt6vectorIS9_SaIS9_EEEC2IPS9_EERKNS0_IT_NS_11__enable_ifIXsrSt10__are_sameISI_SH_E7__valueESE_E6__typeEEE@Base 2.9.2+dfsg
 _ZN9__gnu_cxx17__normal_iteratorIPKN11SparseStateINSt7__cxx1112basic_stringIcSt11char_traitsIcESaIcEEEE5StateESt6vectorIS9_SaIS9_EEEpLEi@Base 2.9
 _ZN9__gnu_cxx17__normal_iteratorIPKN11SparseStateINSt7__cxx1112basic_stringIcSt11char_traitsIcESaIcEEEE5StateESt6vectorIS9_SaIS9_EEEppEv@Base 2.9
 _ZN9__gnu_cxx17__normal_iteratorIPKN11SparseStateIjE5StateESt6vectorIS3_SaIS3_EEEC1ERKS5_@Base 2.8.4
 _ZN9__gnu_cxx17__normal_iteratorIPKN11SparseStateIjE5StateESt6vectorIS3_SaIS3_EEEC1IPS3_EERKNS0_IT_NS_11__enable_ifIXsrSt10__are_sameISC_SB_E7__valueES8_E6__typeEEE@Base 2.9.2+dfsg
 _ZN9__gnu_cxx17__normal_iteratorIPKN11SparseStateIjE5StateESt6vectorIS3_SaIS3_EEEC2ERKS5_@Base 2.8.4
 _ZN9__gnu_cxx17__normal_iteratorIPKN11SparseStateIjE5StateESt6vectorIS3_SaIS3_EEEC2IPS3_EERKNS0_IT_NS_11__enable_ifIXsrSt10__are_sameISC_SB_E7__valueES8_E6__typeEEE@Base 2.9.2+dfsg
 _ZN9__gnu_cxx17__normal_iteratorIPKN8Document19WatcherWithUserDataESt6vectorIS2_SaIS2_EEEC1ERKS4_@Base 2.9.2+dfsg
 _ZN9__gnu_cxx17__normal_iteratorIPKN8Document19WatcherWithUserDataESt6vectorIS2_SaIS2_EEEC1IPS2_EERKNS0_IT_NS_11__enable_ifIXsrSt10__are_sameISB_SA_E7__valueES7_E6__typeEEE@Base 2.9.2+dfsg
 _ZN9__gnu_cxx17__normal_iteratorIPKN8Document19WatcherWithUserDataESt6vectorIS2_SaIS2_EEEC2ERKS4_@Base 2.9.2+dfsg
 _ZN9__gnu_cxx17__normal_iteratorIPKN8Document19WatcherWithUserDataESt6vectorIS2_SaIS2_EEEC2IPS2_EERKNS0_IT_NS_11__enable_ifIXsrSt10__are_sameISB_SA_E7__valueES7_E6__typeEEE@Base 2.9.2+dfsg
 _ZN9__gnu_cxx17__normal_iteratorIPKNSt7__cxx1112basic_stringIcSt11char_traitsIcESaIcEEESt6vectorIS6_SaIS6_EEEC1ERKS8_@Base 2.9
 _ZN9__gnu_cxx17__normal_iteratorIPKNSt7__cxx1112basic_stringIcSt11char_traitsIcESaIcEEESt6vectorIS6_SaIS6_EEEC1IPS6_EERKNS0_IT_NS_11__enable_ifIXsrSt10__are_sameISF_SE_E7__valueESB_E6__typeEEE@Base 2.9.2+dfsg
 _ZN9__gnu_cxx17__normal_iteratorIPKNSt7__cxx1112basic_stringIcSt11char_traitsIcESaIcEEESt6vectorIS6_SaIS6_EEEC2ERKS8_@Base 2.9
 _ZN9__gnu_cxx17__normal_iteratorIPKNSt7__cxx1112basic_stringIcSt11char_traitsIcESaIcEEESt6vectorIS6_SaIS6_EEEC2IPS6_EERKNS0_IT_NS_11__enable_ifIXsrSt10__are_sameISF_SE_E7__valueESB_E6__typeEEE@Base 2.9.2+dfsg
 _ZN9__gnu_cxx17__normal_iteratorIPKP10LineLayoutSt6vectorIS2_SaIS2_EEEC1ERKS4_@Base 2.8.4
 _ZN9__gnu_cxx17__normal_iteratorIPKP10LineLayoutSt6vectorIS2_SaIS2_EEEC2ERKS4_@Base 2.8.4
 _ZN9__gnu_cxx17__normal_iteratorIPKPcSt6vectorIS1_SaIS1_EEEC1IPS1_EERKNS0_IT_NS_11__enable_ifIXsrSt10__are_sameISA_S9_E7__valueES6_E6__typeEEE@Base 2.8.4
 _ZN9__gnu_cxx17__normal_iteratorIPKPcSt6vectorIS1_SaIS1_EEEC2IPS1_EERKNS0_IT_NS_11__enable_ifIXsrSt10__are_sameISA_S9_E7__valueES6_E6__typeEEE@Base 2.8.4
 _ZN9__gnu_cxx17__normal_iteratorIPKPcSt6vectorIS1_SaIS1_EEEppEv@Base 2.8.4
 _ZN9__gnu_cxx17__normal_iteratorIPKcNSt7__cxx1112basic_stringIcSt11char_traitsIcESaIcEEEEppEv@Base 2.9
 _ZN9__gnu_cxx17__normal_iteratorIPKiSt6vectorIiSaIiEEEC1ERKS2_@Base 2.8.4
 _ZN9__gnu_cxx17__normal_iteratorIPKiSt6vectorIiSaIiEEEC1IPiEERKNS0_IT_NS_11__enable_ifIXsrSt10__are_sameIS9_S8_E7__valueES5_E6__typeEEE@Base 2.9.2+dfsg
 _ZN9__gnu_cxx17__normal_iteratorIPKiSt6vectorIiSaIiEEEC2ERKS2_@Base 2.8.4
 _ZN9__gnu_cxx17__normal_iteratorIPKiSt6vectorIiSaIiEEEC2IPiEERKNS0_IT_NS_11__enable_ifIXsrSt10__are_sameIS9_S8_E7__valueES5_E6__typeEEE@Base 2.9.2+dfsg
 _ZN9__gnu_cxx17__normal_iteratorIPN11SparseStateINSt7__cxx1112basic_stringIcSt11char_traitsIcESaIcEEEE5StateESt6vectorIS9_SaIS9_EEEC1ERKSA_@Base 2.9
 _ZN9__gnu_cxx17__normal_iteratorIPN11SparseStateINSt7__cxx1112basic_stringIcSt11char_traitsIcESaIcEEEE5StateESt6vectorIS9_SaIS9_EEEC2ERKSA_@Base 2.9
 _ZN9__gnu_cxx17__normal_iteratorIPN11SparseStateINSt7__cxx1112basic_stringIcSt11char_traitsIcESaIcEEEE5StateESt6vectorIS9_SaIS9_EEEmmEv@Base 2.9
 _ZN9__gnu_cxx17__normal_iteratorIPN11SparseStateINSt7__cxx1112basic_stringIcSt11char_traitsIcESaIcEEEE5StateESt6vectorIS9_SaIS9_EEEpLEi@Base 2.9
 _ZN9__gnu_cxx17__normal_iteratorIPN11SparseStateINSt7__cxx1112basic_stringIcSt11char_traitsIcESaIcEEEE5StateESt6vectorIS9_SaIS9_EEEppEv@Base 2.9
 _ZN9__gnu_cxx17__normal_iteratorIPN11SparseStateIjE5StateESt6vectorIS3_SaIS3_EEEC1ERKS4_@Base 2.8.4
 _ZN9__gnu_cxx17__normal_iteratorIPN11SparseStateIjE5StateESt6vectorIS3_SaIS3_EEEC2ERKS4_@Base 2.8.4
 _ZN9__gnu_cxx17__normal_iteratorIPN11SparseStateIjE5StateESt6vectorIS3_SaIS3_EEEmmEv@Base 2.8.4
 _ZN9__gnu_cxx17__normal_iteratorIPN11SparseStateIjE5StateESt6vectorIS3_SaIS3_EEEpLEi@Base 2.9
 _ZN9__gnu_cxx17__normal_iteratorIPN11SparseStateIjE5StateESt6vectorIS3_SaIS3_EEEppEv@Base 2.8.4
 _ZN9__gnu_cxx17__normal_iteratorIPN8Document19WatcherWithUserDataESt6vectorIS2_SaIS2_EEEC1ERKS3_@Base 2.8.4
 _ZN9__gnu_cxx17__normal_iteratorIPN8Document19WatcherWithUserDataESt6vectorIS2_SaIS2_EEEC2ERKS3_@Base 2.8.4
 _ZN9__gnu_cxx17__normal_iteratorIPN8Document19WatcherWithUserDataESt6vectorIS2_SaIS2_EEEppEv@Base 2.8.4
 _ZN9__gnu_cxx17__normal_iteratorIPNSt7__cxx1112basic_stringIcSt11char_traitsIcESaIcEEESt6vectorIS6_SaIS6_EEEC1ERKS7_@Base 2.9
 _ZN9__gnu_cxx17__normal_iteratorIPNSt7__cxx1112basic_stringIcSt11char_traitsIcESaIcEEESt6vectorIS6_SaIS6_EEEC2ERKS7_@Base 2.9
 _ZN9__gnu_cxx17__normal_iteratorIPNSt7__cxx1112basic_stringIcSt11char_traitsIcESaIcEEESt6vectorIS6_SaIS6_EEEpLEi@Base 2.9
 _ZN9__gnu_cxx17__normal_iteratorIPNSt7__cxx1112basic_stringIcSt11char_traitsIcESaIcEEESt6vectorIS6_SaIS6_EEEppEv@Base 2.9
 _ZN9__gnu_cxx17__normal_iteratorIPP11LexerModuleSt6vectorIS2_SaIS2_EEEC1ERKS3_@Base 2.8.4
 _ZN9__gnu_cxx17__normal_iteratorIPP11LexerModuleSt6vectorIS2_SaIS2_EEEC2ERKS3_@Base 2.8.4
 _ZN9__gnu_cxx17__normal_iteratorIPP11LexerModuleSt6vectorIS2_SaIS2_EEEppEv@Base 2.8.4
 _ZN9__gnu_cxx17__normal_iteratorIPP14SelectionRangeSt6vectorIS2_SaIS2_EEEC1ERKS3_@Base 2.8.4
 _ZN9__gnu_cxx17__normal_iteratorIPP14SelectionRangeSt6vectorIS2_SaIS2_EEEC2ERKS3_@Base 2.8.4
 _ZN9__gnu_cxx17__normal_iteratorIPP14SelectionRangeSt6vectorIS2_SaIS2_EEEmmEv@Base 2.8.4
 _ZN9__gnu_cxx17__normal_iteratorIPP14SelectionRangeSt6vectorIS2_SaIS2_EEEppEv@Base 2.8.4
 _ZN9__gnu_cxx17__normal_iteratorIPPcSt6vectorIS1_SaIS1_EEEC1ERKS2_@Base 2.8.4
 _ZN9__gnu_cxx17__normal_iteratorIPPcSt6vectorIS1_SaIS1_EEEC2ERKS2_@Base 2.8.4
 _ZN9__gnu_cxx17__normal_iteratorIPcNSt7__cxx1112basic_stringIcSt11char_traitsIcESaIcEEEEppEv@Base 2.9
 _ZN9__gnu_cxx17__normal_iteratorIPiSt6vectorIiSaIiEEEC1ERKS1_@Base 2.8.4
 _ZN9__gnu_cxx17__normal_iteratorIPiSt6vectorIiSaIiEEEC2ERKS1_@Base 2.8.4
 _ZN9__gnu_cxx17__normal_iteratorIPiSt6vectorIiSaIiEEEmmEv@Base 2.8.4
 _ZN9__gnu_cxx17__normal_iteratorIPiSt6vectorIiSaIiEEEpLEi@Base 2.9
 _ZN9__gnu_cxx17__normal_iteratorIPiSt6vectorIiSaIiEEEppEv@Base 2.8.4
 _ZN9__gnu_cxx5__ops10_Iter_predI5AfterEC1ES2_@Base 2.8.4
 _ZN9__gnu_cxx5__ops10_Iter_predI5AfterEC2ES2_@Base 2.8.4
 _ZN9__gnu_cxx5__ops10_Iter_predIPFbRKNSt7__cxx1112basic_stringIcSt11char_traitsIcESaIcEEEEEC1ESB_@Base 2.9
 _ZN9__gnu_cxx5__ops10_Iter_predIPFbRKNSt7__cxx1112basic_stringIcSt11char_traitsIcESaIcEEEEEC2ESB_@Base 2.9
 _ZN9__gnu_cxx5__ops10_Iter_predIPFbRKNSt7__cxx1112basic_stringIcSt11char_traitsIcESaIcEEEEEclINS_17__normal_iteratorIPS7_St6vectorIS7_SaIS7_EEEEEEbT_@Base 2.9
 _ZN9__gnu_cxx5__ops11__pred_iterI5AfterEENS0_10_Iter_predIT_EES4_@Base 2.8.4
 _ZN9__gnu_cxx5__ops11__pred_iterIPFbRKNSt7__cxx1112basic_stringIcSt11char_traitsIcESaIcEEEEEENS0_10_Iter_predIT_EESD_@Base 2.9
 _ZN9__gnu_cxx5__ops14_Iter_comp_valI6SorterEC1ES2_@Base 2.8.4
 _ZN9__gnu_cxx5__ops14_Iter_comp_valI6SorterEC2ES2_@Base 2.8.4
 _ZN9__gnu_cxx5__ops14_Iter_comp_valI6SorterED1Ev@Base 2.8.4
 _ZN9__gnu_cxx5__ops14_Iter_comp_valI6SorterED2Ev@Base 2.8.4
 _ZN9__gnu_cxx5__ops14_Iter_comp_valI6SorterEclINS_17__normal_iteratorIPiSt6vectorIiSaIiEEEEiEEbT_RT0_@Base 2.8.4
 _ZN9__gnu_cxx5__ops14_Iter_comp_valIPFbPK14SelectionRangeS4_EEC1ES6_@Base 2.8.4
 _ZN9__gnu_cxx5__ops14_Iter_comp_valIPFbPK14SelectionRangeS4_EEC2ES6_@Base 2.8.4
 _ZN9__gnu_cxx5__ops14_Iter_comp_valIPFbPK14SelectionRangeS4_EEclINS_17__normal_iteratorIPPS2_St6vectorISA_SaISA_EEEESA_EEbT_RT0_@Base 2.8.4
 _ZN9__gnu_cxx5__ops14_Val_comp_iterI6SorterEC1ES2_@Base 2.8.4
 _ZN9__gnu_cxx5__ops14_Val_comp_iterI6SorterEC2ES2_@Base 2.8.4
 _ZN9__gnu_cxx5__ops14_Val_comp_iterI6SorterED1Ev@Base 2.8.4
 _ZN9__gnu_cxx5__ops14_Val_comp_iterI6SorterED2Ev@Base 2.8.4
 _ZN9__gnu_cxx5__ops14_Val_comp_iterI6SorterEclIiNS_17__normal_iteratorIPiSt6vectorIiSaIiEEEEEEbRT_T0_@Base 2.8.4
 _ZN9__gnu_cxx5__ops14_Val_comp_iterIPFbPK14SelectionRangeS4_EEC1ES6_@Base 2.8.4
 _ZN9__gnu_cxx5__ops14_Val_comp_iterIPFbPK14SelectionRangeS4_EEC2ES6_@Base 2.8.4
 _ZN9__gnu_cxx5__ops14_Val_comp_iterIPFbPK14SelectionRangeS4_EEclIPS2_NS_17__normal_iteratorIPS9_St6vectorIS9_SaIS9_EEEEEEbRT_T0_@Base 2.8.4
 _ZN9__gnu_cxx5__ops15_Iter_comp_iterI6SorterEC1ERKS3_@Base 2.8.4
 _ZN9__gnu_cxx5__ops15_Iter_comp_iterI6SorterEC1ES2_@Base 2.8.4
 _ZN9__gnu_cxx5__ops15_Iter_comp_iterI6SorterEC2ERKS3_@Base 2.8.4
 _ZN9__gnu_cxx5__ops15_Iter_comp_iterI6SorterEC2ES2_@Base 2.8.4
 _ZN9__gnu_cxx5__ops15_Iter_comp_iterI6SorterED1Ev@Base 2.8.4
 _ZN9__gnu_cxx5__ops15_Iter_comp_iterI6SorterED2Ev@Base 2.8.4
 _ZN9__gnu_cxx5__ops15_Iter_comp_iterI6SorterEclINS_17__normal_iteratorIPiSt6vectorIiSaIiEEEESA_EEbT_T0_@Base 2.8.4
 _ZN9__gnu_cxx5__ops15_Iter_comp_iterIPFbPK14SelectionRangeS4_EEC1ES6_@Base 2.8.4
 _ZN9__gnu_cxx5__ops15_Iter_comp_iterIPFbPK14SelectionRangeS4_EEC2ES6_@Base 2.8.4
 _ZN9__gnu_cxx5__ops15_Iter_comp_iterIPFbPK14SelectionRangeS4_EEclINS_17__normal_iteratorIPPS2_St6vectorISA_SaISA_EEEESF_EEbT_T0_@Base 2.8.4
 _ZN9__gnu_cxx5__ops15__iter_comp_valENS0_15_Iter_less_iterE@Base 2.8.4
 _ZN9__gnu_cxx5__ops15__iter_comp_valI6SorterEENS0_14_Iter_comp_valIT_EENS0_15_Iter_comp_iterIS4_EE@Base 2.8.4
 _ZN9__gnu_cxx5__ops15__iter_comp_valIPFbPK14SelectionRangeS4_EEENS0_14_Iter_comp_valIT_EENS0_15_Iter_comp_iterIS8_EE@Base 2.8.4
 _ZN9__gnu_cxx5__ops15__iter_less_valEv@Base 2.8.4
 _ZN9__gnu_cxx5__ops15__val_comp_iterENS0_15_Iter_less_iterE@Base 2.8.4
 _ZN9__gnu_cxx5__ops15__val_comp_iterI6SorterEENS0_14_Val_comp_iterIT_EENS0_15_Iter_comp_iterIS4_EE@Base 2.8.4
 _ZN9__gnu_cxx5__ops15__val_comp_iterIPFbPK14SelectionRangeS4_EEENS0_14_Val_comp_iterIT_EENS0_15_Iter_comp_iterIS8_EE@Base 2.8.4
 _ZN9__gnu_cxx5__ops16_Iter_equals_valIA2_KcEC1ERS3_@Base 2.8.4
 _ZN9__gnu_cxx5__ops16_Iter_equals_valIA2_KcEC2ERS3_@Base 2.8.4
 _ZN9__gnu_cxx5__ops16_Iter_equals_valIA2_KcEclINS_17__normal_iteratorIPNSt7__cxx1112basic_stringIcSt11char_traitsIcESaIcEEESt6vectorISC_SaISC_EEEEEEbT_@Base 2.9
 _ZN9__gnu_cxx5__ops16_Iter_equals_valIKN8Document19WatcherWithUserDataEEC1ERS4_@Base 2.8.4
 _ZN9__gnu_cxx5__ops16_Iter_equals_valIKN8Document19WatcherWithUserDataEEC2ERS4_@Base 2.8.4
 _ZN9__gnu_cxx5__ops16_Iter_equals_valIKN8Document19WatcherWithUserDataEEclINS_17__normal_iteratorIPS3_St6vectorIS3_SaIS3_EEEEEEbT_@Base 2.8.4
 _ZN9__gnu_cxx5__ops16__iter_comp_iterI6SorterEENS0_15_Iter_comp_iterIT_EES4_@Base 2.8.4
 _ZN9__gnu_cxx5__ops16__iter_comp_iterIPFbPK14SelectionRangeS4_EEENS0_15_Iter_comp_iterIT_EES8_@Base 2.8.4
 _ZN9__gnu_cxx5__ops16__iter_less_iterEv@Base 2.8.4
 _ZN9__gnu_cxx5__ops17__iter_equals_valIA2_KcEENS0_16_Iter_equals_valIT_EERS5_@Base 2.8.4
 _ZN9__gnu_cxx5__ops17__iter_equals_valIKN8Document19WatcherWithUserDataEEENS0_16_Iter_equals_valIT_EERS6_@Base 2.8.4
 _ZN9__gnu_cxxeqIP14SelectionRangeSt6vectorIS1_SaIS1_EEEEbRKNS_17__normal_iteratorIT_T0_EESB_@Base 2.8.4
 _ZN9__gnu_cxxeqIPK14SelectionRangeSt6vectorIS1_SaIS1_EEEEbRKNS_17__normal_iteratorIT_T0_EESC_@Base 2.8.4
 _ZN9__gnu_cxxeqIPK18PositionCacheEntrySt6vectorIS1_SaIS1_EEEEbRKNS_17__normal_iteratorIT_T0_EESC_@Base 2.8.4
 _ZN9__gnu_cxxeqIPKN11SparseStateINSt7__cxx1112basic_stringIcSt11char_traitsIcESaIcEEEE5StateESt6vectorIS9_SaIS9_EEEEbRKNS_17__normal_iteratorIT_T0_EESK_@Base 2.9
 _ZN9__gnu_cxxeqIPKN11SparseStateIjE5StateESt6vectorIS3_SaIS3_EEEEbRKNS_17__normal_iteratorIT_T0_EESE_@Base 2.8.4
 _ZN9__gnu_cxxeqIPKNSt7__cxx1112basic_stringIcSt11char_traitsIcESaIcEEEPS6_St6vectorIS6_SaIS6_EEEEbRKNS_17__normal_iteratorIT_T1_EERKNSD_IT0_SF_EE@Base 2.9.2+dfsg
 _ZN9__gnu_cxxeqIPKNSt7__cxx1112basic_stringIcSt11char_traitsIcESaIcEEESt6vectorIS6_SaIS6_EEEEbRKNS_17__normal_iteratorIT_T0_EESH_@Base 2.9
 _ZN9__gnu_cxxeqIPKP10LineLayoutSt6vectorIS2_SaIS2_EEEEbRKNS_17__normal_iteratorIT_T0_EESD_@Base 2.8.4
 _ZN9__gnu_cxxeqIPKiPiSt6vectorIiSaIiEEEEbRKNS_17__normal_iteratorIT_T1_EERKNS7_IT0_S9_EE@Base 2.9.2+dfsg
 _ZN9__gnu_cxxeqIPKiSt6vectorIiSaIiEEEEbRKNS_17__normal_iteratorIT_T0_EESB_@Base 2.8.4
 _ZN9__gnu_cxxeqIPN11SparseStateINSt7__cxx1112basic_stringIcSt11char_traitsIcESaIcEEEE5StateESt6vectorIS9_SaIS9_EEEEbRKNS_17__normal_iteratorIT_T0_EESJ_@Base 2.9
 _ZN9__gnu_cxxeqIPN11SparseStateIjE5StateESt6vectorIS3_SaIS3_EEEEbRKNS_17__normal_iteratorIT_T0_EESD_@Base 2.8.4
 _ZN9__gnu_cxxeqIPNSt7__cxx1112basic_stringIcSt11char_traitsIcESaIcEEESt6vectorIS6_SaIS6_EEEEbRKNS_17__normal_iteratorIT_T0_EESG_@Base 2.9
 _ZN9__gnu_cxxeqIPP14SelectionRangeSt6vectorIS2_SaIS2_EEEEbRKNS_17__normal_iteratorIT_T0_EESC_@Base 2.8.4
 _ZN9__gnu_cxxeqIPiSt6vectorIiSaIiEEEEbRKNS_17__normal_iteratorIT_T0_EESA_@Base 2.8.4
 _ZN9__gnu_cxxltIP14SelectionRangeSt6vectorIS1_SaIS1_EEEEbRKNS_17__normal_iteratorIT_T0_EESB_@Base 2.8.4
 _ZN9__gnu_cxxltIPP14SelectionRangeSt6vectorIS2_SaIS2_EEEEbRKNS_17__normal_iteratorIT_T0_EESC_@Base 2.8.4
 _ZN9__gnu_cxxltIPiSt6vectorIiSaIiEEEEbRKNS_17__normal_iteratorIT_T0_EESA_@Base 2.8.4
 _ZN9__gnu_cxxmiIP14SelectionRangeSt6vectorIS1_SaIS1_EEEENS_17__normal_iteratorIT_T0_E15difference_typeERKS9_SC_@Base 2.8.4
 _ZN9__gnu_cxxmiIPK14SelectionRangeSt6vectorIS1_SaIS1_EEEENS_17__normal_iteratorIT_T0_E15difference_typeERKSA_SD_@Base 2.9.2+dfsg
 _ZN9__gnu_cxxmiIPKN11SparseStateINSt7__cxx1112basic_stringIcSt11char_traitsIcESaIcEEEE5StateESt6vectorIS9_SaIS9_EEEENS_17__normal_iteratorIT_T0_E15difference_typeERKSI_SL_@Base 2.9
 _ZN9__gnu_cxxmiIPKN11SparseStateIjE5StateESt6vectorIS3_SaIS3_EEEENS_17__normal_iteratorIT_T0_E15difference_typeERKSC_SF_@Base 2.9.2+dfsg
 _ZN9__gnu_cxxmiIPKN8Document19WatcherWithUserDataESt6vectorIS2_SaIS2_EEEENS_17__normal_iteratorIT_T0_E15difference_typeERKSB_SE_@Base 2.9.2+dfsg
 _ZN9__gnu_cxxmiIPKNSt7__cxx1112basic_stringIcSt11char_traitsIcESaIcEEEPS6_St6vectorIS6_SaIS6_EEEEDTmicldtfp_4baseEcldtfp0_4baseEERKNS_17__normal_iteratorIT_T1_EERKNSE_IT0_SG_EE@Base 2.9.2+dfsg
 _ZN9__gnu_cxxmiIPKNSt7__cxx1112basic_stringIcSt11char_traitsIcESaIcEEESt6vectorIS6_SaIS6_EEEENS_17__normal_iteratorIT_T0_E15difference_typeERKSF_SI_@Base 2.9.2+dfsg
 _ZN9__gnu_cxxmiIPKiPiSt6vectorIiSaIiEEEEDTmicldtfp_4baseEcldtfp0_4baseEERKNS_17__normal_iteratorIT_T1_EERKNS8_IT0_SA_EE@Base 2.9.2+dfsg
 _ZN9__gnu_cxxmiIPKiSt6vectorIiSaIiEEEENS_17__normal_iteratorIT_T0_E15difference_typeERKS9_SC_@Base 2.9.2+dfsg
 _ZN9__gnu_cxxmiIPN11SparseStateINSt7__cxx1112basic_stringIcSt11char_traitsIcESaIcEEEE5StateESt6vectorIS9_SaIS9_EEEENS_17__normal_iteratorIT_T0_E15difference_typeERKSH_SK_@Base 2.9
 _ZN9__gnu_cxxmiIPN11SparseStateIjE5StateESt6vectorIS3_SaIS3_EEEENS_17__normal_iteratorIT_T0_E15difference_typeERKSB_SE_@Base 2.8.4
 _ZN9__gnu_cxxmiIPN8Document19WatcherWithUserDataESt6vectorIS2_SaIS2_EEEENS_17__normal_iteratorIT_T0_E15difference_typeERKSA_SD_@Base 2.8.4
 _ZN9__gnu_cxxmiIPNSt7__cxx1112basic_stringIcSt11char_traitsIcESaIcEEESt6vectorIS6_SaIS6_EEEENS_17__normal_iteratorIT_T0_E15difference_typeERKSE_SH_@Base 2.9
 _ZN9__gnu_cxxmiIPP14SelectionRangeSt6vectorIS2_SaIS2_EEEENS_17__normal_iteratorIT_T0_E15difference_typeERKSA_SD_@Base 2.8.4
 _ZN9__gnu_cxxmiIPiSt6vectorIiSaIiEEEENS_17__normal_iteratorIT_T0_E15difference_typeERKS8_SB_@Base 2.8.4
 _ZN9__gnu_cxxneIP14SelectionRangeSt6vectorIS1_SaIS1_EEEEbRKNS_17__normal_iteratorIT_T0_EESB_@Base 2.8.4
 _ZN9__gnu_cxxneIP14WordClassifierSt6vectorIS1_SaIS1_EEEEbRKNS_17__normal_iteratorIT_T0_EESB_@Base 2.8.4
 _ZN9__gnu_cxxneIP9DrawPhaseSt6vectorIS1_SaIS1_EEEEbRKNS_17__normal_iteratorIT_T0_EESB_@Base 2.9
 _ZN9__gnu_cxxneIPK14SelectionRangeSt6vectorIS1_SaIS1_EEEEbRKNS_17__normal_iteratorIT_T0_EESC_@Base 2.8.4
 _ZN9__gnu_cxxneIPK14WordClassifierSt6vectorIS1_SaIS1_EEEEbRKNS_17__normal_iteratorIT_T0_EESC_@Base 2.8.4
 _ZN9__gnu_cxxneIPKN11SparseStateINSt7__cxx1112basic_stringIcSt11char_traitsIcESaIcEEEE5StateESt6vectorIS9_SaIS9_EEEEbRKNS_17__normal_iteratorIT_T0_EESK_@Base 2.9
 _ZN9__gnu_cxxneIPKPcPS1_St6vectorIS1_SaIS1_EEEEbRKNS_17__normal_iteratorIT_T1_EERKNS8_IT0_SA_EE@Base 2.8.4
 _ZN9__gnu_cxxneIPKcNSt7__cxx1112basic_stringIcSt11char_traitsIcESaIcEEEEEbRKNS_17__normal_iteratorIT_T0_EESE_@Base 2.9
 _ZN9__gnu_cxxneIPN11SparseStateINSt7__cxx1112basic_stringIcSt11char_traitsIcESaIcEEEE5StateESt6vectorIS9_SaIS9_EEEEbRKNS_17__normal_iteratorIT_T0_EESJ_@Base 2.9
 _ZN9__gnu_cxxneIPN11SparseStateIjE5StateESt6vectorIS3_SaIS3_EEEEbRKNS_17__normal_iteratorIT_T0_EESD_@Base 2.8.4
 _ZN9__gnu_cxxneIPN8Document19WatcherWithUserDataESt6vectorIS2_SaIS2_EEEEbRKNS_17__normal_iteratorIT_T0_EESC_@Base 2.8.4
 _ZN9__gnu_cxxneIPNSt7__cxx1112basic_stringIcSt11char_traitsIcESaIcEEESt6vectorIS6_SaIS6_EEEEbRKNS_17__normal_iteratorIT_T0_EESG_@Base 2.9
 _ZN9__gnu_cxxneIPP11LexerModuleSt6vectorIS2_SaIS2_EEEEbRKNS_17__normal_iteratorIT_T0_EESC_@Base 2.8.4
 _ZN9__gnu_cxxneIPP14SelectionRangeSt6vectorIS2_SaIS2_EEEEbRKNS_17__normal_iteratorIT_T0_EESC_@Base 2.8.4
 _ZN9__gnu_cxxneIPcNSt7__cxx1112basic_stringIcSt11char_traitsIcESaIcEEEEEbRKNS_17__normal_iteratorIT_T0_EESD_@Base 2.9
 _ZN9__gnu_cxxneIPiSt6vectorIiSaIiEEEEbRKNS_17__normal_iteratorIT_T0_EESA_@Base 2.8.4
 _ZNK10CellBuffer10IsReadOnlyEv@Base 2.8.4
 _ZNK10CellBuffer11GapPositionEv@Base 2.8.4
 _ZNK10CellBuffer11GetRedoStepEv@Base 2.8.4
 _ZNK10CellBuffer11GetUndoStepEv@Base 2.8.4
 _ZNK10CellBuffer11IsSavePointEv@Base 2.8.4
 _ZNK10CellBuffer12GetCharRangeEPcii@Base 2.8.4
 _ZNK10CellBuffer13GetStyleRangeEPhii@Base 2.8.4
 _ZNK10CellBuffer15GetLineEndTypesEv@Base 2.8.4
 _ZNK10CellBuffer15TentativeActiveEv@Base 2.9
 _ZNK10CellBuffer16IsCollectingUndoEv@Base 2.8.4
 _ZNK10CellBuffer16LineFromPositionEi@Base 2.8.4
 _ZNK10CellBuffer19UTF8LineEndOverlapsEi@Base 2.8.4
 _ZNK10CellBuffer5LinesEv@Base 2.8.4
 _ZNK10CellBuffer6CharAtEi@Base 2.8.4
 _ZNK10CellBuffer6LengthEv@Base 2.8.4
 _ZNK10CellBuffer7CanRedoEv@Base 2.8.4
 _ZNK10CellBuffer7CanUndoEv@Base 2.8.4
 _ZNK10CellBuffer7StyleAtEi@Base 2.8.4
 _ZNK10CellBuffer9LineStartEi@Base 2.8.4
 _ZNK10Decoration5EmptyEv@Base 2.8.4
 _ZNK10LexerBasic7VersionEv@Base 2.8.4
 _ZNK10LineLayout10FindBeforeEfii@Base 2.8.4
 _ZNK10LineLayout12EndLineStyleEv@Base 2.8.4
 _ZNK10LineLayout12SubLineRangeEi@Base 2.9
 _ZNK10LineLayout15LineLastVisibleEi@Base 2.8.4
 _ZNK10LineLayout17FindPositionFromXEf5Rangeb@Base 2.9
 _ZNK10LineLayout17PointFromPositionEii@Base 2.9
 _ZNK10LineLayout6InLineEii@Base 2.8.4
 _ZNK10LineLayout9LineStartEi@Base 2.8.4
 _ZNK10LineLevels8GetLevelEi@Base 2.8.4
 _ZNK10LineMarker4DrawEP7SurfaceR10PRectangleR4FontNS_10typeOfFoldEi@Base 2.9
 _ZNK10LineVector16LineFromPositionEi@Base 2.8.4
 _ZNK10LineVector5LinesEv@Base 2.8.4
 _ZNK10LineVector9LineStartEi@Base 2.8.4
 _ZNK10PRectangle10IntersectsES_@Base 2.8.4
 _ZNK10PRectangle18ContainsWholePixelE5Point@Base 2.9
 _ZNK10PRectangle5EmptyEv@Base 2.8.4
 _ZNK10PRectangle5WidthEv@Base 2.8.4
 _ZNK10PRectangle6HeightEv@Base 2.8.4
 _ZNK10PRectangle8ContainsE5Point@Base 2.8.4
 _ZNK10PRectangle8ContainsES_@Base 2.8.4
 _ZNK10QArrayData11detachFlagsEv@Base 2.8.4
 _ZNK10QByteArray4dataEv@Base 2.8.4
 _ZNK10QByteArray4sizeEv@Base 2.8.4
 _ZNK10QByteArray5countEv@Base 2.8.4
 _ZNK10QByteArray6lengthEv@Base 2.8.4
 _ZNK10QByteArray9constDataEv@Base 2.8.4
 _ZNK10QByteArraycvPKcEv@Base 2.8.4
 _ZNK10QDropEvent10dropActionEv@Base 2.8.4
 _ZNK10QDropEvent3posEv@Base 2.8.4
 _ZNK10QDropEvent8mimeDataEv@Base 2.8.4
 _ZNK10QsciLexerD10blockStartEPi@Base 2.8.4
 _ZNK10QsciLexerD10braceStyleEv@Base 2.8.4
 _ZNK10QsciLexerD10foldAtElseEv@Base 2.8.4
 _ZNK10QsciLexerD10metaObjectEv@Base 2.8.4
 _ZNK10QsciLexerD11defaultFontEi@Base 2.8.4
 _ZNK10QsciLexerD11descriptionEi@Base 2.8.4
 _ZNK10QsciLexerD11foldCompactEv@Base 2.8.4
 _ZNK10QsciLexerD12defaultColorEi@Base 2.8.4
 _ZNK10QsciLexerD12defaultPaperEi@Base 2.8.4
 _ZNK10QsciLexerD12foldCommentsEv@Base 2.8.4
 _ZNK10QsciLexerD14defaultEolFillEi@Base 2.8.4
 _ZNK10QsciLexerD14wordCharactersEv@Base 2.8.4
 _ZNK10QsciLexerD15writePropertiesER9QSettingsRK7QString@Base 2.8.4
 _ZNK10QsciLexerD17blockStartKeywordEPi@Base 2.8.4
 _ZNK10QsciLexerD28autoCompletionWordSeparatorsEv@Base 2.8.4
 _ZNK10QsciLexerD5lexerEv@Base 2.8.4
 _ZNK10QsciLexerD8blockEndEPi@Base 2.8.4
 _ZNK10QsciLexerD8keywordsEi@Base 2.8.4
 _ZNK10QsciLexerD8languageEv@Base 2.8.4
 _ZNK10StyledText10LineLengthEj@Base 2.9
 _ZNK10StyledText7StyleAtEj@Base 2.9
 _ZNK11AutoSurfacecvP7SurfaceEv@Base 2.8.4
 _ZNK11AutoSurfaceptEv@Base 2.8.4
 _ZNK11BreakFinder4MoreEv@Base 2.8.4
 _ZNK11LexAccessor10IsLeadByteEc@Base 2.8.4
 _ZNK11LexAccessor12GetLineStateEi@Base 2.8.4
 _ZNK11LexAccessor15GetStartSegmentEv@Base 2.8.4
 _ZNK11LexAccessor15MultiByteAccessEv@Base 2.8.4
 _ZNK11LexAccessor6LengthEv@Base 2.8.4
 _ZNK11LexAccessor7GetLineEi@Base 2.8.4
 _ZNK11LexAccessor7LevelAtEi@Base 2.8.4
 _ZNK11LexAccessor7StyleAtEi@Base 2.8.4
 _ZNK11LexAccessor8EncodingEv@Base 2.8.4
 _ZNK11LexAccessor9LineStartEi@Base 2.8.4
 _ZNK11LexerModule11GetLanguageEv@Base 2.8.4
 _ZNK11LexerModule15GetNumWordListsEv@Base 2.8.4
 _ZNK11LexerModule22GetWordListDescriptionEi@Base 2.8.4
 _ZNK11LexerModule3LexEjiiPP8WordListR8Accessor@Base 2.8.4
 _ZNK11LexerModule4FoldEjiiPP8WordListR8Accessor@Base 2.8.4
 _ZNK11LexerModule6CreateEv@Base 2.8.4
 _ZNK11LineMarkers10MarkerNextEii@Base 2.8.4
 _ZNK11QInputEvent9modifiersEv@Base 2.8.4
 _ZNK11QLatin1Char7unicodeEv@Base 2.8.4
 _ZNK11QMouseEvent1xEv@Base 2.8.4
 _ZNK11QMouseEvent1yEv@Base 2.8.4
 _ZNK11QMouseEvent6buttonEv@Base 2.8.4
 _ZNK11QMouseEvent9globalPosEv@Base 2.8.4
 _ZNK11QPaintEvent4rectEv@Base 2.8.4
 _ZNK11QStringList8containsERK7QStringN2Qt15CaseSensitivityE@Base 2.8.4
 _ZNK11QTextFormat12isCharFormatEv@Base 2.8.4
 _ZNK11QTimerEvent7timerIdEv@Base 2.9
 _ZNK11QsciCommand11descriptionEv@Base 2.8.4
 _ZNK11QsciCommand12alternateKeyEv@Base 2.8.4
 _ZNK11QsciCommand3keyEv@Base 2.8.4
 _ZNK11QsciCommand7commandEv@Base 2.8.4
 _ZNK11QsciLexerPO10metaObjectEv@Base 2.8.4
 _ZNK11QsciLexerPO11defaultFontEi@Base 2.8.4
 _ZNK11QsciLexerPO11descriptionEi@Base 2.8.4
 _ZNK11QsciLexerPO11foldCompactEv@Base 2.8.4
 _ZNK11QsciLexerPO12defaultColorEi@Base 2.8.4
 _ZNK11QsciLexerPO12foldCommentsEv@Base 2.8.4
 _ZNK11QsciLexerPO15writePropertiesER9QSettingsRK7QString@Base 2.8.4
 _ZNK11QsciLexerPO5lexerEv@Base 2.8.4
 _ZNK11QsciLexerPO8languageEv@Base 2.8.4
 _ZNK11SparseStateINSt7__cxx1112basic_stringIcSt11char_traitsIcESaIcEEEE5StateeqERKS7_@Base 2.9
 _ZNK11SparseStateINSt7__cxx1112basic_stringIcSt11char_traitsIcESaIcEEEE5StateltERKS7_@Base 2.9
 _ZNK11SparseStateIjE5StateltERKS1_@Base 2.8.4
 _ZNK11SplitVectorIP15MarkerHandleSetE6LengthEv@Base 2.8.4
 _ZNK11SplitVectorIP15MarkerHandleSetEixEi@Base 2.8.4
 _ZNK11SplitVectorIPSt6vectorIiSaIiEEE6LengthEv@Base 2.9
 _ZNK11SplitVectorIPSt6vectorIiSaIiEEEixEi@Base 2.9
 _ZNK11SplitVectorIPcE6LengthEv@Base 2.8.4
 _ZNK11SplitVectorIPcEixEi@Base 2.8.4
 _ZNK11SplitVectorIcE11GapPositionEv@Base 2.8.4
 _ZNK11SplitVectorIcE6LengthEv@Base 2.8.4
 _ZNK11SplitVectorIcE7ValueAtEi@Base 2.8.4
 _ZNK11SplitVectorIcE8GetRangeEPcii@Base 2.8.4
 _ZNK11SplitVectorIiE11GetGrowSizeEv@Base 2.8.4
 _ZNK11SplitVectorIiE6LengthEv@Base 2.8.4
 _ZNK11SplitVectorIiE7ValueAtEi@Base 2.8.4
 _ZNK11SplitVectorIiEixEi@Base 2.8.4
 _ZNK11TextSegment3endEv@Base 2.8.4
 _ZNK11UndoHistory11GetRedoStepEv@Base 2.8.4
 _ZNK11UndoHistory11GetUndoStepEv@Base 2.8.4
 _ZNK11UndoHistory11IsSavePointEv@Base 2.8.4
 _ZNK11UndoHistory15TentativeActiveEv@Base 2.9
 _ZNK11UndoHistory7CanRedoEv@Base 2.8.4
 _ZNK11UndoHistory7CanUndoEv@Base 2.8.4
 _ZNK11WrapPending9NeedsWrapEv@Base 2.8.4
 _ZNK12AutoComplete10GetTypesepEv@Base 2.8.4
 _ZNK12AutoComplete12GetSelectionEv@Base 2.8.4
 _ZNK12AutoComplete12GetSeparatorEv@Base 2.8.4
 _ZNK12AutoComplete6ActiveEv@Base 2.8.4
 _ZNK12AutoComplete8GetValueB5cxx11Ei@Base 2.9
 _ZNK12CharClassify6IsWordEh@Base 2.8.4
 _ZNK12CharClassify8GetClassEh@Base 2.8.4
 _ZNK12CharacterSet8ContainsEi@Base 2.8.4
 _ZNK12KeyModifiersltERKS_@Base 2.9
 _ZNK12LexInterface18UseContainerLexingEv@Base 2.8.4
 _ZNK12LexerHaskell13skipMagicHashER12StyleContextNS_9HashCountE@Base 2.8.4
 _ZNK12LexerHaskell18LineContainsImportEiR8Accessor@Base 2.8.4
 _ZNK12LexerHaskell22IndentAmountWithOffsetER8Accessori@Base 2.8.4
 _ZNK12LexerHaskell29IndentLevelRemoveIndentOffsetEi@Base 2.8.4
 _ZNK12LexerHaskell7VersionEv@Base 2.8.4
 _ZNK12LexerVerilog7VersionEv@Base 2.9
 _ZNK12LexerVerilog8TokenizeERKNSt7__cxx1112basic_stringIcSt11char_traitsIcESaIcEEE@Base 2.9
 _ZNK12LineTabstops14GetNextTabstopEii@Base 2.9
 _ZNK12Partitioning10PartitionsEv@Base 2.8.4
 _ZNK12Partitioning21PartitionFromPositionEi@Base 2.8.4
 _ZNK12Partitioning21PositionFromPartitionEi@Base 2.8.4
 _ZNK12QMapNodeBase5colorEv@Base 2.8.4
 _ZNK12QPaintDevice11logicalDpiYEv@Base 2.8.4
 _ZNK12QPaintDevice16devicePixelRatioEv@Base 2.8.4
 _ZNK12QPaintDevice5widthEv@Base 2.8.4
 _ZNK12QPaintDevice6heightEv@Base 2.8.4
 _ZNK12QWeakPointerI7QObjectE4dataEv@Base 2.8.4
 _ZNK12QWeakPointerI7QObjectE6isNullEv@Base 2.8.4
 _ZNK12QsciDocument10isModifiedEv@Base 2.8.4
 _ZNK12QsciLexerAVS10braceStyleEv@Base 2.8.4
 _ZNK12QsciLexerAVS10metaObjectEv@Base 2.8.4
 _ZNK12QsciLexerAVS11defaultFontEi@Base 2.8.4
 _ZNK12QsciLexerAVS11descriptionEi@Base 2.8.4
 _ZNK12QsciLexerAVS11foldCompactEv@Base 2.8.4
 _ZNK12QsciLexerAVS12defaultColorEi@Base 2.8.4
 _ZNK12QsciLexerAVS12foldCommentsEv@Base 2.8.4
 _ZNK12QsciLexerAVS14wordCharactersEv@Base 2.8.4
 _ZNK12QsciLexerAVS15writePropertiesER9QSettingsRK7QString@Base 2.8.4
 _ZNK12QsciLexerAVS5lexerEv@Base 2.8.4
 _ZNK12QsciLexerAVS8keywordsEi@Base 2.8.4
 _ZNK12QsciLexerAVS8languageEv@Base 2.8.4
 _ZNK12QsciLexerCPP10blockStartEPi@Base 2.8.4
 _ZNK12QsciLexerCPP10braceStyleEv@Base 2.8.4
 _ZNK12QsciLexerCPP10metaObjectEv@Base 2.8.4
 _ZNK12QsciLexerCPP11defaultFontEi@Base 2.8.4
 _ZNK12QsciLexerCPP11descriptionEi@Base 2.8.4
 _ZNK12QsciLexerCPP12defaultColorEi@Base 2.8.4
 _ZNK12QsciLexerCPP12defaultPaperEi@Base 2.8.4
 _ZNK12QsciLexerCPP14defaultEolFillEi@Base 2.8.4
 _ZNK12QsciLexerCPP14wordCharactersEv@Base 2.8.4
 _ZNK12QsciLexerCPP15writePropertiesER9QSettingsRK7QString@Base 2.8.4
 _ZNK12QsciLexerCPP17blockStartKeywordEPi@Base 2.8.4
 _ZNK12QsciLexerCPP28autoCompletionWordSeparatorsEv@Base 2.8.4
 _ZNK12QsciLexerCPP5lexerEv@Base 2.8.4
 _ZNK12QsciLexerCPP8blockEndEPi@Base 2.8.4
 _ZNK12QsciLexerCPP8keywordsEi@Base 2.8.4
 _ZNK12QsciLexerCPP8languageEv@Base 2.8.4
 _ZNK12QsciLexerCSS10blockStartEPi@Base 2.8.4
 _ZNK12QsciLexerCSS10metaObjectEv@Base 2.8.4
 _ZNK12QsciLexerCSS11defaultFontEi@Base 2.8.4
 _ZNK12QsciLexerCSS11descriptionEi@Base 2.8.4
 _ZNK12QsciLexerCSS11foldCompactEv@Base 2.8.4
 _ZNK12QsciLexerCSS12defaultColorEi@Base 2.8.4
 _ZNK12QsciLexerCSS12foldCommentsEv@Base 2.8.4
 _ZNK12QsciLexerCSS14wordCharactersEv@Base 2.8.4
 _ZNK12QsciLexerCSS15writePropertiesER9QSettingsRK7QString@Base 2.8.4
 _ZNK12QsciLexerCSS5lexerEv@Base 2.8.4
 _ZNK12QsciLexerCSS8blockEndEPi@Base 2.8.4
 _ZNK12QsciLexerCSS8keywordsEi@Base 2.8.4
 _ZNK12QsciLexerCSS8languageEv@Base 2.8.4
 _ZNK12QsciLexerIDL10metaObjectEv@Base 2.8.4
 _ZNK12QsciLexerIDL11descriptionEi@Base 2.8.4
 _ZNK12QsciLexerIDL12defaultColorEi@Base 2.8.4
 _ZNK12QsciLexerIDL8keywordsEi@Base 2.8.4
 _ZNK12QsciLexerIDL8languageEv@Base 2.8.4
 _ZNK12QsciLexerLua10blockStartEPi@Base 2.8.4
 _ZNK12QsciLexerLua10braceStyleEv@Base 2.8.4
 _ZNK12QsciLexerLua10metaObjectEv@Base 2.8.4
 _ZNK12QsciLexerLua11defaultFontEi@Base 2.8.4
 _ZNK12QsciLexerLua11descriptionEi@Base 2.8.4
 _ZNK12QsciLexerLua11foldCompactEv@Base 2.8.4
 _ZNK12QsciLexerLua12defaultColorEi@Base 2.8.4
 _ZNK12QsciLexerLua12defaultPaperEi@Base 2.8.4
 _ZNK12QsciLexerLua14defaultEolFillEi@Base 2.8.4
 _ZNK12QsciLexerLua15writePropertiesER9QSettingsRK7QString@Base 2.8.4
 _ZNK12QsciLexerLua28autoCompletionWordSeparatorsEv@Base 2.8.4
 _ZNK12QsciLexerLua5lexerEv@Base 2.8.4
 _ZNK12QsciLexerLua8keywordsEi@Base 2.8.4
 _ZNK12QsciLexerLua8languageEv@Base 2.8.4
 _ZNK12QsciLexerPOV10braceStyleEv@Base 2.8.4
 _ZNK12QsciLexerPOV10metaObjectEv@Base 2.8.4
 _ZNK12QsciLexerPOV11defaultFontEi@Base 2.8.4
 _ZNK12QsciLexerPOV11descriptionEi@Base 2.8.4
 _ZNK12QsciLexerPOV11foldCompactEv@Base 2.8.4
 _ZNK12QsciLexerPOV12defaultColorEi@Base 2.8.4
 _ZNK12QsciLexerPOV12defaultPaperEi@Base 2.8.4
 _ZNK12QsciLexerPOV12foldCommentsEv@Base 2.8.4
 _ZNK12QsciLexerPOV14defaultEolFillEi@Base 2.8.4
 _ZNK12QsciLexerPOV14foldDirectivesEv@Base 2.8.4
 _ZNK12QsciLexerPOV14wordCharactersEv@Base 2.8.4
 _ZNK12QsciLexerPOV15writePropertiesER9QSettingsRK7QString@Base 2.8.4
 _ZNK12QsciLexerPOV5lexerEv@Base 2.8.4
 _ZNK12QsciLexerPOV8keywordsEi@Base 2.8.4
 _ZNK12QsciLexerPOV8languageEv@Base 2.8.4
 _ZNK12QsciLexerSQL10braceStyleEv@Base 2.8.4
 _ZNK12QsciLexerSQL10metaObjectEv@Base 2.8.4
 _ZNK12QsciLexerSQL11defaultFontEi@Base 2.8.4
 _ZNK12QsciLexerSQL11descriptionEi@Base 2.8.4
 _ZNK12QsciLexerSQL12defaultColorEi@Base 2.8.4
 _ZNK12QsciLexerSQL12defaultPaperEi@Base 2.8.4
 _ZNK12QsciLexerSQL14defaultEolFillEi@Base 2.8.4
 _ZNK12QsciLexerSQL15writePropertiesER9QSettingsRK7QString@Base 2.8.4
 _ZNK12QsciLexerSQL5lexerEv@Base 2.8.4
 _ZNK12QsciLexerSQL8keywordsEi@Base 2.8.4
 _ZNK12QsciLexerSQL8languageEv@Base 2.8.4
 _ZNK12QsciLexerTCL10braceStyleEv@Base 2.8.4
 _ZNK12QsciLexerTCL10metaObjectEv@Base 2.8.4
 _ZNK12QsciLexerTCL11defaultFontEi@Base 2.8.4
 _ZNK12QsciLexerTCL11descriptionEi@Base 2.8.4
 _ZNK12QsciLexerTCL12defaultColorEi@Base 2.8.4
 _ZNK12QsciLexerTCL12defaultPaperEi@Base 2.8.4
 _ZNK12QsciLexerTCL14defaultEolFillEi@Base 2.8.4
 _ZNK12QsciLexerTCL15writePropertiesER9QSettingsRK7QString@Base 2.8.4
 _ZNK12QsciLexerTCL5lexerEv@Base 2.8.4
 _ZNK12QsciLexerTCL8keywordsEi@Base 2.8.4
 _ZNK12QsciLexerTCL8languageEv@Base 2.8.4
 _ZNK12QsciLexerTeX10metaObjectEv@Base 2.8.4
 _ZNK12QsciLexerTeX11descriptionEi@Base 2.8.4
 _ZNK12QsciLexerTeX12defaultColorEi@Base 2.8.4
 _ZNK12QsciLexerTeX14wordCharactersEv@Base 2.8.4
 _ZNK12QsciLexerTeX15writePropertiesER9QSettingsRK7QString@Base 2.8.4
 _ZNK12QsciLexerTeX5lexerEv@Base 2.8.4
 _ZNK12QsciLexerTeX8keywordsEi@Base 2.8.4
 _ZNK12QsciLexerTeX8languageEv@Base 2.8.4
 _ZNK12QsciLexerXML10metaObjectEv@Base 2.8.4
 _ZNK12QsciLexerXML11defaultFontEi@Base 2.8.4
 _ZNK12QsciLexerXML12defaultColorEi@Base 2.8.4
 _ZNK12QsciLexerXML12defaultPaperEi@Base 2.8.4
 _ZNK12QsciLexerXML13scriptsStyledEv@Base 2.8.4
 _ZNK12QsciLexerXML14defaultEolFillEi@Base 2.8.4
 _ZNK12QsciLexerXML15writePropertiesER9QSettingsRK7QString@Base 2.8.4
 _ZNK12QsciLexerXML5lexerEv@Base 2.8.4
 _ZNK12QsciLexerXML8keywordsEi@Base 2.8.4
 _ZNK12QsciLexerXML8languageEv@Base 2.8.4
 _ZNK12QsciSciPopup10metaObjectEv@Base 2.8.4
 _ZNK12StyleContext13LengthCurrentEv@Base 2.8.4
 _ZNK12StyleContext4MoreEv@Base 2.8.4
 _ZNK12StyleContext5MatchEc@Base 2.8.4
 _ZNK12StyleContext5MatchEcc@Base 2.8.4
 _ZNK13ColourDesired6AsLongEv@Base 2.8.4
 _ZNK13ColourDesired6GetRedEv@Base 2.8.4
 _ZNK13ColourDesired7GetBlueEv@Base 2.8.4
 _ZNK13ColourDesired8GetGreenEv@Base 2.8.4
 _ZNK13ColourDesiredeqERKS_@Base 2.8.4
 _ZNK13LexerRegistry7VersionEv@Base 2.9
 _ZNK13PositionCache7GetSizeEv@Base 2.8.4
 _ZNK13PropSetSimple11GetExpandedEPKcPc@Base 2.8.4
 _ZNK13PropSetSimple3GetEPKc@Base 2.8.4
 _ZNK13PropSetSimple6GetIntEPKci@Base 2.8.4
 _ZNK13QLatin1String4sizeEv@Base 2.8.4
 _ZNK13QLatin1String6latin1Ev@Base 2.8.4
 _ZNK13QsciLexerBash10braceStyleEv@Base 2.8.4
 _ZNK13QsciLexerBash10metaObjectEv@Base 2.8.4
 _ZNK13QsciLexerBash11defaultFontEi@Base 2.8.4
 _ZNK13QsciLexerBash11descriptionEi@Base 2.8.4
 _ZNK13QsciLexerBash11foldCompactEv@Base 2.8.4
 _ZNK13QsciLexerBash12defaultColorEi@Base 2.8.4
 _ZNK13QsciLexerBash12defaultPaperEi@Base 2.8.4
 _ZNK13QsciLexerBash12foldCommentsEv@Base 2.8.4
 _ZNK13QsciLexerBash14defaultEolFillEi@Base 2.8.4
 _ZNK13QsciLexerBash14wordCharactersEv@Base 2.8.4
 _ZNK13QsciLexerBash15writePropertiesER9QSettingsRK7QString@Base 2.8.4
 _ZNK13QsciLexerBash5lexerEv@Base 2.8.4
 _ZNK13QsciLexerBash8keywordsEi@Base 2.8.4
 _ZNK13QsciLexerBash8languageEv@Base 2.8.4
 _ZNK13QsciLexerDiff10metaObjectEv@Base 2.8.4
 _ZNK13QsciLexerDiff11descriptionEi@Base 2.8.4
 _ZNK13QsciLexerDiff12defaultColorEi@Base 2.8.4
 _ZNK13QsciLexerDiff14wordCharactersEv@Base 2.8.4
 _ZNK13QsciLexerDiff5lexerEv@Base 2.8.4
 _ZNK13QsciLexerDiff8languageEv@Base 2.8.4
 _ZNK13QsciLexerHTML10metaObjectEv@Base 2.8.4
 _ZNK13QsciLexerHTML11defaultFontEi@Base 2.8.4
 _ZNK13QsciLexerHTML11descriptionEi@Base 2.8.4
 _ZNK13QsciLexerHTML12defaultColorEi@Base 2.8.4
 _ZNK13QsciLexerHTML12defaultPaperEi@Base 2.8.4
 _ZNK13QsciLexerHTML14defaultEolFillEi@Base 2.8.4
 _ZNK13QsciLexerHTML14wordCharactersEv@Base 2.8.4
 _ZNK13QsciLexerHTML15writePropertiesER9QSettingsRK7QString@Base 2.8.4
 _ZNK13QsciLexerHTML21autoCompletionFillupsEv@Base 2.8.4
 _ZNK13QsciLexerHTML5lexerEv@Base 2.8.4
 _ZNK13QsciLexerHTML8keywordsEi@Base 2.8.4
 _ZNK13QsciLexerHTML8languageEv@Base 2.8.4
 _ZNK13QsciLexerJava10metaObjectEv@Base 2.8.4
 _ZNK13QsciLexerJava8keywordsEi@Base 2.8.4
 _ZNK13QsciLexerJava8languageEv@Base 2.8.4
 _ZNK13QsciLexerPerl10blockStartEPi@Base 2.8.4
 _ZNK13QsciLexerPerl10braceStyleEv@Base 2.8.4
 _ZNK13QsciLexerPerl10metaObjectEv@Base 2.8.4
 _ZNK13QsciLexerPerl11defaultFontEi@Base 2.8.4
 _ZNK13QsciLexerPerl11descriptionEi@Base 2.8.4
 _ZNK13QsciLexerPerl11foldCompactEv@Base 2.8.4
 _ZNK13QsciLexerPerl12defaultColorEi@Base 2.8.4
 _ZNK13QsciLexerPerl12defaultPaperEi@Base 2.8.4
 _ZNK13QsciLexerPerl12foldCommentsEv@Base 2.8.4
 _ZNK13QsciLexerPerl12foldPackagesEv@Base 2.8.4
 _ZNK13QsciLexerPerl13foldPODBlocksEv@Base 2.8.4
 _ZNK13QsciLexerPerl14defaultEolFillEi@Base 2.8.4
 _ZNK13QsciLexerPerl14wordCharactersEv@Base 2.8.4
 _ZNK13QsciLexerPerl15writePropertiesER9QSettingsRK7QString@Base 2.8.4
 _ZNK13QsciLexerPerl28autoCompletionWordSeparatorsEv@Base 2.8.4
 _ZNK13QsciLexerPerl5lexerEv@Base 2.8.4
 _ZNK13QsciLexerPerl8blockEndEPi@Base 2.8.4
 _ZNK13QsciLexerPerl8keywordsEi@Base 2.8.4
 _ZNK13QsciLexerPerl8languageEv@Base 2.8.4
 _ZNK13QsciLexerRuby10blockStartEPi@Base 2.8.4
 _ZNK13QsciLexerRuby10braceStyleEv@Base 2.8.4
 _ZNK13QsciLexerRuby10metaObjectEv@Base 2.8.4
 _ZNK13QsciLexerRuby11defaultFontEi@Base 2.8.4
 _ZNK13QsciLexerRuby11descriptionEi@Base 2.8.4
 _ZNK13QsciLexerRuby12defaultColorEi@Base 2.8.4
 _ZNK13QsciLexerRuby12defaultPaperEi@Base 2.8.4
 _ZNK13QsciLexerRuby14defaultEolFillEi@Base 2.8.4
 _ZNK13QsciLexerRuby15writePropertiesER9QSettingsRK7QString@Base 2.8.4
 _ZNK13QsciLexerRuby17blockStartKeywordEPi@Base 2.8.4
 _ZNK13QsciLexerRuby5lexerEv@Base 2.8.4
 _ZNK13QsciLexerRuby8blockEndEPi@Base 2.8.4
 _ZNK13QsciLexerRuby8keywordsEi@Base 2.8.4
 _ZNK13QsciLexerRuby8languageEv@Base 2.8.4
 _ZNK13QsciLexerVHDL10braceStyleEv@Base 2.8.4
 _ZNK13QsciLexerVHDL10foldAtElseEv@Base 2.8.4
 _ZNK13QsciLexerVHDL10metaObjectEv@Base 2.8.4
 _ZNK13QsciLexerVHDL11defaultFontEi@Base 2.8.4
 _ZNK13QsciLexerVHDL11descriptionEi@Base 2.8.4
 _ZNK13QsciLexerVHDL11foldAtBeginEv@Base 2.8.4
 _ZNK13QsciLexerVHDL11foldCompactEv@Base 2.8.4
 _ZNK13QsciLexerVHDL12defaultColorEi@Base 2.8.4
 _ZNK13QsciLexerVHDL12defaultPaperEi@Base 2.8.4
 _ZNK13QsciLexerVHDL12foldCommentsEv@Base 2.8.4
 _ZNK13QsciLexerVHDL14defaultEolFillEi@Base 2.8.4
 _ZNK13QsciLexerVHDL15writePropertiesER9QSettingsRK7QString@Base 2.8.4
 _ZNK13QsciLexerVHDL17foldAtParenthesisEv@Base 2.8.4
 _ZNK13QsciLexerVHDL5lexerEv@Base 2.8.4
 _ZNK13QsciLexerVHDL8keywordsEi@Base 2.8.4
 _ZNK13QsciLexerVHDL8languageEv@Base 2.8.4
 _ZNK13QsciLexerYAML10metaObjectEv@Base 2.8.4
 _ZNK13QsciLexerYAML11defaultFontEi@Base 2.8.4
 _ZNK13QsciLexerYAML11descriptionEi@Base 2.8.4
 _ZNK13QsciLexerYAML12defaultColorEi@Base 2.8.4
 _ZNK13QsciLexerYAML12defaultPaperEi@Base 2.8.4
 _ZNK13QsciLexerYAML12foldCommentsEv@Base 2.8.4
 _ZNK13QsciLexerYAML14defaultEolFillEi@Base 2.8.4
 _ZNK13QsciLexerYAML15writePropertiesER9QSettingsRK7QString@Base 2.8.4
 _ZNK13QsciLexerYAML5lexerEv@Base 2.8.4
 _ZNK13QsciLexerYAML8keywordsEi@Base 2.8.4
 _ZNK13QsciLexerYAML8languageEv@Base 2.8.4
 _ZNK13QsciListBoxQt14GetVisibleRowsEv@Base 2.8.4
 _ZNK13QsciScintilla10annotationEi@Base 2.8.4
 _ZNK13QsciScintilla10edgeColumnEv@Base 2.8.4
 _ZNK13QsciScintilla10isModifiedEv@Base 2.8.4
 _ZNK13QsciScintilla10isReadOnlyEv@Base 2.8.4
 _ZNK13QsciScintilla10lineLengthEi@Base 2.8.4
 _ZNK13QsciScintilla10marginTypeEi@Base 2.8.4
 _ZNK13QsciScintilla10markerLineEi@Base 2.8.4
 _ZNK13QsciScintilla10metaObjectEv@Base 2.8.4
 _ZNK13QsciScintilla10tabIndentsEv@Base 2.8.4
 _ZNK13QsciScintilla10textHeightEi@Base 2.8.4
 _ZNK13QsciScintilla11extraAscentEv@Base 2.8.4
 _ZNK13QsciScintilla11indentWidthEv@Base 2.8.4
 _ZNK13QsciScintilla11indentationEi@Base 2.8.4
 _ZNK13QsciScintilla11isStartCharEc@Base 2.8.4
 _ZNK13QsciScintilla11marginWidthEi@Base 2.8.4
 _ZNK13QsciScintilla11wordAtPointERK6QPoint@Base 2.8.4
 _ZNK13QsciScintilla12extraDescentEv@Base 2.8.4
 _ZNK13QsciScintilla12getCharacterERi@Base 2.8.4
 _ZNK13QsciScintilla12getSelectionEPiS0_S0_S0_@Base 2.8.4
 _ZNK13QsciScintilla12getSeparatorERi@Base 2.8.4
 _ZNK13QsciScintilla12isListActiveEv@Base 2.8.4
 _ZNK13QsciScintilla12selectedTextEv@Base 2.8.4
 _ZNK13QsciScintilla12set_shortcutEP7QActionN11QsciCommand7CommandE@Base 2.8.4
 _ZNK13QsciScintilla13caseSensitiveEv@Base 2.8.4
 _ZNK13QsciScintilla13currentIndentEv@Base 2.8.4
 _ZNK13QsciScintilla13eolVisibilityEv@Base 2.8.4
 _ZNK13QsciScintilla13marginOptionsEv@Base 2.8.4
 _ZNK13QsciScintilla13markersAtLineEi@Base 2.8.4
 _ZNK13QsciScintilla13overwriteModeEv@Base 2.8.4
 _ZNK13QsciScintilla14markerFindNextEij@Base 2.8.4
 _ZNK13QsciScintilla14selectionToEolEv@Base 2.8.4
 _ZNK13QsciScintilla14whitespaceSizeEv@Base 2.8.4
 _ZNK13QsciScintilla14wordAtPositionEi@Base 2.8.4
 _ZNK13QsciScintilla14wordCharactersEv@Base 2.8.4
 _ZNK13QsciScintilla14wrapIndentModeEv@Base 2.8.4
 _ZNK13QsciScintilla15contractedFoldsEv@Base 2.8.4
 _ZNK13QsciScintilla15hasSelectedTextEv@Base 2.8.4
 _ZNK13QsciScintilla15isCallTipActiveEv@Base 2.8.4
 _ZNK13QsciScintilla15isRedoAvailableEv@Base 2.8.4
 _ZNK13QsciScintilla15isUndoAvailableEv@Base 2.8.4
 _ZNK13QsciScintilla15isWordCharacterEc@Base 2.8.4
 _ZNK13QsciScintilla15wordAtLineIndexEii@Base 2.8.4
 _ZNK13QsciScintilla16firstVisibleLineEv@Base 2.8.4
 _ZNK13QsciScintilla16indentationWidthEv@Base 2.8.4
 _ZNK13QsciScintilla16marginMarkerMaskEi@Base 2.8.4
 _ZNK13QsciScintilla17annotationDisplayEv@Base 2.8.4
 _ZNK13QsciScintilla17getCursorPositionEPiS0_@Base 2.8.4
 _ZNK13QsciScintilla17indentationGuidesEv@Base 2.8.4
 _ZNK13QsciScintilla17marginLineNumbersEi@Base 2.8.4
 _ZNK13QsciScintilla17marginSensitivityEi@Base 2.8.4
 _ZNK13QsciScintilla18backspaceUnindentsEv@Base 2.8.4
 _ZNK13QsciScintilla18indicatorDrawUnderEi@Base 2.8.4
 _ZNK13QsciScintilla18markerFindPreviousEij@Base 2.8.4
 _ZNK13QsciScintilla19indentationsUseTabsEv@Base 2.8.4
 _ZNK13QsciScintilla20isAutoCompletionListEv@Base 2.8.4
 _ZNK13QsciScintilla20whitespaceVisibilityEv@Base 2.8.4
 _ZNK13QsciScintilla21lineIndexFromPositionEiPiS0_@Base 2.8.4
 _ZNK13QsciScintilla21positionFromLineIndexEii@Base 2.8.4
 _ZNK13QsciScintilla23adjustedCallTipPositionEi@Base 2.8.4
 _ZNK13QsciScintilla23autoCompletionUseSingleEv@Base 2.8.4
 _ZNK13QsciScintilla24autoCompletionShowSingleEv@Base 2.8.4
 _ZNK13QsciScintilla25autoCompletionReplaceWordEv@Base 2.8.4
 _ZNK13QsciScintilla28autoCompletionFillupsEnabledEv@Base 2.8.4
 _ZNK13QsciScintilla29autoCompletionCaseSensitivityEv@Base 2.8.4
 _ZNK13QsciScintilla4textEi@Base 2.8.4
 _ZNK13QsciScintilla4textEv@Base 2.8.4
 _ZNK13QsciScintilla5colorEv@Base 2.8.4
 _ZNK13QsciScintilla5lexerEv@Base 2.8.4
 _ZNK13QsciScintilla5linesEv@Base 2.8.4
 _ZNK13QsciScintilla5paperEv@Base 2.8.4
 _ZNK13QsciScintilla5writeEP9QIODevice@Base 2.8.4
 _ZNK13QsciScintilla6isUtf8Ev@Base 2.8.4
 _ZNK13QsciScintilla6lengthEv@Base 2.8.4
 _ZNK13QsciScintilla6lineAtERK6QPoint@Base 2.8.4
 _ZNK13QsciScintilla7eolModeEv@Base 2.8.4
 _ZNK13QsciScintilla7getWordERi@Base 2.8.4
 _ZNK13QsciScintilla8edgeModeEv@Base 2.8.4
 _ZNK13QsciScintilla8tabWidthEv@Base 2.8.4
 _ZNK13QsciScintilla8wrapModeEv@Base 2.8.4
 _ZNK13QsciScintilla9edgeColorEv@Base 2.8.4
 _ZNK13ScintillaBase22AutoCompleteGetCurrentEv@Base 2.8.4
 _ZNK13ScintillaBase26AutoCompleteGetCurrentTextEPc@Base 2.8.4
 _ZNK13SelectionText20LengthWithTerminatorEv@Base 2.8.4
 _ZNK13SelectionText4DataEv@Base 2.8.4
 _ZNK13SelectionText6LengthEv@Base 2.8.4
 _ZNK14AutoLineLayoutcvP10LineLayoutEv@Base 2.8.4
 _ZNK14AutoLineLayoutptEv@Base 2.8.4
 _ZNK14DecorationList15GetCurrentValueEv@Base 2.8.4
 _ZNK14DecorationList19GetCurrentIndicatorEv@Base 2.8.4
 _ZNK14DecorationList8AllOnForEi@Base 2.8.4
 _ZNK14LineAnnotation14MultipleStylesEi@Base 2.8.4
 _ZNK14LineAnnotation4TextEi@Base 2.8.4
 _ZNK14LineAnnotation5LinesEi@Base 2.8.4
 _ZNK14LineAnnotation5StyleEi@Base 2.8.4
 _ZNK14LineAnnotation6LengthEi@Base 2.8.4
 _ZNK14LineAnnotation6StylesEi@Base 2.8.4
 _ZNK14QDesktopWidget17availableGeometryERK6QPoint@Base 2.8.4
 _ZNK14QScopedPointerI10QBrushData24QBrushDataPointerDeleterEptEv@Base 2.8.4
 _ZNK14QScopedPointerI11QObjectData21QScopedPointerDeleterIS0_EEptEv@Base 2.8.4
 _ZNK14QsciCommandSet4findEN11QsciCommand7CommandE@Base 2.8.4
 _ZNK14QsciCommandSet7boundToEi@Base 2.8.4
 _ZNK14QsciLexerBatch10metaObjectEv@Base 2.8.4
 _ZNK14QsciLexerBatch11defaultFontEi@Base 2.8.4
 _ZNK14QsciLexerBatch11descriptionEi@Base 2.8.4
 _ZNK14QsciLexerBatch12defaultColorEi@Base 2.8.4
 _ZNK14QsciLexerBatch12defaultPaperEi@Base 2.8.4
 _ZNK14QsciLexerBatch13caseSensitiveEv@Base 2.8.4
 _ZNK14QsciLexerBatch14defaultEolFillEi@Base 2.8.4
 _ZNK14QsciLexerBatch14wordCharactersEv@Base 2.8.4
 _ZNK14QsciLexerBatch5lexerEv@Base 2.8.4
 _ZNK14QsciLexerBatch8keywordsEi@Base 2.8.4
 _ZNK14QsciLexerBatch8languageEv@Base 2.8.4
 _ZNK14QsciLexerCMake10foldAtElseEv@Base 2.8.4
 _ZNK14QsciLexerCMake10metaObjectEv@Base 2.8.4
 _ZNK14QsciLexerCMake11defaultFontEi@Base 2.8.4
 _ZNK14QsciLexerCMake11descriptionEi@Base 2.8.4
 _ZNK14QsciLexerCMake12defaultColorEi@Base 2.8.4
 _ZNK14QsciLexerCMake12defaultPaperEi@Base 2.8.4
 _ZNK14QsciLexerCMake15writePropertiesER9QSettingsRK7QString@Base 2.8.4
 _ZNK14QsciLexerCMake5lexerEv@Base 2.8.4
 _ZNK14QsciLexerCMake8keywordsEi@Base 2.8.4
 _ZNK14QsciLexerCMake8languageEv@Base 2.8.4
 _ZNK14QsciLexerSpice10braceStyleEv@Base 2.8.4
 _ZNK14QsciLexerSpice10metaObjectEv@Base 2.8.4
 _ZNK14QsciLexerSpice11defaultFontEi@Base 2.8.4
 _ZNK14QsciLexerSpice11descriptionEi@Base 2.8.4
 _ZNK14QsciLexerSpice12defaultColorEi@Base 2.8.4
 _ZNK14QsciLexerSpice5lexerEv@Base 2.8.4
 _ZNK14QsciLexerSpice8keywordsEi@Base 2.8.4
 _ZNK14QsciLexerSpice8languageEv@Base 2.8.4
 _ZNK14QsciSciCallTip10metaObjectEv@Base 2.8.4
 _ZNK14QsciSciListBox10metaObjectEv@Base 2.8.4
 _ZNK14QsciStyledText4textEv@Base 2.8.4
 _ZNK14QsciStyledText5applyEP17QsciScintillaBase@Base 2.8.4
 _ZNK14QsciStyledText5styleEv@Base 2.8.4
 _ZNK14SelectionRange17ContainsCharacterEi@Base 2.8.4
 _ZNK14SelectionRange3EndEv@Base 2.8.4
 _ZNK14SelectionRange5EmptyEv@Base 2.8.4
 _ZNK14SelectionRange5StartEv@Base 2.8.4
 _ZNK14SelectionRange6LengthEv@Base 2.8.4
 _ZNK14SelectionRange8ContainsE17SelectionPosition@Base 2.8.4
 _ZNK14SelectionRange8ContainsEi@Base 2.8.4
 _ZNK14SelectionRange9IntersectE16SelectionSegment@Base 2.8.4
 _ZNK14SelectionRangeeqERKS_@Base 2.8.4
 _ZNK14SelectionRangeltERKS_@Base 2.8.4
 _ZNK14StyleAndColoureqERKS_@Base 2.9
 _ZNK14WordClassifier13IncludesStyleEi@Base 2.8.4
 _ZNK14WordClassifier4BaseEv@Base 2.8.4
 _ZNK14WordClassifier5StartEv@Base 2.8.4
 _ZNK14WordClassifier6LengthEv@Base 2.8.4
 _ZNK14WordClassifier8ValueForERKNSt7__cxx1112basic_stringIcSt11char_traitsIcESaIcEEE@Base 2.9
 _ZNK15LineLayoutCache8GetLevelEv@Base 2.8.4
 _ZNK15MarkerHandleSet6LengthEv@Base 2.8.4
 _ZNK15MarkerHandleSet8ContainsEi@Base 2.8.4
 _ZNK15MarkerHandleSet9MarkValueEv@Base 2.8.4
 _ZNK15QListWidgetItem4textEv@Base 2.8.4
 _ZNK15QTextCharFormat14underlineColorEv@Base 2.8.4
 _ZNK15QTextCharFormat14underlineStyleEv@Base 2.8.4
 _ZNK15QVarLengthArrayIcLi1024EE9constDataEv@Base 2.8.4
 _ZNK15QsciLexerCSharp10metaObjectEv@Base 2.8.4
 _ZNK15QsciLexerCSharp11defaultFontEi@Base 2.8.4
 _ZNK15QsciLexerCSharp11descriptionEi@Base 2.8.4
 _ZNK15QsciLexerCSharp12defaultColorEi@Base 2.8.4
 _ZNK15QsciLexerCSharp12defaultPaperEi@Base 2.8.4
 _ZNK15QsciLexerCSharp14defaultEolFillEi@Base 2.8.4
 _ZNK15QsciLexerCSharp8keywordsEi@Base 2.8.4
 _ZNK15QsciLexerCSharp8languageEv@Base 2.8.4
 _ZNK15QsciLexerCustom10metaObjectEv@Base 2.8.4
 _ZNK15QsciLexerCustom15styleBitsNeededEv@Base 2.8.4
 _ZNK15QsciLexerMatlab10metaObjectEv@Base 2.8.4
 _ZNK15QsciLexerMatlab11defaultFontEi@Base 2.8.4
 _ZNK15QsciLexerMatlab11descriptionEi@Base 2.8.4
 _ZNK15QsciLexerMatlab12defaultColorEi@Base 2.8.4
 _ZNK15QsciLexerMatlab5lexerEv@Base 2.8.4
 _ZNK15QsciLexerMatlab8keywordsEi@Base 2.8.4
 _ZNK15QsciLexerMatlab8languageEv@Base 2.8.4
 _ZNK15QsciLexerOctave10metaObjectEv@Base 2.8.4
 _ZNK15QsciLexerOctave5lexerEv@Base 2.8.4
 _ZNK15QsciLexerOctave8keywordsEi@Base 2.8.4
 _ZNK15QsciLexerOctave8languageEv@Base 2.8.4
 _ZNK15QsciLexerPascal10blockStartEPi@Base 2.8.4
 _ZNK15QsciLexerPascal10braceStyleEv@Base 2.8.4
 _ZNK15QsciLexerPascal10metaObjectEv@Base 2.8.4
 _ZNK15QsciLexerPascal11defaultFontEi@Base 2.8.4
 _ZNK15QsciLexerPascal11descriptionEi@Base 2.8.4
 _ZNK15QsciLexerPascal11foldCompactEv@Base 2.8.4
 _ZNK15QsciLexerPascal12defaultColorEi@Base 2.8.4
 _ZNK15QsciLexerPascal12defaultPaperEi@Base 2.8.4
 _ZNK15QsciLexerPascal12foldCommentsEv@Base 2.8.4
 _ZNK15QsciLexerPascal14defaultEolFillEi@Base 2.8.4
 _ZNK15QsciLexerPascal15writePropertiesER9QSettingsRK7QString@Base 2.8.4
 _ZNK15QsciLexerPascal16foldPreprocessorEv@Base 2.8.4
 _ZNK15QsciLexerPascal17blockStartKeywordEPi@Base 2.8.4
 _ZNK15QsciLexerPascal17smartHighlightingEv@Base 2.8.4
 _ZNK15QsciLexerPascal28autoCompletionWordSeparatorsEv@Base 2.8.4
 _ZNK15QsciLexerPascal5lexerEv@Base 2.8.4
 _ZNK15QsciLexerPascal8blockEndEPi@Base 2.8.4
 _ZNK15QsciLexerPascal8keywordsEi@Base 2.8.4
 _ZNK15QsciLexerPascal8languageEv@Base 2.8.4
 _ZNK15QsciLexerPython10blockStartEPi@Base 2.8.4
 _ZNK15QsciLexerPython10braceStyleEv@Base 2.8.4
 _ZNK15QsciLexerPython10metaObjectEv@Base 2.8.4
 _ZNK15QsciLexerPython11defaultFontEi@Base 2.8.4
 _ZNK15QsciLexerPython11descriptionEi@Base 2.8.4
 _ZNK15QsciLexerPython12defaultColorEi@Base 2.8.4
 _ZNK15QsciLexerPython12defaultPaperEi@Base 2.8.4
 _ZNK15QsciLexerPython13blockLookbackEv@Base 2.8.4
 _ZNK15QsciLexerPython14defaultEolFillEi@Base 2.8.4
 _ZNK15QsciLexerPython15writePropertiesER9QSettingsRK7QString@Base 2.8.4
 _ZNK15QsciLexerPython20indentationGuideViewEv@Base 2.8.4
 _ZNK15QsciLexerPython28autoCompletionWordSeparatorsEv@Base 2.8.4
 _ZNK15QsciLexerPython5lexerEv@Base 2.8.4
 _ZNK15QsciLexerPython8keywordsEi@Base 2.8.4
 _ZNK15QsciLexerPython8languageEv@Base 2.8.4
 _ZNK15QsciScintillaQt10metaObjectEv@Base 2.9
 _ZNK15QsciScintillaQt13mimeSelectionERK13SelectionText@Base 2.8.4
 _ZNK16ContractionState10GetVisibleEi@Base 2.8.4
 _ZNK16ContractionState10LinesInDocEv@Base 2.8.4
 _ZNK16ContractionState11GetExpandedEi@Base 2.8.4
 _ZNK16ContractionState11HiddenLinesEv@Base 2.8.4
 _ZNK16ContractionState14ContractedNextEi@Base 2.8.4
 _ZNK16ContractionState14DisplayFromDocEi@Base 2.8.4
 _ZNK16ContractionState14DocFromDisplayEi@Base 2.8.4
 _ZNK16ContractionState14LinesDisplayedEv@Base 2.8.4
 _ZNK16ContractionState18DisplayLastFromDocEi@Base 2.9
 _ZNK16ContractionState5CheckEv@Base 2.8.4
 _ZNK16ContractionState8OneToOneEv@Base 2.8.4
 _ZNK16ContractionState9GetHeightEi@Base 2.8.4
 _ZNK16QsciAPIsPrepared8apiWordsEiRK11QStringListb@Base 2.8.4
 _ZNK16QsciAbstractAPIs10metaObjectEv@Base 2.8.4
 _ZNK16QsciAbstractAPIs5lexerEv@Base 2.8.4
 _ZNK16QsciLexerFortran10metaObjectEv@Base 2.8.4
 _ZNK16QsciLexerFortran5lexerEv@Base 2.8.4
 _ZNK16QsciLexerFortran8keywordsEi@Base 2.8.4
 _ZNK16QsciLexerFortran8languageEv@Base 2.8.4
 _ZNK16QsciLexerVerilog10braceStyleEv@Base 2.8.4
 _ZNK16QsciLexerVerilog10metaObjectEv@Base 2.8.4
 _ZNK16QsciLexerVerilog11defaultFontEi@Base 2.8.4
 _ZNK16QsciLexerVerilog11descriptionEi@Base 2.8.4
 _ZNK16QsciLexerVerilog12defaultColorEi@Base 2.8.4
 _ZNK16QsciLexerVerilog12defaultPaperEi@Base 2.8.4
 _ZNK16QsciLexerVerilog14defaultEolFillEi@Base 2.8.4
 _ZNK16QsciLexerVerilog14wordCharactersEv@Base 2.8.4
 _ZNK16QsciLexerVerilog15writePropertiesER9QSettingsRK7QString@Base 2.8.4
 _ZNK16QsciLexerVerilog5lexerEv@Base 2.8.4
 _ZNK16QsciLexerVerilog8keywordsEi@Base 2.8.4
 _ZNK16QsciLexerVerilog8languageEv@Base 2.8.4
 _ZNK16SelectionSegment5EmptyEv@Base 2.8.4
 _ZNK17FontSpecificationeqERKS_@Base 2.8.4
 _ZNK17FontSpecificationltERKS_@Base 2.8.4
 _ZNK17LexerVisualProlog7VersionEv@Base 2.8.4
 _ZNK17QContextMenuEvent7globalXEv@Base 2.8.4
 _ZNK17QContextMenuEvent7globalYEv@Base 2.8.4
 _ZNK17QContextMenuEvent9globalPosEv@Base 2.8.4
 _ZNK17QInputMethodEvent10attributesEv@Base 2.8.4
 _ZNK17QInputMethodEvent12commitStringEv@Base 2.8.4
 _ZNK17QInputMethodEvent13preeditStringEv@Base 2.8.4
 _ZNK17QInputMethodEvent16replacementStartEv@Base 2.8.4
 _ZNK17QInputMethodEvent17replacementLengthEv@Base 2.8.4
 _ZNK17QsciLexerMakefile10metaObjectEv@Base 2.8.4
 _ZNK17QsciLexerMakefile11defaultFontEi@Base 2.8.4
 _ZNK17QsciLexerMakefile11descriptionEi@Base 2.8.4
 _ZNK17QsciLexerMakefile12defaultColorEi@Base 2.8.4
 _ZNK17QsciLexerMakefile12defaultPaperEi@Base 2.8.4
 _ZNK17QsciLexerMakefile14defaultEolFillEi@Base 2.8.4
 _ZNK17QsciLexerMakefile14wordCharactersEv@Base 2.8.4
 _ZNK17QsciLexerMakefile5lexerEv@Base 2.8.4
 _ZNK17QsciLexerMakefile8languageEv@Base 2.8.4
 _ZNK17QsciScintillaBase10metaObjectEv@Base 2.8.4
 _ZNK17QsciScintillaBase10toMimeDataERK10QByteArrayb@Base 2.8.4
 _ZNK17QsciScintillaBase11bytesAsTextEPKc@Base 2.8.4
 _ZNK17QsciScintillaBase11textAsBytesERK7QString@Base 2.8.4
 _ZNK17QsciScintillaBase12fromMimeDataEPK9QMimeDataRb@Base 2.8.4
 _ZNK17QsciScintillaBase13SendScintillaEjPKc@Base 2.8.4
 _ZNK17QsciScintillaBase13SendScintillaEjPKcS1_@Base 2.8.4
 _ZNK17QsciScintillaBase13SendScintillaEjRK6QColor@Base 2.8.4
 _ZNK17QsciScintillaBase13SendScintillaEji@Base 2.8.4
 _ZNK17QsciScintillaBase13SendScintillaEjl@Base 2.8.4
 _ZNK17QsciScintillaBase13SendScintillaEjllPc@Base 2.8.4
 _ZNK17QsciScintillaBase13SendScintillaEjmP8QPainterRK5QRectll@Base 2.8.4
 _ZNK17QsciScintillaBase13SendScintillaEjmPKc@Base 2.8.4
 _ZNK17QsciScintillaBase13SendScintillaEjmPv@Base 2.8.4
 _ZNK17QsciScintillaBase13SendScintillaEjmRK6QColor@Base 2.8.4
 _ZNK17QsciScintillaBase13SendScintillaEjmRK6QImage@Base 2.8.4
 _ZNK17QsciScintillaBase13SendScintillaEjmRK7QPixmap@Base 2.8.4
 _ZNK17QsciScintillaBase13SendScintillaEjml@Base 2.8.4
 _ZNK17QsciScintillaBase16inputMethodQueryEN2Qt16InputMethodQueryE@Base 2.8.4
 _ZNK17QsciScintillaBase21canInsertFromMimeDataEPK9QMimeData@Base 2.8.4
 _ZNK17QsciScintillaBase22SendScintillaPtrResultEj@Base 2.8.4
 _ZNK17SelectionPosition12VirtualSpaceEv@Base 2.8.4
 _ZNK17SelectionPosition7IsValidEv@Base 2.8.4
 _ZNK17SelectionPosition8PositionEv@Base 2.8.4
 _ZNK17SelectionPositioneqERKS_@Base 2.8.4
 _ZNK17SelectionPositiongeERKS_@Base 2.8.4
 _ZNK17SelectionPositiongtERKS_@Base 2.8.4
 _ZNK17SelectionPositionleERKS_@Base 2.8.4
 _ZNK17SelectionPositionltERKS_@Base 2.8.4
 _ZNK18HighlightDelimiter12NeedsDrawingEi@Base 2.8.4
 _ZNK18HighlightDelimiter17IsBodyOfFoldBlockEi@Base 2.8.4
 _ZNK18HighlightDelimiter17IsHeadOfFoldBlockEi@Base 2.8.4
 _ZNK18HighlightDelimiter17IsTailOfFoldBlockEi@Base 2.8.4
 _ZNK18HighlightDelimiter22IsFoldBlockHighlightedEi@Base 2.8.4
 _ZNK18PositionCacheEntry8RetrieveEjPKcjPf@Base 2.8.4
 _ZNK18PositionCacheEntry9NewerThanERKS_@Base 2.8.4
 _ZNK18QsciLexerFortran7710braceStyleEv@Base 2.8.4
 _ZNK18QsciLexerFortran7710metaObjectEv@Base 2.8.4
 _ZNK18QsciLexerFortran7711defaultFontEi@Base 2.8.4
 _ZNK18QsciLexerFortran7711descriptionEi@Base 2.8.4
 _ZNK18QsciLexerFortran7711foldCompactEv@Base 2.8.4
 _ZNK18QsciLexerFortran7712defaultColorEi@Base 2.8.4
 _ZNK18QsciLexerFortran7712defaultPaperEi@Base 2.8.4
 _ZNK18QsciLexerFortran7714defaultEolFillEi@Base 2.8.4
 _ZNK18QsciLexerFortran7715writePropertiesER9QSettingsRK7QString@Base 2.8.4
 _ZNK18QsciLexerFortran775lexerEv@Base 2.8.4
 _ZNK18QsciLexerFortran778keywordsEi@Base 2.8.4
 _ZNK18QsciLexerFortran778languageEv@Base 2.8.4
 _ZNK19QBasicAtomicIntegerIiE4loadEv@Base 2.8.4
 _ZNK19QListSpecialMethodsI7QStringE4joinE5QChar@Base 2.9.1
 _ZNK19QListSpecialMethodsI7QStringE4joinERKS0_@Base 2.9.1
 _ZNK19QListSpecialMethodsI7QStringE4selfEv@Base 2.9.1
 _ZNK19QsciLexerJavaScript10metaObjectEv@Base 2.8.4
 _ZNK19QsciLexerJavaScript11defaultFontEi@Base 2.8.4
 _ZNK19QsciLexerJavaScript11descriptionEi@Base 2.8.4
 _ZNK19QsciLexerJavaScript12defaultColorEi@Base 2.8.4
 _ZNK19QsciLexerJavaScript12defaultPaperEi@Base 2.8.4
 _ZNK19QsciLexerJavaScript14defaultEolFillEi@Base 2.8.4
 _ZNK19QsciLexerJavaScript8keywordsEi@Base 2.8.4
 _ZNK19QsciLexerJavaScript8languageEv@Base 2.8.4
 _ZNK19QsciLexerPostScript10braceStyleEv@Base 2.8.4
 _ZNK19QsciLexerPostScript10foldAtElseEv@Base 2.8.4
 _ZNK19QsciLexerPostScript10metaObjectEv@Base 2.8.4
 _ZNK19QsciLexerPostScript11defaultFontEi@Base 2.8.4
 _ZNK19QsciLexerPostScript11descriptionEi@Base 2.8.4
 _ZNK19QsciLexerPostScript11foldCompactEv@Base 2.8.4
 _ZNK19QsciLexerPostScript12defaultColorEi@Base 2.8.4
 _ZNK19QsciLexerPostScript12defaultPaperEi@Base 2.8.4
 _ZNK19QsciLexerPostScript15writePropertiesER9QSettingsRK7QString@Base 2.8.4
 _ZNK19QsciLexerPostScript5levelEv@Base 2.8.4
 _ZNK19QsciLexerPostScript5lexerEv@Base 2.8.4
 _ZNK19QsciLexerPostScript8keywordsEi@Base 2.8.4
 _ZNK19QsciLexerPostScript8languageEv@Base 2.8.4
 _ZNK19QsciLexerPostScript8tokenizeEv@Base 2.8.4
 _ZNK19QsciLexerProperties10metaObjectEv@Base 2.8.4
 _ZNK19QsciLexerProperties11defaultFontEi@Base 2.8.4
 _ZNK19QsciLexerProperties11descriptionEi@Base 2.8.4
 _ZNK19QsciLexerProperties12defaultColorEi@Base 2.8.4
 _ZNK19QsciLexerProperties12defaultPaperEi@Base 2.8.4
 _ZNK19QsciLexerProperties14defaultEolFillEi@Base 2.8.4
 _ZNK19QsciLexerProperties14wordCharactersEv@Base 2.8.4
 _ZNK19QsciLexerProperties15writePropertiesER9QSettingsRK7QString@Base 2.8.4
 _ZNK19QsciLexerProperties5lexerEv@Base 2.8.4
 _ZNK19QsciLexerProperties8languageEv@Base 2.8.4
 _ZNK21QsciLexerCoffeeScript10blockStartEPi@Base 2.8.4
 _ZNK21QsciLexerCoffeeScript10braceStyleEv@Base 2.8.4
 _ZNK21QsciLexerCoffeeScript10metaObjectEv@Base 2.8.4
 _ZNK21QsciLexerCoffeeScript11defaultFontEi@Base 2.8.4
 _ZNK21QsciLexerCoffeeScript11descriptionEi@Base 2.8.4
 _ZNK21QsciLexerCoffeeScript12defaultColorEi@Base 2.8.4
 _ZNK21QsciLexerCoffeeScript12defaultPaperEi@Base 2.8.4
 _ZNK21QsciLexerCoffeeScript14defaultEolFillEi@Base 2.8.4
 _ZNK21QsciLexerCoffeeScript14wordCharactersEv@Base 2.8.4
 _ZNK21QsciLexerCoffeeScript15writePropertiesER9QSettingsRK7QString@Base 2.8.4
 _ZNK21QsciLexerCoffeeScript17blockStartKeywordEPi@Base 2.8.4
 _ZNK21QsciLexerCoffeeScript28autoCompletionWordSeparatorsEv@Base 2.8.4
 _ZNK21QsciLexerCoffeeScript5lexerEv@Base 2.8.4
 _ZNK21QsciLexerCoffeeScript8blockEndEPi@Base 2.8.4
 _ZNK21QsciLexerCoffeeScript8keywordsEi@Base 2.8.4
 _ZNK21QsciLexerCoffeeScript8languageEv@Base 2.8.4
 _ZNK22SpecialRepresentations27RepresentationFromCharacterEPKcj@Base 2.9
 _ZNK22SpecialRepresentations8ContainsEPKcj@Base 2.9
 _ZNK3XPM6PixmapEv@Base 2.8.4
 _ZNK3XPM9GetHeightEv@Base 2.8.4
 _ZNK4QMapI7QString5QListI5QPairIjjEEE14const_iterator3keyEv@Base 2.8.4
 _ZNK4QMapI7QString5QListI5QPairIjjEEE14const_iterator5valueEv@Base 2.8.4
 _ZNK4QMapI7QString5QListI5QPairIjjEEE14const_iteratorneERKS6_@Base 2.8.4
 _ZNK4QMapI7QString5QListI5QPairIjjEEE3endEv@Base 2.8.4
 _ZNK4QMapI7QString5QListI5QPairIjjEEE4sizeEv@Base 2.8.4
 _ZNK4QMapI7QString5QListI5QPairIjjEEE5beginEv@Base 2.8.4
 _ZNK4QMapI7QString5QListI5QPairIjjEEE8iteratordeEv@Base 2.8.4
 _ZNK4QMapI7QStringS0_E14const_iterator3keyEv@Base 2.8.4
 _ZNK4QMapI7QStringS0_E14const_iterator5valueEv@Base 2.8.4
 _ZNK4QMapI7QStringS0_E14const_iteratorneERKS2_@Base 2.8.4
 _ZNK4QMapI7QStringS0_E8iteratordeEv@Base 2.8.4
 _ZNK4QMapIi7QPixmapE14const_iterator5valueEv@Base 2.8.4
 _ZNK4QMapIi7QPixmapE14const_iteratoreqERKS2_@Base 2.8.4
 _ZNK4QMapIi7QPixmapE14const_iteratorneERKS2_@Base 2.8.4
 _ZNK4QMapIiN9QsciLexer9StyleDataEE8iteratordeEv@Base 2.8.4
 _ZNK5QChar7isPrintEv@Base 2.8.4
 _ZNK5QChar7isSpaceEv@Base 2.8.4
 _ZNK5QFlagcviEv@Base 2.8.4
 _ZNK5QFlagcvjEv@Base 2.8.4
 _ZNK5QFont4boldEv@Base 2.8.4
 _ZNK5QFont6italicEv@Base 2.8.4
 _ZNK5QListI14QsciStyledTextE5countEv@Base 2.8.4
 _ZNK5QListI14QsciStyledTextEixEi@Base 2.8.4
 _ZNK5QListI5QPairIjjEE2atEi@Base 2.8.4
 _ZNK5QListI5QPairIjjEE4sizeEv@Base 2.8.4
 _ZNK5QListI5QPairIjjEE5countEv@Base 2.8.4
 _ZNK5QListI5QPairIjjEE7isEmptyEv@Base 2.8.4
 _ZNK5QListI5QPairIjjEEixEi@Base 2.8.4
 _ZNK5QListI7QStringE10constBeginEv@Base 2.8.4
 _ZNK5QListI7QStringE14const_iteratordeEv@Base 2.8.4
 _ZNK5QListI7QStringE14const_iteratoreqERKS2_@Base 2.8.4
 _ZNK5QListI7QStringE14const_iteratormiES2_@Base 2.8.4
 _ZNK5QListI7QStringE14const_iteratorneERKS2_@Base 2.8.4
 _ZNK5QListI7QStringE14const_iteratorplEi@Base 2.8.4
 _ZNK5QListI7QStringE15isValidIteratorERKNS1_8iteratorE@Base 2.8.4
 _ZNK5QListI7QStringE2atEi@Base 2.8.4
 _ZNK5QListI7QStringE3midEii@Base 2.8.4
 _ZNK5QListI7QStringE4sizeEv@Base 2.8.4
 _ZNK5QListI7QStringE5countEv@Base 2.8.4
 _ZNK5QListI7QStringE5firstEv@Base 2.8.4
 _ZNK5QListI7QStringE7indexOfERKS0_i@Base 2.8.4
 _ZNK5QListI7QStringE7isEmptyEv@Base 2.8.4
 _ZNK5QListI7QStringE8constEndEv@Base 2.8.4
 _ZNK5QListI7QStringE8iteratordeEv@Base 2.8.4
 _ZNK5QListI7QStringEixEi@Base 2.8.4
 _ZNK5QListI9QFileInfoE14const_iteratordeEv@Base 2.8.4
 _ZNK5QListI9QFileInfoE14const_iteratorneERKS2_@Base 2.8.4
 _ZNK5QListI9QFileInfoE3endEv@Base 2.8.4
 _ZNK5QListI9QFileInfoE5beginEv@Base 2.8.4
 _ZNK5QListIN17QInputMethodEvent9AttributeEE14const_iteratordeEv@Base 2.8.4
 _ZNK5QListIN17QInputMethodEvent9AttributeEE14const_iteratorneERKS3_@Base 2.8.4
 _ZNK5QListIN17QInputMethodEvent9AttributeEE3endEv@Base 2.8.4
 _ZNK5QListIN17QInputMethodEvent9AttributeEE5beginEv@Base 2.8.4
 _ZNK5QListIN9QsciMacro5MacroEE14const_iteratordeEv@Base 2.8.4
 _ZNK5QListIN9QsciMacro5MacroEE14const_iteratorneERKS3_@Base 2.8.4
 _ZNK5QListIN9QsciMacro5MacroEE3endEv@Base 2.8.4
 _ZNK5QListIN9QsciMacro5MacroEE5beginEv@Base 2.8.4
 _ZNK5QListIN9QsciMacro5MacroEE7isEmptyEv@Base 2.8.4
 _ZNK5QListIN9QsciMacro5MacroEE8iteratordeEv@Base 2.8.4
 _ZNK5QListIP11QsciCommandE2atEi@Base 2.8.4
 _ZNK5QListIP11QsciCommandE5countEv@Base 2.8.4
 _ZNK5QListIP15QListWidgetItemE4sizeEv@Base 2.8.4
 _ZNK5QListIP17QsciScintillaBaseE7indexOfERKS1_i@Base 2.8.4
 _ZNK5QListIP17QsciScintillaBaseE7isEmptyEv@Base 2.8.4
 _ZNK5QListIP17QsciScintillaBaseE8iteratordeEv@Base 2.8.4
 _ZNK5QListIiE5countEv@Base 2.8.4
 _ZNK5QListIiE7isEmptyEv@Base 2.8.4
 _ZNK5QListIiE8iteratordeEv@Base 2.8.4
 _ZNK5QListIiEixEi@Base 2.8.4
 _ZNK5QRect3topEv@Base 2.8.4
 _ZNK5QRect4leftEv@Base 2.8.4
 _ZNK5QRect5rightEv@Base 2.8.4
 _ZNK5QRect5widthEv@Base 2.8.4
 _ZNK5QRect6bottomEv@Base 2.8.4
 _ZNK5QRect6heightEv@Base 2.8.4
 _ZNK5QRect7topLeftEv@Base 2.8.4
 _ZNK5QSize5widthEv@Base 2.8.4
 _ZNK5QSize6heightEv@Base 2.8.4
 _ZNK5Range17ContainsCharacterEi@Base 2.8.4
 _ZNK5Range4LastEv@Base 2.9
 _ZNK5Range5FirstEv@Base 2.9
 _ZNK5Range5ValidEv@Base 2.8.4
 _ZNK5RangeeqERKS_@Base 2.9
 _ZNK5Style11IsProtectedEv@Base 2.8.4
 _ZNK5qLessI7QStringEclERKS0_S3_@Base 2.8.4
 _ZNK6Editor12MaxScrollPosEv@Base 2.9
 _ZNK6Editor13IsUnicodeModeEv@Base 2.8.4
 _ZNK6Editor13LinesOnScreenEv@Base 2.9
 _ZNK6Editor13LinesToScrollEv@Base 2.9
 _ZNK6Editor13TopLineOfMainEv@Base 2.8.4
 _ZNK6Editor13ValidCodePageEi@Base 2.8.4
 _ZNK6Editor14SelectionEmptyEv@Base 2.8.4
 _ZNK6Editor15CurrentPositionEv@Base 2.8.4
 _ZNK6Editor15GetHotSpotRangeEv@Base 2.9
 _ZNK6Editor15GetMarginCursorE5Point@Base 2.8.4
 _ZNK6Editor16GetTextRectangleEv@Base 2.9
 _ZNK6Editor16LineFromLocationE5Point@Base 2.8.4
 _ZNK6Editor16PointInSelMarginE5Point@Base 2.9
 _ZNK6Editor16UserVirtualSpaceEv@Base 2.8.4
 _ZNK6Editor17PositionAfterAreaE10PRectangle@Base 2.8.4
 _ZNK6Editor17PositionIsHotspotEi@Base 2.8.4
 _ZNK6Editor18ContractedFoldNextEi@Base 2.8.4
 _ZNK6Editor18GetClientRectangleEv@Base 2.9
 _ZNK6Editor21DocumentPointFromViewE5Point@Base 2.9
 _ZNK6Editor22GetVisibleOriginInMainEv@Base 2.9
 _ZNK6Editor22RangeContainsProtectedEii@Base 2.8.4
 _ZNK6Editor23MovePositionOutsideCharE17SelectionPositionib@Base 2.8.4
 _ZNK6Editor23MovePositionOutsideCharEiib@Base 2.8.4
 _ZNK6Editor25ClampPositionIntoDocumentE17SelectionPosition@Base 2.8.4
 _ZNK6Editor8CodePageEv@Base 2.8.4
 _ZNK6Editor8WrappingEv@Base 2.8.4
 _ZNK6Editor9RangeTextB5cxx11Eii@Base 2.9
 _ZNK6KeyMap4FindEii@Base 2.8.4
 _ZNK6LexerD7VersionEv@Base 2.8.4
 _ZNK6QBrush5colorEv@Base 2.8.4
 _ZNK6QColor7isValidEv@Base 2.8.4
 _ZNK6QEvent10isAcceptedEv@Base 2.8.4
 _ZNK6QEvent4typeEv@Base 2.8.4
 _ZNK6QFlagsIN10QArrayData16AllocationOptionEE8testFlagES1_@Base 2.8.4
 _ZNK6QFlagsIN2Qt10DropActionEEorES1_@Base 2.8.4
 _ZNK6QFlagsIN2Qt10WindowTypeEEcvjEv@Base 2.8.4
 _ZNK6QFlagsIN2Qt10WindowTypeEEorES1_@Base 2.8.4
 _ZNK6QFlagsIN2Qt15InputMethodHintEEorES1_@Base 2.8.4
 _ZNK6QFlagsIN2Qt16KeyboardModifierEEanES1_@Base 2.8.4
 _ZNK6QFlagsIN2Qt16KeyboardModifierEEanEj@Base 2.9.1
 _ZNK6QFlagsIN2Qt16KeyboardModifierEEcvjEv@Base 2.8.4
 _ZNK6QFlagsIN2Qt9MatchFlagEEorES1_@Base 2.8.4
 _ZNK6QFlagsIN9QIODevice12OpenModeFlagEEorES1_@Base 2.8.4
 _ZNK6QPoint15manhattanLengthEv@Base 2.8.4
 _ZNK6QPoint1xEv@Base 2.8.4
 _ZNK6QPoint1yEv@Base 2.8.4
 _ZNK6QTimer8isActiveEv@Base 2.8.4
 _ZNK6Window5GetIDEv@Base 2.8.4
 _ZNK6Window7CreatedEv@Base 2.8.4
 _ZNK7CallTip10NextTabPosEi@Base 2.8.4
 _ZNK7CallTip14IsTabCharacterEc@Base 2.8.4
 _ZNK7CallTip15UseStyleCallTipEv@Base 2.8.4
 _ZNK7QObject10disconnectEPKS_PKc@Base 2.8.4
 _ZNK7QObject6parentEv@Base 2.8.4
 _ZNK7QObject7connectEPKS_PKcS3_N2Qt14ConnectionTypeE@Base 2.8.4
 _ZNK7QObject8inheritsEPKc@Base 2.8.4
 _ZNK7QPointF1xEv@Base 2.8.4
 _ZNK7QPointF1yEv@Base 2.8.4
 _ZNK7QPointF7toPointEv@Base 2.8.4
 _ZNK7QString2atEi@Base 2.8.4
 _ZNK7QString3argEiii5QChar@Base 2.8.4
 _ZNK7QString4sizeEv@Base 2.8.4
 _ZNK7QString6isNullEv@Base 2.8.4
 _ZNK7QString6lengthEv@Base 2.8.4
 _ZNK7QString7isEmptyEv@Base 2.8.4
 _ZNK7QString9constDataEv@Base 2.8.4
 _ZNK7QVectorI7QPointFE10isDetachedEv@Base 2.8.4
 _ZNK7QVectorI7QPointFE4sizeEv@Base 2.8.4
 _ZNK7QVectorI7QPointFE9constDataEv@Base 2.8.4
 _ZNK7QVectorIlE10isDetachedEv@Base 2.8.4
 _ZNK7QVectorIlE4sizeEv@Base 2.8.4
 _ZNK7QVectorIlE7isEmptyEv@Base 2.8.4
 _ZNK7QWidget12parentWidgetEv@Base 2.8.4
 _ZNK7QWidget13testAttributeEN2Qt15WidgetAttributeE@Base 2.8.4
 _ZNK7QWidget8geometryEv@Base 2.8.4
 _ZNK7QWidget9isEnabledEv@Base 2.8.4
 _ZNK8Accessor14GetPropertyIntEPKci@Base 2.8.4
 _ZNK8Document10CountUTF16Eii@Base 2.9
 _ZNK8Document10InGoodUTF8EiRiS0_@Base 2.8.4
 _ZNK8Document10IndentSizeEv@Base 2.8.4
 _ZNK8Document10IsReadOnlyEv@Base 2.8.4
 _ZNK8Document10LinesTotalEv@Base 2.8.4
 _ZNK8Document10MarkerNextEii@Base 2.8.4
 _ZNK8Document11GapPositionEv@Base 2.8.4
 _ZNK8Document11IsSavePointEv@Base 2.8.4
 _ZNK8Document11IsWhiteLineEi@Base 2.8.4
 _ZNK8Document11IsWordEndAtEi@Base 2.8.4
 _ZNK8Document11SafeSegmentEPKcii@Base 2.8.4
 _ZNK8Document12GetCharRangeEPcii@Base 2.8.4
 _ZNK8Document12GetEndStyledEv@Base 2.8.4
 _ZNK8Document12GetLineStateEi@Base 2.8.4
 _ZNK8Document12NextPositionEii@Base 2.8.4
 _ZNK8Document13GetFoldParentEi@Base 2.8.4
 _ZNK8Document13GetStyleClockEv@Base 2.8.4
 _ZNK8Document13GetStyleRangeEPhii@Base 2.8.4
 _ZNK8Document13HasCaseFolderEv@Base 2.8.4
 _ZNK8Document13IsWordStartAtEi@Base 2.8.4
 _ZNK8Document13NextCharacterERii@Base 2.8.4
 _ZNK8Document13WordCharClassEh@Base 2.8.4
 _ZNK8Document14CodePageFamilyEv@Base 2.8.4
 _ZNK8Document14IsDBCSLeadByteEc@Base 2.8.4
 _ZNK8Document14VCHomePositionEi@Base 2.8.4
 _ZNK8Document15AnnotationLinesEi@Base 2.8.4
 _ZNK8Document15CountCharactersEii@Base 2.9
 _ZNK8Document15LineEndPositionEi@Base 2.8.4
 _ZNK8Document16ExtractCharacterEi@Base 2.9
 _ZNK8Document16IsCollectingUndoEv@Base 2.8.4
 _ZNK8Document16LineFromPositionEi@Base 2.8.4
 _ZNK8Document16MarginStyledTextEi@Base 2.8.4
 _ZNK8Document17IsLineEndPositionEi@Base 2.8.4
 _ZNK8Document18MatchesWordOptionsEbbii@Base 2.8.4
 _ZNK8Document19GetRelativePositionEii@Base 2.8.4
 _ZNK8Document19IsLineStartPositionEi@Base 2.9
 _ZNK8Document19IsPositionInLineEndEi@Base 2.8.4
 _ZNK8Document19IsWordPartSeparatorEc@Base 2.8.4
 _ZNK8Document19WatcherWithUserDataeqERKS0_@Base 2.8.4
 _ZNK8Document20AnnotationStyledTextEi@Base 2.8.4
 _ZNK8Document20GetCharacterAndWidthEiPi@Base 2.8.4
 _ZNK8Document21GetLineEndTypesActiveEv@Base 2.8.4
 _ZNK8Document21GetLineIndentPositionEi@Base 2.8.4
 _ZNK8Document21LineEndTypesSupportedEv@Base 2.8.4
 _ZNK8Document22GetLineEndTypesAllowedEv@Base 2.8.4
 _ZNK8Document23MovePositionOutsideCharEiib@Base 2.9
 _ZNK8Document24GetRelativePositionUTF16Eii@Base 2.9
 _ZNK8Document25ClampPositionIntoDocumentEi@Base 2.8.4
 _ZNK8Document6CharAtEi@Base 2.8.4
 _ZNK8Document6IsCrLfEi@Base 2.8.4
 _ZNK8Document6LengthEv@Base 2.8.4
 _ZNK8Document6ParaUpEi@Base 2.8.4
 _ZNK8Document7CanRedoEv@Base 2.8.4
 _ZNK8Document7CanUndoEv@Base 2.8.4
 _ZNK8Document7LineEndEi@Base 2.8.4
 _ZNK8Document7StyleAtEi@Base 2.8.4
 _ZNK8Document7VersionEv@Base 2.8.4
 _ZNK8Document8CodePageEv@Base 2.8.4
 _ZNK8Document8GetLevelEi@Base 2.8.4
 _ZNK8Document8IsWordAtEii@Base 2.8.4
 _ZNK8Document8ParaDownEi@Base 2.8.4
 _ZNK8Document9LineStartEi@Base 2.8.4
 _ZNK8EditView10DrawCaretsEP7SurfaceRK9EditModelRK9ViewStylePK10LineLayoutii10PRectanglei@Base 2.9
 _ZNK8EditView12LinesOverlapEv@Base 2.9
 _ZNK8EditView14DrawBackgroundEP7SurfaceRK9EditModelRK9ViewStylePK10LineLayout10PRectangle5Rangeiii14ColourOptional@Base 2.9
 _ZNK8EditView14GetNextTabstopEii@Base 2.9
 _ZNK8EditView14NextTabstopPosEiff@Base 2.9
 _ZNK8LexState10PropGetIntEPKci@Base 2.8.4
 _ZNK8LexState15PropGetExpandedEPKcPc@Base 2.8.4
 _ZNK8LexState7GetNameEv@Base 2.8.4
 _ZNK8LexState7PropGetEPKc@Base 2.8.4
 _ZNK8LexerAsm7VersionEv@Base 2.8.4
 _ZNK8LexerCPP11SymbolValue7IsMacroEv@Base 2.9
 _ZNK8LexerCPP7VersionEv@Base 2.8.4
 _ZNK8LexerCPP8TokenizeERKNSt7__cxx1112basic_stringIcSt11char_traitsIcESaIcEEE@Base 2.9
 _ZNK8LexerSQL7VersionEv@Base 2.8.4
 _ZNK8QCharRef7isPrintEv@Base 2.8.4
 _ZNK8QCharRefcv5QCharEv@Base 2.8.4
 _ZNK8QMapDataI7QString5QListI5QPairIjjEEE4rootEv@Base 2.8.4
 _ZNK8QMapDataI7QString5QListI5QPairIjjEEE8findNodeERKS0_@Base 2.8.4
 _ZNK8QMapDataI7QStringS0_E4rootEv@Base 2.8.4
 _ZNK8QMapDataI7QStringS0_E8findNodeERKS0_@Base 2.8.4
 _ZNK8QMapDataIi7QPixmapE4rootEv@Base 2.8.4
 _ZNK8QMapDataIi7QPixmapE8findNodeERKi@Base 2.8.4
 _ZNK8QMapDataIiN9QsciLexer9StyleDataEE4rootEv@Base 2.8.4
 _ZNK8QMapDataIiN9QsciLexer9StyleDataEE8findNodeERKi@Base 2.8.4
 _ZNK8QMapNodeI7QString5QListI5QPairIjjEEE12previousNodeEv@Base 2.8.4
 _ZNK8QMapNodeI7QString5QListI5QPairIjjEEE4copyEP8QMapDataIS0_S4_E@Base 2.8.4
 _ZNK8QMapNodeI7QString5QListI5QPairIjjEEE8leftNodeEv@Base 2.8.4
 _ZNK8QMapNodeI7QString5QListI5QPairIjjEEE8nextNodeEv@Base 2.8.4
 _ZNK8QMapNodeI7QString5QListI5QPairIjjEEE9rightNodeEv@Base 2.8.4
 _ZNK8QMapNodeI7QStringS0_E4copyEP8QMapDataIS0_S0_E@Base 2.8.4
 _ZNK8QMapNodeI7QStringS0_E8leftNodeEv@Base 2.8.4
 _ZNK8QMapNodeI7QStringS0_E8nextNodeEv@Base 2.8.4
 _ZNK8QMapNodeI7QStringS0_E9rightNodeEv@Base 2.8.4
 _ZNK8QMapNodeIi7QPixmapE4copyEP8QMapDataIiS0_E@Base 2.8.4
 _ZNK8QMapNodeIi7QPixmapE8leftNodeEv@Base 2.8.4
 _ZNK8QMapNodeIi7QPixmapE8nextNodeEv@Base 2.8.4
 _ZNK8QMapNodeIi7QPixmapE9rightNodeEv@Base 2.8.4
 _ZNK8QMapNodeIiN9QsciLexer9StyleDataEE4copyEP8QMapDataIiS1_E@Base 2.8.4
 _ZNK8QMapNodeIiN9QsciLexer9StyleDataEE8leftNodeEv@Base 2.8.4
 _ZNK8QMapNodeIiN9QsciLexer9StyleDataEE9rightNodeEv@Base 2.8.4
 _ZNK8QPalette15highlightedTextEv@Base 2.8.4
 _ZNK8QPalette4baseEv@Base 2.8.4
 _ZNK8QPalette4textEv@Base 2.8.4
 _ZNK8QPalette5brushENS_9ColorRoleE@Base 2.8.4
 _ZNK8QPalette5colorENS_10ColorGroupENS_9ColorRoleE@Base 2.8.4
 _ZNK8QPalette9highlightEv@Base 2.8.4
 _ZNK8QPointerI9QsciLexerE4dataEv@Base 2.8.4
 _ZNK8QPointerI9QsciLexerE6isNullEv@Base 2.8.4
 _ZNK8QPointerI9QsciLexerEcvPS0_Ev@Base 2.8.4
 _ZNK8QPointerI9QsciLexerEptEv@Base 2.8.4
 _ZNK8QVariant5valueI11QTextFormatEET_v@Base 2.8.4
 _ZNK8QsciAPIs10isPreparedERK7QString@Base 2.8.4
 _ZNK8QsciAPIs10metaObjectEv@Base 2.8.4
 _ZNK8QsciAPIs11wordIndexOfERK7QString@Base 2.8.4
 _ZNK8QsciAPIs12savePreparedERK7QString@Base 2.8.4
 _ZNK8QsciAPIs17installedAPIFilesEv@Base 2.8.4
 _ZNK8QsciAPIs19defaultPreparedNameEv@Base 2.8.4
 _ZNK8QsciAPIs8prepNameERK7QStringb@Base 2.8.4
 _ZNK8RESearch7iswordcEh@Base 2.8.4
 _ZNK8VarChain8containsEPKc@Base 2.8.4
 _ZNK8WordList17InListAbbreviatedEPKcc@Base 2.8.4
 _ZNK8WordList6InListEPKc@Base 2.8.4
 _ZNK8WordList6LengthEv@Base 2.8.4
 _ZNK8WordList6WordAtEi@Base 2.8.4
 _ZNK8WordListcvbEv@Base 2.8.4
 _ZNK8WordListneERKS_@Base 2.8.4
 _ZNK9Indicator17OverridesTextForeEv@Base 2.9
 _ZNK9Indicator4DrawEP7SurfaceRK10PRectangleS4_NS_9DrawStateEi@Base 2.9
 _ZNK9Indicator5FlagsEv@Base 2.9
 _ZNK9Indicator9IsDynamicEv@Base 2.9
 _ZNK9LexerBase7VersionEv@Base 2.8.4
 _ZNK9LexerDMIS7VersionEv@Base 2.9
 _ZNK9LexerPerl7VersionEv@Base 2.8.4
 _ZNK9LexerRust7VersionEv@Base 2.8.4
 _ZNK9LineState15GetMaxLineStateEv@Base 2.8.4
 _ZNK9OptionSetI10OptionsAsmE13PropertyNamesEv@Base 2.8.4
 _ZNK9OptionSetI10OptionsAsmE20DescribeWordListSetsEv@Base 2.8.4
 _ZNK9OptionSetI10OptionsAsmE6Option3SetEPS0_PKc@Base 2.8.4
 _ZNK9OptionSetI10OptionsSQLE13PropertyNamesEv@Base 2.8.4
 _ZNK9OptionSetI10OptionsSQLE20DescribeWordListSetsEv@Base 2.8.4
 _ZNK9OptionSetI10OptionsSQLE6Option3SetEPS0_PKc@Base 2.8.4
 _ZNK9OptionSetI11OptionsPerlE13PropertyNamesEv@Base 2.8.4
 _ZNK9OptionSetI11OptionsPerlE20DescribeWordListSetsEv@Base 2.8.4
 _ZNK9OptionSetI11OptionsPerlE6Option3SetEPS0_PKc@Base 2.8.4
 _ZNK9OptionSetI11OptionsRustE13PropertyNamesEv@Base 2.8.4
 _ZNK9OptionSetI11OptionsRustE20DescribeWordListSetsEv@Base 2.8.4
 _ZNK9OptionSetI11OptionsRustE6Option3SetEPS0_PKc@Base 2.8.4
 _ZNK9OptionSetI12OptionsBasicE13PropertyNamesEv@Base 2.8.4
 _ZNK9OptionSetI12OptionsBasicE20DescribeWordListSetsEv@Base 2.8.4
 _ZNK9OptionSetI12OptionsBasicE6Option3SetEPS0_PKc@Base 2.8.4
 _ZNK9OptionSetI14OptionsHaskellE13PropertyNamesEv@Base 2.8.4
 _ZNK9OptionSetI14OptionsHaskellE20DescribeWordListSetsEv@Base 2.8.4
 _ZNK9OptionSetI14OptionsHaskellE6Option3SetEPS0_PKc@Base 2.8.4
 _ZNK9OptionSetI15OptionsRegistryE13PropertyNamesEv@Base 2.9
 _ZNK9OptionSetI15OptionsRegistryE20DescribeWordListSetsEv@Base 2.9
 _ZNK9OptionSetI15OptionsRegistryE6Option3SetEPS0_PKc@Base 2.9
 _ZNK9OptionSetI19OptionsVisualPrologE13PropertyNamesEv@Base 2.8.4
 _ZNK9OptionSetI19OptionsVisualPrologE20DescribeWordListSetsEv@Base 2.8.4
 _ZNK9OptionSetI19OptionsVisualPrologE6Option3SetEPS0_PKc@Base 2.8.4
 _ZNK9OptionSetI8OptionsDE13PropertyNamesEv@Base 2.8.4
 _ZNK9OptionSetI8OptionsDE20DescribeWordListSetsEv@Base 2.8.4
 _ZNK9OptionSetI8OptionsDE6Option3SetEPS0_PKc@Base 2.8.4
 _ZNK9QKeyEvent3keyEv@Base 2.8.4
 _ZNK9QKeyEvent4textEv@Base 2.8.4
 _ZNK9QListData2atEi@Base 2.8.4
 _ZNK9QListData3endEv@Base 2.8.4
 _ZNK9QListData4sizeEv@Base 2.8.4
 _ZNK9QListData5beginEv@Base 2.8.4
 _ZNK9QListData7isEmptyEv@Base 2.8.4
 _ZNK9QTextLine9cursorToXEiNS_4EdgeE@Base 2.8.4
 _ZNK9QsciLexer10blockStartEPi@Base 2.8.4
 _ZNK9QsciLexer10braceStyleEv@Base 2.8.4
 _ZNK9QsciLexer10metaObjectEv@Base 2.8.4
 _ZNK9QsciLexer11defaultFontEi@Base 2.8.4
 _ZNK9QsciLexer11defaultFontEv@Base 2.8.4
 _ZNK9QsciLexer12defaultColorEi@Base 2.8.4
 _ZNK9QsciLexer12defaultColorEv@Base 2.8.4
 _ZNK9QsciLexer12defaultPaperEi@Base 2.8.4
 _ZNK9QsciLexer12defaultPaperEv@Base 2.8.4
 _ZNK9QsciLexer12defaultStyleEv@Base 2.8.4
 _ZNK9QsciLexer13blockLookbackEv@Base 2.8.4
 _ZNK9QsciLexer13caseSensitiveEv@Base 2.8.4
 _ZNK9QsciLexer13writeSettingsER9QSettingsPKc@Base 2.8.4
 _ZNK9QsciLexer14defaultEolFillEi@Base 2.8.4
 _ZNK9QsciLexer14wordCharactersEv@Base 2.8.4
 _ZNK9QsciLexer15styleBitsNeededEv@Base 2.8.4
 _ZNK9QsciLexer15writePropertiesER9QSettingsRK7QString@Base 2.8.4
 _ZNK9QsciLexer16setStyleDefaultsEv@Base 2.8.4
 _ZNK9QsciLexer17blockStartKeywordEPi@Base 2.8.4
 _ZNK9QsciLexer20indentationGuideViewEv@Base 2.8.4
 _ZNK9QsciLexer21autoCompletionFillupsEv@Base 2.8.4
 _ZNK9QsciLexer28autoCompletionWordSeparatorsEv@Base 2.8.4
 _ZNK9QsciLexer4apisEv@Base 2.8.4
 _ZNK9QsciLexer4fontEi@Base 2.8.4
 _ZNK9QsciLexer5colorEi@Base 2.8.4
 _ZNK9QsciLexer5lexerEv@Base 2.8.4
 _ZNK9QsciLexer5paperEi@Base 2.8.4
 _ZNK9QsciLexer6editorEv@Base 2.8.4
 _ZNK9QsciLexer7eolFillEi@Base 2.8.4
 _ZNK9QsciLexer7lexerIdEv@Base 2.8.4
 _ZNK9QsciLexer8blockEndEPi@Base 2.8.4
 _ZNK9QsciLexer8keywordsEi@Base 2.8.4
 _ZNK9QsciLexer9styleDataEi@Base 2.8.4
 _ZNK9QsciMacro10metaObjectEv@Base 2.8.4
 _ZNK9QsciMacro4saveEv@Base 2.8.4
 _ZNK9QsciStyle5applyEP17QsciScintillaBase@Base 2.8.4
 _ZNK9QsciStyle5styleEv@Base 2.8.4
 _ZNK9QtPrivate8RefCount10isSharableEv@Base 2.8.4
 _ZNK9QtPrivate8RefCount8isSharedEv@Base 2.8.4
 _ZNK9QtPrivate8RefCount8isStaticEv@Base 2.8.4
 _ZNK9RGBAImage14GetScaledWidthEv@Base 2.8.4
 _ZNK9RGBAImage15GetScaledHeightEv@Base 2.8.4
 _ZNK9RGBAImage6PixelsEv@Base 2.8.4
 _ZNK9RGBAImage8GetWidthEv@Base 2.8.4
 _ZNK9RGBAImage9GetHeightEv@Base 2.8.4
 _ZNK9RunStyles14FindNextChangeEii@Base 2.8.4
 _ZNK9RunStyles15RunFromPositionEi@Base 2.8.4
 _ZNK9RunStyles4FindEii@Base 2.8.4
 _ZNK9RunStyles4RunsEv@Base 2.8.4
 _ZNK9RunStyles5CheckEv@Base 2.8.4
 _ZNK9RunStyles6EndRunEi@Base 2.8.4
 _ZNK9RunStyles6LengthEv@Base 2.8.4
 _ZNK9RunStyles7AllSameEv@Base 2.8.4
 _ZNK9RunStyles7ValueAtEi@Base 2.8.4
 _ZNK9RunStyles8StartRunEi@Base 2.8.4
 _ZNK9RunStyles9AllSameAsEi@Base 2.8.4
 _ZNK9Selection10MainAnchorEv@Base 2.8.4
 _ZNK9Selection10RangesCopyEv@Base 2.8.4
 _ZNK9Selection11MoveExtendsEv@Base 2.8.4
 _ZNK9Selection13IsRectangularEv@Base 2.8.4
 _ZNK9Selection15VirtualSpaceForEi@Base 2.8.4
 _ZNK9Selection17InSelectionForEOLEi@Base 2.8.4
 _ZNK9Selection20CharacterInSelectionEi@Base 2.8.4
 _ZNK9Selection28LimitsForRectangularElseMainEv@Base 2.8.4
 _ZNK9Selection4LastEv@Base 2.8.4
 _ZNK9Selection4MainEv@Base 2.8.4
 _ZNK9Selection5CountEv@Base 2.8.4
 _ZNK9Selection5EmptyEv@Base 2.8.4
 _ZNK9Selection5RangeEj@Base 2.9
 _ZNK9Selection5StartEv@Base 2.9
 _ZNK9Selection6LengthEv@Base 2.8.4
 _ZNK9Selection6LimitsEv@Base 2.8.4
 _ZNK9Selection9MainCaretEv@Base 2.8.4
 _ZNK9Selection9RangeMainEv@Base 2.9
 _ZNK9SubStyles10ClassifierEi@Base 2.8.4
 _ZNK9SubStyles14BlockFromStyleEi@Base 2.8.4
 _ZNK9SubStyles18BlockFromBaseStyleEi@Base 2.8.4
 _ZNK9SubStyles9BaseStyleEi@Base 2.8.4
 _ZNK9UndoGroup6NeededEv@Base 2.8.4
 _ZNK9ViewStyle10BackgroundEibb@Base 2.9
 _ZNK9ViewStyle10ValidStyleEj@Base 2.9
 _ZNK9ViewStyle10WrapColourEv@Base 2.8.4
 _ZNK9ViewStyle16ProtectionActiveEv@Base 2.8.4
 _ZNK9ViewStyle19ExternalMarginWidthEv@Base 2.8.4
 _ZNK9ViewStyle24SelectionBackgroundDrawnEv@Base 2.9
 _ZNK9ViewStyle25WhitespaceBackgroundDrawnEv@Base 2.9
 _ZNK9__gnu_cxx13new_allocatorI13latexFoldSaveE8max_sizeEv@Base 2.8.4
 _ZNK9__gnu_cxx13new_allocatorI14SelectionRangeE8max_sizeEv@Base 2.8.4
 _ZNK9__gnu_cxx13new_allocatorI14WordClassifierE8max_sizeEv@Base 2.8.4
 _ZNK9__gnu_cxx13new_allocatorI18PositionCacheEntryE8max_sizeEv@Base 2.8.4
 _ZNK9__gnu_cxx13new_allocatorI5StyleE8max_sizeEv@Base 2.8.4
 _ZNK9__gnu_cxx13new_allocatorI9DrawPhaseE8max_sizeEv@Base 2.9
 _ZNK9__gnu_cxx13new_allocatorIN11SparseStateINSt7__cxx1112basic_stringIcSt11char_traitsIcESaIcEEEE5StateEE8max_sizeEv@Base 2.9
 _ZNK9__gnu_cxx13new_allocatorIN11SparseStateIjE5StateEE8max_sizeEv@Base 2.8.4
 _ZNK9__gnu_cxx13new_allocatorIN8Document19WatcherWithUserDataEE8max_sizeEv@Base 2.8.4
 _ZNK9__gnu_cxx13new_allocatorINSt7__cxx1112basic_stringIcSt11char_traitsIcESaIcEEEE8max_sizeEv@Base 2.9
 _ZNK9__gnu_cxx13new_allocatorIP10LineLayoutE8max_sizeEv@Base 2.8.4
 _ZNK9__gnu_cxx13new_allocatorIP11LexerModuleE8max_sizeEv@Base 2.8.4
 _ZNK9__gnu_cxx13new_allocatorIP14SelectionRangeE8max_sizeEv@Base 2.8.4
 _ZNK9__gnu_cxx13new_allocatorIPcE8max_sizeEv@Base 2.8.4
 _ZNK9__gnu_cxx13new_allocatorISt13_Rb_tree_nodeISt4pairIK12KeyModifiersjEEE8max_sizeEv@Base 2.9
 _ZNK9__gnu_cxx13new_allocatorISt13_Rb_tree_nodeISt4pairIK17FontSpecificationP12FontRealisedEEE8max_sizeEv@Base 2.8.4
 _ZNK9__gnu_cxx13new_allocatorISt13_Rb_tree_nodeISt4pairIKNSt7__cxx1112basic_stringIcSt11char_traitsIcESaIcEEEN12LexerVerilog11SymbolValueEEEE8max_sizeEv@Base 2.9
 _ZNK9__gnu_cxx13new_allocatorISt13_Rb_tree_nodeISt4pairIKNSt7__cxx1112basic_stringIcSt11char_traitsIcESaIcEEEN8LexerCPP11SymbolValueEEEE8max_sizeEv@Base 2.9
 _ZNK9__gnu_cxx13new_allocatorISt13_Rb_tree_nodeISt4pairIKNSt7__cxx1112basic_stringIcSt11char_traitsIcESaIcEEEN9OptionSetI10OptionsAsmE6OptionEEEE8max_sizeEv@Base 2.9
 _ZNK9__gnu_cxx13new_allocatorISt13_Rb_tree_nodeISt4pairIKNSt7__cxx1112basic_stringIcSt11char_traitsIcESaIcEEEN9OptionSetI10OptionsSQLE6OptionEEEE8max_sizeEv@Base 2.9
 _ZNK9__gnu_cxx13new_allocatorISt13_Rb_tree_nodeISt4pairIKNSt7__cxx1112basic_stringIcSt11char_traitsIcESaIcEEEN9OptionSetI11OptionsPerlE6OptionEEEE8max_sizeEv@Base 2.9
 _ZNK9__gnu_cxx13new_allocatorISt13_Rb_tree_nodeISt4pairIKNSt7__cxx1112basic_stringIcSt11char_traitsIcESaIcEEEN9OptionSetI11OptionsRustE6OptionEEEE8max_sizeEv@Base 2.9
 _ZNK9__gnu_cxx13new_allocatorISt13_Rb_tree_nodeISt4pairIKNSt7__cxx1112basic_stringIcSt11char_traitsIcESaIcEEEN9OptionSetI12OptionsBasicE6OptionEEEE8max_sizeEv@Base 2.9
 _ZNK9__gnu_cxx13new_allocatorISt13_Rb_tree_nodeISt4pairIKNSt7__cxx1112basic_stringIcSt11char_traitsIcESaIcEEEN9OptionSetI14OptionsHaskellE6OptionEEEE8max_sizeEv@Base 2.9
 _ZNK9__gnu_cxx13new_allocatorISt13_Rb_tree_nodeISt4pairIKNSt7__cxx1112basic_stringIcSt11char_traitsIcESaIcEEEN9OptionSetI15OptionsRegistryE6OptionEEEE8max_sizeEv@Base 2.9
 _ZNK9__gnu_cxx13new_allocatorISt13_Rb_tree_nodeISt4pairIKNSt7__cxx1112basic_stringIcSt11char_traitsIcESaIcEEEN9OptionSetI8OptionsDE6OptionEEEE8max_sizeEv@Base 2.9
 _ZNK9__gnu_cxx13new_allocatorISt13_Rb_tree_nodeISt4pairIKNSt7__cxx1112basic_stringIcSt11char_traitsIcESaIcEEES8_EEE8max_sizeEv@Base 2.9
 _ZNK9__gnu_cxx13new_allocatorISt13_Rb_tree_nodeISt4pairIKNSt7__cxx1112basic_stringIcSt11char_traitsIcESaIcEEEiEEE8max_sizeEv@Base 2.9
 _ZNK9__gnu_cxx13new_allocatorISt13_Rb_tree_nodeISt4pairIKi14RepresentationEEE8max_sizeEv@Base 2.8.4
 _ZNK9__gnu_cxx13new_allocatorISt13_Rb_tree_nodeISt4pairIKiiEEE8max_sizeEv@Base 2.9
 _ZNK9__gnu_cxx13new_allocatorIcE8max_sizeEv@Base 2.8.4
 _ZNK9__gnu_cxx13new_allocatorIiE8max_sizeEv@Base 2.8.4
 _ZNK9__gnu_cxx16__aligned_membufISt4pairIK12KeyModifiersjEE6_M_ptrEv@Base 2.9.2+dfsg
 _ZNK9__gnu_cxx16__aligned_membufISt4pairIK12KeyModifiersjEE7_M_addrEv@Base 2.9.2+dfsg
 _ZNK9__gnu_cxx16__aligned_membufISt4pairIK17FontSpecificationP12FontRealisedEE6_M_ptrEv@Base 2.9.2+dfsg
 _ZNK9__gnu_cxx16__aligned_membufISt4pairIK17FontSpecificationP12FontRealisedEE7_M_addrEv@Base 2.9.2+dfsg
 _ZNK9__gnu_cxx16__aligned_membufISt4pairIKNSt7__cxx1112basic_stringIcSt11char_traitsIcESaIcEEEN12LexerVerilog11SymbolValueEEE6_M_ptrEv@Base 2.9.2+dfsg
 _ZNK9__gnu_cxx16__aligned_membufISt4pairIKNSt7__cxx1112basic_stringIcSt11char_traitsIcESaIcEEEN12LexerVerilog11SymbolValueEEE7_M_addrEv@Base 2.9.2+dfsg
 _ZNK9__gnu_cxx16__aligned_membufISt4pairIKNSt7__cxx1112basic_stringIcSt11char_traitsIcESaIcEEEN8LexerCPP11SymbolValueEEE6_M_ptrEv@Base 2.9.2+dfsg
 _ZNK9__gnu_cxx16__aligned_membufISt4pairIKNSt7__cxx1112basic_stringIcSt11char_traitsIcESaIcEEEN8LexerCPP11SymbolValueEEE7_M_addrEv@Base 2.9.2+dfsg
 _ZNK9__gnu_cxx16__aligned_membufISt4pairIKNSt7__cxx1112basic_stringIcSt11char_traitsIcESaIcEEEN9OptionSetI10OptionsAsmE6OptionEEE6_M_ptrEv@Base 2.9.2+dfsg
 _ZNK9__gnu_cxx16__aligned_membufISt4pairIKNSt7__cxx1112basic_stringIcSt11char_traitsIcESaIcEEEN9OptionSetI10OptionsAsmE6OptionEEE7_M_addrEv@Base 2.9.2+dfsg
 _ZNK9__gnu_cxx16__aligned_membufISt4pairIKNSt7__cxx1112basic_stringIcSt11char_traitsIcESaIcEEEN9OptionSetI10OptionsSQLE6OptionEEE6_M_ptrEv@Base 2.9.2+dfsg
 _ZNK9__gnu_cxx16__aligned_membufISt4pairIKNSt7__cxx1112basic_stringIcSt11char_traitsIcESaIcEEEN9OptionSetI10OptionsSQLE6OptionEEE7_M_addrEv@Base 2.9.2+dfsg
 _ZNK9__gnu_cxx16__aligned_membufISt4pairIKNSt7__cxx1112basic_stringIcSt11char_traitsIcESaIcEEEN9OptionSetI11OptionsPerlE6OptionEEE6_M_ptrEv@Base 2.9.2+dfsg
 _ZNK9__gnu_cxx16__aligned_membufISt4pairIKNSt7__cxx1112basic_stringIcSt11char_traitsIcESaIcEEEN9OptionSetI11OptionsPerlE6OptionEEE7_M_addrEv@Base 2.9.2+dfsg
 _ZNK9__gnu_cxx16__aligned_membufISt4pairIKNSt7__cxx1112basic_stringIcSt11char_traitsIcESaIcEEEN9OptionSetI11OptionsRustE6OptionEEE6_M_ptrEv@Base 2.9.2+dfsg
 _ZNK9__gnu_cxx16__aligned_membufISt4pairIKNSt7__cxx1112basic_stringIcSt11char_traitsIcESaIcEEEN9OptionSetI11OptionsRustE6OptionEEE7_M_addrEv@Base 2.9.2+dfsg
 _ZNK9__gnu_cxx16__aligned_membufISt4pairIKNSt7__cxx1112basic_stringIcSt11char_traitsIcESaIcEEEN9OptionSetI12OptionsBasicE6OptionEEE6_M_ptrEv@Base 2.9.2+dfsg
 _ZNK9__gnu_cxx16__aligned_membufISt4pairIKNSt7__cxx1112basic_stringIcSt11char_traitsIcESaIcEEEN9OptionSetI12OptionsBasicE6OptionEEE7_M_addrEv@Base 2.9.2+dfsg
 _ZNK9__gnu_cxx16__aligned_membufISt4pairIKNSt7__cxx1112basic_stringIcSt11char_traitsIcESaIcEEEN9OptionSetI14OptionsHaskellE6OptionEEE6_M_ptrEv@Base 2.9.2+dfsg
 _ZNK9__gnu_cxx16__aligned_membufISt4pairIKNSt7__cxx1112basic_stringIcSt11char_traitsIcESaIcEEEN9OptionSetI14OptionsHaskellE6OptionEEE7_M_addrEv@Base 2.9.2+dfsg
 _ZNK9__gnu_cxx16__aligned_membufISt4pairIKNSt7__cxx1112basic_stringIcSt11char_traitsIcESaIcEEEN9OptionSetI15OptionsRegistryE6OptionEEE6_M_ptrEv@Base 2.9.2+dfsg
 _ZNK9__gnu_cxx16__aligned_membufISt4pairIKNSt7__cxx1112basic_stringIcSt11char_traitsIcESaIcEEEN9OptionSetI15OptionsRegistryE6OptionEEE7_M_addrEv@Base 2.9.2+dfsg
 _ZNK9__gnu_cxx16__aligned_membufISt4pairIKNSt7__cxx1112basic_stringIcSt11char_traitsIcESaIcEEEN9OptionSetI19OptionsVisualPrologE6OptionEEE6_M_ptrEv@Base 2.9.2+dfsg
 _ZNK9__gnu_cxx16__aligned_membufISt4pairIKNSt7__cxx1112basic_stringIcSt11char_traitsIcESaIcEEEN9OptionSetI19OptionsVisualPrologE6OptionEEE7_M_addrEv@Base 2.9.2+dfsg
 _ZNK9__gnu_cxx16__aligned_membufISt4pairIKNSt7__cxx1112basic_stringIcSt11char_traitsIcESaIcEEEN9OptionSetI8OptionsDE6OptionEEE6_M_ptrEv@Base 2.9.2+dfsg
 _ZNK9__gnu_cxx16__aligned_membufISt4pairIKNSt7__cxx1112basic_stringIcSt11char_traitsIcESaIcEEEN9OptionSetI8OptionsDE6OptionEEE7_M_addrEv@Base 2.9.2+dfsg
 _ZNK9__gnu_cxx16__aligned_membufISt4pairIKNSt7__cxx1112basic_stringIcSt11char_traitsIcESaIcEEES7_EE6_M_ptrEv@Base 2.9.2+dfsg
 _ZNK9__gnu_cxx16__aligned_membufISt4pairIKNSt7__cxx1112basic_stringIcSt11char_traitsIcESaIcEEES7_EE7_M_addrEv@Base 2.9.2+dfsg
 _ZNK9__gnu_cxx16__aligned_membufISt4pairIKNSt7__cxx1112basic_stringIcSt11char_traitsIcESaIcEEEiEE6_M_ptrEv@Base 2.9.2+dfsg
 _ZNK9__gnu_cxx16__aligned_membufISt4pairIKNSt7__cxx1112basic_stringIcSt11char_traitsIcESaIcEEEiEE7_M_addrEv@Base 2.9.2+dfsg
 _ZNK9__gnu_cxx16__aligned_membufISt4pairIKi14RepresentationEE6_M_ptrEv@Base 2.9.2+dfsg
 _ZNK9__gnu_cxx16__aligned_membufISt4pairIKi14RepresentationEE7_M_addrEv@Base 2.9.2+dfsg
 _ZNK9__gnu_cxx16__aligned_membufISt4pairIKiiEE6_M_ptrEv@Base 2.9.2+dfsg
 _ZNK9__gnu_cxx16__aligned_membufISt4pairIKiiEE7_M_addrEv@Base 2.9.2+dfsg
 _ZNK9__gnu_cxx17__normal_iteratorIP14SelectionRangeSt6vectorIS1_SaIS1_EEE4baseEv@Base 2.8.4
 _ZNK9__gnu_cxx17__normal_iteratorIP14SelectionRangeSt6vectorIS1_SaIS1_EEEdeEv@Base 2.8.4
 _ZNK9__gnu_cxx17__normal_iteratorIP14SelectionRangeSt6vectorIS1_SaIS1_EEEmiEi@Base 2.9
 _ZNK9__gnu_cxx17__normal_iteratorIP14SelectionRangeSt6vectorIS1_SaIS1_EEEplEi@Base 2.9
 _ZNK9__gnu_cxx17__normal_iteratorIP14WordClassifierSt6vectorIS1_SaIS1_EEE4baseEv@Base 2.8.4
 _ZNK9__gnu_cxx17__normal_iteratorIP14WordClassifierSt6vectorIS1_SaIS1_EEEptEv@Base 2.8.4
 _ZNK9__gnu_cxx17__normal_iteratorIP9DrawPhaseSt6vectorIS1_SaIS1_EEE4baseEv@Base 2.9
 _ZNK9__gnu_cxx17__normal_iteratorIP9DrawPhaseSt6vectorIS1_SaIS1_EEEdeEv@Base 2.9
 _ZNK9__gnu_cxx17__normal_iteratorIPK14SelectionRangeSt6vectorIS1_SaIS1_EEE4baseEv@Base 2.8.4
 _ZNK9__gnu_cxx17__normal_iteratorIPK14SelectionRangeSt6vectorIS1_SaIS1_EEEdeEv@Base 2.8.4
 _ZNK9__gnu_cxx17__normal_iteratorIPK14WordClassifierSt6vectorIS1_SaIS1_EEE4baseEv@Base 2.8.4
 _ZNK9__gnu_cxx17__normal_iteratorIPK14WordClassifierSt6vectorIS1_SaIS1_EEEptEv@Base 2.8.4
 _ZNK9__gnu_cxx17__normal_iteratorIPK18PositionCacheEntrySt6vectorIS1_SaIS1_EEE4baseEv@Base 2.8.4
 _ZNK9__gnu_cxx17__normal_iteratorIPKN11SparseStateINSt7__cxx1112basic_stringIcSt11char_traitsIcESaIcEEEE5StateESt6vectorIS9_SaIS9_EEE4baseEv@Base 2.9
 _ZNK9__gnu_cxx17__normal_iteratorIPKN11SparseStateINSt7__cxx1112basic_stringIcSt11char_traitsIcESaIcEEEE5StateESt6vectorIS9_SaIS9_EEEdeEv@Base 2.9
 _ZNK9__gnu_cxx17__normal_iteratorIPKN11SparseStateINSt7__cxx1112basic_stringIcSt11char_traitsIcESaIcEEEE5StateESt6vectorIS9_SaIS9_EEEptEv@Base 2.9
 _ZNK9__gnu_cxx17__normal_iteratorIPKN11SparseStateIjE5StateESt6vectorIS3_SaIS3_EEE4baseEv@Base 2.8.4
 _ZNK9__gnu_cxx17__normal_iteratorIPKN8Document19WatcherWithUserDataESt6vectorIS2_SaIS2_EEE4baseEv@Base 2.9.2+dfsg
 _ZNK9__gnu_cxx17__normal_iteratorIPKNSt7__cxx1112basic_stringIcSt11char_traitsIcESaIcEEESt6vectorIS6_SaIS6_EEE4baseEv@Base 2.9
 _ZNK9__gnu_cxx17__normal_iteratorIPKP10LineLayoutSt6vectorIS2_SaIS2_EEE4baseEv@Base 2.8.4
 _ZNK9__gnu_cxx17__normal_iteratorIPKPcSt6vectorIS1_SaIS1_EEE4baseEv@Base 2.8.4
 _ZNK9__gnu_cxx17__normal_iteratorIPKPcSt6vectorIS1_SaIS1_EEEdeEv@Base 2.8.4
 _ZNK9__gnu_cxx17__normal_iteratorIPKcNSt7__cxx1112basic_stringIcSt11char_traitsIcESaIcEEEE4baseEv@Base 2.9
 _ZNK9__gnu_cxx17__normal_iteratorIPKcNSt7__cxx1112basic_stringIcSt11char_traitsIcESaIcEEEEdeEv@Base 2.9
 _ZNK9__gnu_cxx17__normal_iteratorIPKiSt6vectorIiSaIiEEE4baseEv@Base 2.8.4
 _ZNK9__gnu_cxx17__normal_iteratorIPN11SparseStateINSt7__cxx1112basic_stringIcSt11char_traitsIcESaIcEEEE5StateESt6vectorIS9_SaIS9_EEE4baseEv@Base 2.9
 _ZNK9__gnu_cxx17__normal_iteratorIPN11SparseStateINSt7__cxx1112basic_stringIcSt11char_traitsIcESaIcEEEE5StateESt6vectorIS9_SaIS9_EEEdeEv@Base 2.9
 _ZNK9__gnu_cxx17__normal_iteratorIPN11SparseStateINSt7__cxx1112basic_stringIcSt11char_traitsIcESaIcEEEE5StateESt6vectorIS9_SaIS9_EEEmiEi@Base 2.9
 _ZNK9__gnu_cxx17__normal_iteratorIPN11SparseStateINSt7__cxx1112basic_stringIcSt11char_traitsIcESaIcEEEE5StateESt6vectorIS9_SaIS9_EEEplEi@Base 2.9.2+dfsg
 _ZNK9__gnu_cxx17__normal_iteratorIPN11SparseStateINSt7__cxx1112basic_stringIcSt11char_traitsIcESaIcEEEE5StateESt6vectorIS9_SaIS9_EEEptEv@Base 2.9
 _ZNK9__gnu_cxx17__normal_iteratorIPN11SparseStateIjE5StateESt6vectorIS3_SaIS3_EEE4baseEv@Base 2.8.4
 _ZNK9__gnu_cxx17__normal_iteratorIPN11SparseStateIjE5StateESt6vectorIS3_SaIS3_EEEdeEv@Base 2.8.4
 _ZNK9__gnu_cxx17__normal_iteratorIPN11SparseStateIjE5StateESt6vectorIS3_SaIS3_EEEplEi@Base 2.9.2+dfsg
 _ZNK9__gnu_cxx17__normal_iteratorIPN11SparseStateIjE5StateESt6vectorIS3_SaIS3_EEEptEv@Base 2.8.4
 _ZNK9__gnu_cxx17__normal_iteratorIPN8Document19WatcherWithUserDataESt6vectorIS2_SaIS2_EEE4baseEv@Base 2.8.4
 _ZNK9__gnu_cxx17__normal_iteratorIPN8Document19WatcherWithUserDataESt6vectorIS2_SaIS2_EEEdeEv@Base 2.8.4
 _ZNK9__gnu_cxx17__normal_iteratorIPN8Document19WatcherWithUserDataESt6vectorIS2_SaIS2_EEEplEi@Base 2.9
 _ZNK9__gnu_cxx17__normal_iteratorIPN8Document19WatcherWithUserDataESt6vectorIS2_SaIS2_EEEptEv@Base 2.8.4
 _ZNK9__gnu_cxx17__normal_iteratorIPNSt7__cxx1112basic_stringIcSt11char_traitsIcESaIcEEESt6vectorIS6_SaIS6_EEE4baseEv@Base 2.9
 _ZNK9__gnu_cxx17__normal_iteratorIPNSt7__cxx1112basic_stringIcSt11char_traitsIcESaIcEEESt6vectorIS6_SaIS6_EEEdeEv@Base 2.9
 _ZNK9__gnu_cxx17__normal_iteratorIPNSt7__cxx1112basic_stringIcSt11char_traitsIcESaIcEEESt6vectorIS6_SaIS6_EEEmiEi@Base 2.9
 _ZNK9__gnu_cxx17__normal_iteratorIPNSt7__cxx1112basic_stringIcSt11char_traitsIcESaIcEEESt6vectorIS6_SaIS6_EEEplEi@Base 2.9
 _ZNK9__gnu_cxx17__normal_iteratorIPP11LexerModuleSt6vectorIS2_SaIS2_EEE4baseEv@Base 2.8.4
 _ZNK9__gnu_cxx17__normal_iteratorIPP11LexerModuleSt6vectorIS2_SaIS2_EEEdeEv@Base 2.8.4
 _ZNK9__gnu_cxx17__normal_iteratorIPP14SelectionRangeSt6vectorIS2_SaIS2_EEE4baseEv@Base 2.8.4
 _ZNK9__gnu_cxx17__normal_iteratorIPP14SelectionRangeSt6vectorIS2_SaIS2_EEEdeEv@Base 2.8.4
 _ZNK9__gnu_cxx17__normal_iteratorIPP14SelectionRangeSt6vectorIS2_SaIS2_EEEmiEi@Base 2.9
 _ZNK9__gnu_cxx17__normal_iteratorIPP14SelectionRangeSt6vectorIS2_SaIS2_EEEplEi@Base 2.9
 _ZNK9__gnu_cxx17__normal_iteratorIPPcSt6vectorIS1_SaIS1_EEE4baseEv@Base 2.8.4
 _ZNK9__gnu_cxx17__normal_iteratorIPcNSt7__cxx1112basic_stringIcSt11char_traitsIcESaIcEEEE4baseEv@Base 2.9
 _ZNK9__gnu_cxx17__normal_iteratorIPcNSt7__cxx1112basic_stringIcSt11char_traitsIcESaIcEEEEdeEv@Base 2.9
 _ZNK9__gnu_cxx17__normal_iteratorIPiSt6vectorIiSaIiEEE4baseEv@Base 2.8.4
 _ZNK9__gnu_cxx17__normal_iteratorIPiSt6vectorIiSaIiEEEdeEv@Base 2.8.4
 _ZNK9__gnu_cxx17__normal_iteratorIPiSt6vectorIiSaIiEEEmiEi@Base 2.9
 _ZNK9__gnu_cxx17__normal_iteratorIPiSt6vectorIiSaIiEEEplEi@Base 2.9
 _ZNK9__gnu_cxx5__ops14_Iter_less_valclINS_17__normal_iteratorIP14SelectionRangeSt6vectorIS4_SaIS4_EEEES4_EEbT_RT0_@Base 2.8.4
 _ZNK9__gnu_cxx5__ops14_Iter_less_valclINS_17__normal_iteratorIPN11SparseStateINSt7__cxx1112basic_stringIcSt11char_traitsIcESaIcEEEE5StateESt6vectorISC_SaISC_EEEEKSC_EEbT_RT0_@Base 2.9
 _ZNK9__gnu_cxx5__ops14_Iter_less_valclINS_17__normal_iteratorIPN11SparseStateIjE5StateESt6vectorIS6_SaIS6_EEEEKS6_EEbT_RT0_@Base 2.8.4
 _ZNK9__gnu_cxx5__ops14_Iter_less_valclINS_17__normal_iteratorIPiSt6vectorIiSaIiEEEEKiEEbT_RT0_@Base 2.8.4
 _ZNK9__gnu_cxx5__ops14_Iter_less_valclIPKiS3_EEbT_RT0_@Base 2.8.4
 _ZNK9__gnu_cxx5__ops14_Val_less_iterclI14SelectionRangeNS_17__normal_iteratorIPS3_St6vectorIS3_SaIS3_EEEEEEbRT_T0_@Base 2.8.4
 _ZNK9__gnu_cxx5__ops15_Iter_less_iterclINS_17__normal_iteratorIP14SelectionRangeSt6vectorIS4_SaIS4_EEEES9_EEbT_T0_@Base 2.8.4
 _ZNKR7QString6toUtf8Ev@Base 2.9.2+dfsg
 _ZNKR7QString8toLatin1Ev@Base 2.9.2+dfsg
 _ZNKSt10_Select1stISt4pairIK12KeyModifiersjEEclERKS3_@Base 2.9
 _ZNKSt10_Select1stISt4pairIK17FontSpecificationP12FontRealisedEEclERKS5_@Base 2.8.4
 _ZNKSt10_Select1stISt4pairIKNSt7__cxx1112basic_stringIcSt11char_traitsIcESaIcEEEN12LexerVerilog11SymbolValueEEEclERKSA_@Base 2.9
 _ZNKSt10_Select1stISt4pairIKNSt7__cxx1112basic_stringIcSt11char_traitsIcESaIcEEEN8LexerCPP11SymbolValueEEEclERKSA_@Base 2.9
 _ZNKSt10_Select1stISt4pairIKNSt7__cxx1112basic_stringIcSt11char_traitsIcESaIcEEEN9OptionSetI10OptionsAsmE6OptionEEEclERKSC_@Base 2.9
 _ZNKSt10_Select1stISt4pairIKNSt7__cxx1112basic_stringIcSt11char_traitsIcESaIcEEEN9OptionSetI10OptionsSQLE6OptionEEEclERKSC_@Base 2.9
 _ZNKSt10_Select1stISt4pairIKNSt7__cxx1112basic_stringIcSt11char_traitsIcESaIcEEEN9OptionSetI11OptionsPerlE6OptionEEEclERKSC_@Base 2.9
 _ZNKSt10_Select1stISt4pairIKNSt7__cxx1112basic_stringIcSt11char_traitsIcESaIcEEEN9OptionSetI11OptionsRustE6OptionEEEclERKSC_@Base 2.9
 _ZNKSt10_Select1stISt4pairIKNSt7__cxx1112basic_stringIcSt11char_traitsIcESaIcEEEN9OptionSetI12OptionsBasicE6OptionEEEclERKSC_@Base 2.9
 _ZNKSt10_Select1stISt4pairIKNSt7__cxx1112basic_stringIcSt11char_traitsIcESaIcEEEN9OptionSetI14OptionsHaskellE6OptionEEEclERKSC_@Base 2.9
 _ZNKSt10_Select1stISt4pairIKNSt7__cxx1112basic_stringIcSt11char_traitsIcESaIcEEEN9OptionSetI15OptionsRegistryE6OptionEEEclERKSC_@Base 2.9
 _ZNKSt10_Select1stISt4pairIKNSt7__cxx1112basic_stringIcSt11char_traitsIcESaIcEEEN9OptionSetI19OptionsVisualPrologE6OptionEEEclERKSC_@Base 2.9
 _ZNKSt10_Select1stISt4pairIKNSt7__cxx1112basic_stringIcSt11char_traitsIcESaIcEEEN9OptionSetI8OptionsDE6OptionEEEclERKSC_@Base 2.9
 _ZNKSt10_Select1stISt4pairIKNSt7__cxx1112basic_stringIcSt11char_traitsIcESaIcEEES6_EEclERKS8_@Base 2.9
 _ZNKSt10_Select1stISt4pairIKNSt7__cxx1112basic_stringIcSt11char_traitsIcESaIcEEEiEEclERKS8_@Base 2.9
 _ZNKSt10_Select1stISt4pairIKi14RepresentationEEclERKS3_@Base 2.8.4
 _ZNKSt10_Select1stISt4pairIKiiEEclERKS2_@Base 2.9
 _ZNKSt12_Vector_baseI13latexFoldSaveSaIS0_EE19_M_get_Tp_allocatorEv@Base 2.8.4
 _ZNKSt12_Vector_baseI14SelectionRangeSaIS0_EE19_M_get_Tp_allocatorEv@Base 2.8.4
 _ZNKSt12_Vector_baseI14WordClassifierSaIS0_EE19_M_get_Tp_allocatorEv@Base 2.8.4
 _ZNKSt12_Vector_baseI18PositionCacheEntrySaIS0_EE19_M_get_Tp_allocatorEv@Base 2.8.4
 _ZNKSt12_Vector_baseI5StyleSaIS0_EE19_M_get_Tp_allocatorEv@Base 2.8.4
 _ZNKSt12_Vector_baseI9DrawPhaseSaIS0_EE19_M_get_Tp_allocatorEv@Base 2.9
 _ZNKSt12_Vector_baseIN11SparseStateINSt7__cxx1112basic_stringIcSt11char_traitsIcESaIcEEEE5StateESaIS8_EE19_M_get_Tp_allocatorEv@Base 2.9
 _ZNKSt12_Vector_baseIN11SparseStateIjE5StateESaIS2_EE19_M_get_Tp_allocatorEv@Base 2.8.4
 _ZNKSt12_Vector_baseIN8Document19WatcherWithUserDataESaIS1_EE19_M_get_Tp_allocatorEv@Base 2.8.4
 _ZNKSt12_Vector_baseINSt7__cxx1112basic_stringIcSt11char_traitsIcESaIcEEESaIS5_EE19_M_get_Tp_allocatorEv@Base 2.9
 _ZNKSt12_Vector_baseIP10LineLayoutSaIS1_EE19_M_get_Tp_allocatorEv@Base 2.8.4
 _ZNKSt12_Vector_baseIP11LexerModuleSaIS1_EE19_M_get_Tp_allocatorEv@Base 2.8.4
 _ZNKSt12_Vector_baseIP14SelectionRangeSaIS1_EE19_M_get_Tp_allocatorEv@Base 2.8.4
 _ZNKSt12_Vector_baseIPcSaIS0_EE19_M_get_Tp_allocatorEv@Base 2.8.4
 _ZNKSt12_Vector_baseIiSaIiEE19_M_get_Tp_allocatorEv@Base 2.8.4
 _ZNKSt13_Rb_tree_nodeISt4pairIK12KeyModifiersjEE9_M_valptrEv@Base 2.9
 _ZNKSt13_Rb_tree_nodeISt4pairIK17FontSpecificationP12FontRealisedEE9_M_valptrEv@Base 2.8.4
 _ZNKSt13_Rb_tree_nodeISt4pairIKNSt7__cxx1112basic_stringIcSt11char_traitsIcESaIcEEEN12LexerVerilog11SymbolValueEEE9_M_valptrEv@Base 2.9
 _ZNKSt13_Rb_tree_nodeISt4pairIKNSt7__cxx1112basic_stringIcSt11char_traitsIcESaIcEEEN8LexerCPP11SymbolValueEEE9_M_valptrEv@Base 2.9
 _ZNKSt13_Rb_tree_nodeISt4pairIKNSt7__cxx1112basic_stringIcSt11char_traitsIcESaIcEEEN9OptionSetI10OptionsAsmE6OptionEEE9_M_valptrEv@Base 2.9
 _ZNKSt13_Rb_tree_nodeISt4pairIKNSt7__cxx1112basic_stringIcSt11char_traitsIcESaIcEEEN9OptionSetI10OptionsSQLE6OptionEEE9_M_valptrEv@Base 2.9
 _ZNKSt13_Rb_tree_nodeISt4pairIKNSt7__cxx1112basic_stringIcSt11char_traitsIcESaIcEEEN9OptionSetI11OptionsPerlE6OptionEEE9_M_valptrEv@Base 2.9
 _ZNKSt13_Rb_tree_nodeISt4pairIKNSt7__cxx1112basic_stringIcSt11char_traitsIcESaIcEEEN9OptionSetI11OptionsRustE6OptionEEE9_M_valptrEv@Base 2.9
 _ZNKSt13_Rb_tree_nodeISt4pairIKNSt7__cxx1112basic_stringIcSt11char_traitsIcESaIcEEEN9OptionSetI12OptionsBasicE6OptionEEE9_M_valptrEv@Base 2.9
 _ZNKSt13_Rb_tree_nodeISt4pairIKNSt7__cxx1112basic_stringIcSt11char_traitsIcESaIcEEEN9OptionSetI14OptionsHaskellE6OptionEEE9_M_valptrEv@Base 2.9
 _ZNKSt13_Rb_tree_nodeISt4pairIKNSt7__cxx1112basic_stringIcSt11char_traitsIcESaIcEEEN9OptionSetI15OptionsRegistryE6OptionEEE9_M_valptrEv@Base 2.9
 _ZNKSt13_Rb_tree_nodeISt4pairIKNSt7__cxx1112basic_stringIcSt11char_traitsIcESaIcEEEN9OptionSetI19OptionsVisualPrologE6OptionEEE9_M_valptrEv@Base 2.9
 _ZNKSt13_Rb_tree_nodeISt4pairIKNSt7__cxx1112basic_stringIcSt11char_traitsIcESaIcEEEN9OptionSetI8OptionsDE6OptionEEE9_M_valptrEv@Base 2.9
 _ZNKSt13_Rb_tree_nodeISt4pairIKNSt7__cxx1112basic_stringIcSt11char_traitsIcESaIcEEES6_EE9_M_valptrEv@Base 2.9
 _ZNKSt13_Rb_tree_nodeISt4pairIKNSt7__cxx1112basic_stringIcSt11char_traitsIcESaIcEEEiEE9_M_valptrEv@Base 2.9
 _ZNKSt13_Rb_tree_nodeISt4pairIKi14RepresentationEE9_M_valptrEv@Base 2.8.4
 _ZNKSt13_Rb_tree_nodeISt4pairIKiiEE9_M_valptrEv@Base 2.9
 _ZNKSt13__atomic_baseIiE4loadESt12memory_order@Base 2.9.3
 _ZNKSt13move_iteratorIP14SelectionRangeE4baseEv@Base 2.9.2+dfsg
 _ZNKSt13move_iteratorIP14SelectionRangeEdeEv@Base 2.9.2+dfsg
 _ZNKSt13move_iteratorIP14WordClassifierE4baseEv@Base 2.9.2+dfsg
 _ZNKSt13move_iteratorIP14WordClassifierEdeEv@Base 2.9.2+dfsg
 _ZNKSt13move_iteratorIP18PositionCacheEntryE4baseEv@Base 2.9.2+dfsg
 _ZNKSt13move_iteratorIP18PositionCacheEntryEdeEv@Base 2.9.2+dfsg
 _ZNKSt13move_iteratorIP9DrawPhaseE4baseEv@Base 2.9.2+dfsg
 _ZNKSt13move_iteratorIPN11SparseStateINSt7__cxx1112basic_stringIcSt11char_traitsIcESaIcEEEE5StateEE4baseEv@Base 2.9.2+dfsg
 _ZNKSt13move_iteratorIPN11SparseStateINSt7__cxx1112basic_stringIcSt11char_traitsIcESaIcEEEE5StateEEdeEv@Base 2.9.2+dfsg
 _ZNKSt13move_iteratorIPN11SparseStateIjE5StateEE4baseEv@Base 2.9.2+dfsg
 _ZNKSt13move_iteratorIPN11SparseStateIjE5StateEEdeEv@Base 2.9.2+dfsg
 _ZNKSt13move_iteratorIPN8Document19WatcherWithUserDataEE4baseEv@Base 2.9.2+dfsg
 _ZNKSt13move_iteratorIPN8Document19WatcherWithUserDataEEdeEv@Base 2.9.2+dfsg
 _ZNKSt13move_iteratorIPNSt7__cxx1112basic_stringIcSt11char_traitsIcESaIcEEEE4baseEv@Base 2.9.2+dfsg
 _ZNKSt13move_iteratorIPNSt7__cxx1112basic_stringIcSt11char_traitsIcESaIcEEEEdeEv@Base 2.9.2+dfsg
 _ZNKSt13move_iteratorIPP10LineLayoutE4baseEv@Base 2.9.2+dfsg
 _ZNKSt13move_iteratorIPP11LexerModuleE4baseEv@Base 2.9.2+dfsg
 _ZNKSt13move_iteratorIPP14SelectionRangeE4baseEv@Base 2.9.2+dfsg
 _ZNKSt13move_iteratorIPPcE4baseEv@Base 2.9.2+dfsg
 _ZNKSt13move_iteratorIPiE4baseEv@Base 2.9.2+dfsg
 _ZNKSt16reverse_iteratorIN9__gnu_cxx17__normal_iteratorIPP14SelectionRangeSt6vectorIS3_SaIS3_EEEEE4baseEv@Base 2.8.4
 _ZNKSt16reverse_iteratorIN9__gnu_cxx17__normal_iteratorIPP14SelectionRangeSt6vectorIS3_SaIS3_EEEEEdeEv@Base 2.8.4
 _ZNKSt17_Rb_tree_iteratorISt4pairIK12KeyModifiersjEEdeEv@Base 2.9
 _ZNKSt17_Rb_tree_iteratorISt4pairIK12KeyModifiersjEEeqERKS4_@Base 2.9
 _ZNKSt17_Rb_tree_iteratorISt4pairIK17FontSpecificationP12FontRealisedEEdeEv@Base 2.8.4
 _ZNKSt17_Rb_tree_iteratorISt4pairIK17FontSpecificationP12FontRealisedEEeqERKS6_@Base 2.8.4
 _ZNKSt17_Rb_tree_iteratorISt4pairIK17FontSpecificationP12FontRealisedEEneERKS6_@Base 2.8.4
 _ZNKSt17_Rb_tree_iteratorISt4pairIK17FontSpecificationP12FontRealisedEEptEv@Base 2.8.4
 _ZNKSt17_Rb_tree_iteratorISt4pairIKNSt7__cxx1112basic_stringIcSt11char_traitsIcESaIcEEEN12LexerVerilog11SymbolValueEEEdeEv@Base 2.9
 _ZNKSt17_Rb_tree_iteratorISt4pairIKNSt7__cxx1112basic_stringIcSt11char_traitsIcESaIcEEEN12LexerVerilog11SymbolValueEEEeqERKSB_@Base 2.9
 _ZNKSt17_Rb_tree_iteratorISt4pairIKNSt7__cxx1112basic_stringIcSt11char_traitsIcESaIcEEEN12LexerVerilog11SymbolValueEEEneERKSB_@Base 2.9
 _ZNKSt17_Rb_tree_iteratorISt4pairIKNSt7__cxx1112basic_stringIcSt11char_traitsIcESaIcEEEN12LexerVerilog11SymbolValueEEEptEv@Base 2.9
 _ZNKSt17_Rb_tree_iteratorISt4pairIKNSt7__cxx1112basic_stringIcSt11char_traitsIcESaIcEEEN8LexerCPP11SymbolValueEEEdeEv@Base 2.9
 _ZNKSt17_Rb_tree_iteratorISt4pairIKNSt7__cxx1112basic_stringIcSt11char_traitsIcESaIcEEEN8LexerCPP11SymbolValueEEEeqERKSB_@Base 2.9
 _ZNKSt17_Rb_tree_iteratorISt4pairIKNSt7__cxx1112basic_stringIcSt11char_traitsIcESaIcEEEN8LexerCPP11SymbolValueEEEneERKSB_@Base 2.9
 _ZNKSt17_Rb_tree_iteratorISt4pairIKNSt7__cxx1112basic_stringIcSt11char_traitsIcESaIcEEEN9OptionSetI10OptionsAsmE6OptionEEEdeEv@Base 2.9
 _ZNKSt17_Rb_tree_iteratorISt4pairIKNSt7__cxx1112basic_stringIcSt11char_traitsIcESaIcEEEN9OptionSetI10OptionsAsmE6OptionEEEeqERKSD_@Base 2.9
 _ZNKSt17_Rb_tree_iteratorISt4pairIKNSt7__cxx1112basic_stringIcSt11char_traitsIcESaIcEEEN9OptionSetI10OptionsAsmE6OptionEEEneERKSD_@Base 2.9
 _ZNKSt17_Rb_tree_iteratorISt4pairIKNSt7__cxx1112basic_stringIcSt11char_traitsIcESaIcEEEN9OptionSetI10OptionsAsmE6OptionEEEptEv@Base 2.9
 _ZNKSt17_Rb_tree_iteratorISt4pairIKNSt7__cxx1112basic_stringIcSt11char_traitsIcESaIcEEEN9OptionSetI10OptionsSQLE6OptionEEEdeEv@Base 2.9
 _ZNKSt17_Rb_tree_iteratorISt4pairIKNSt7__cxx1112basic_stringIcSt11char_traitsIcESaIcEEEN9OptionSetI10OptionsSQLE6OptionEEEeqERKSD_@Base 2.9
 _ZNKSt17_Rb_tree_iteratorISt4pairIKNSt7__cxx1112basic_stringIcSt11char_traitsIcESaIcEEEN9OptionSetI10OptionsSQLE6OptionEEEneERKSD_@Base 2.9
 _ZNKSt17_Rb_tree_iteratorISt4pairIKNSt7__cxx1112basic_stringIcSt11char_traitsIcESaIcEEEN9OptionSetI10OptionsSQLE6OptionEEEptEv@Base 2.9
 _ZNKSt17_Rb_tree_iteratorISt4pairIKNSt7__cxx1112basic_stringIcSt11char_traitsIcESaIcEEEN9OptionSetI11OptionsPerlE6OptionEEEdeEv@Base 2.9
 _ZNKSt17_Rb_tree_iteratorISt4pairIKNSt7__cxx1112basic_stringIcSt11char_traitsIcESaIcEEEN9OptionSetI11OptionsPerlE6OptionEEEeqERKSD_@Base 2.9
 _ZNKSt17_Rb_tree_iteratorISt4pairIKNSt7__cxx1112basic_stringIcSt11char_traitsIcESaIcEEEN9OptionSetI11OptionsPerlE6OptionEEEneERKSD_@Base 2.9
 _ZNKSt17_Rb_tree_iteratorISt4pairIKNSt7__cxx1112basic_stringIcSt11char_traitsIcESaIcEEEN9OptionSetI11OptionsPerlE6OptionEEEptEv@Base 2.9
 _ZNKSt17_Rb_tree_iteratorISt4pairIKNSt7__cxx1112basic_stringIcSt11char_traitsIcESaIcEEEN9OptionSetI11OptionsRustE6OptionEEEdeEv@Base 2.9
 _ZNKSt17_Rb_tree_iteratorISt4pairIKNSt7__cxx1112basic_stringIcSt11char_traitsIcESaIcEEEN9OptionSetI11OptionsRustE6OptionEEEeqERKSD_@Base 2.9
 _ZNKSt17_Rb_tree_iteratorISt4pairIKNSt7__cxx1112basic_stringIcSt11char_traitsIcESaIcEEEN9OptionSetI11OptionsRustE6OptionEEEneERKSD_@Base 2.9
 _ZNKSt17_Rb_tree_iteratorISt4pairIKNSt7__cxx1112basic_stringIcSt11char_traitsIcESaIcEEEN9OptionSetI11OptionsRustE6OptionEEEptEv@Base 2.9
 _ZNKSt17_Rb_tree_iteratorISt4pairIKNSt7__cxx1112basic_stringIcSt11char_traitsIcESaIcEEEN9OptionSetI12OptionsBasicE6OptionEEEdeEv@Base 2.9
 _ZNKSt17_Rb_tree_iteratorISt4pairIKNSt7__cxx1112basic_stringIcSt11char_traitsIcESaIcEEEN9OptionSetI12OptionsBasicE6OptionEEEeqERKSD_@Base 2.9
 _ZNKSt17_Rb_tree_iteratorISt4pairIKNSt7__cxx1112basic_stringIcSt11char_traitsIcESaIcEEEN9OptionSetI12OptionsBasicE6OptionEEEneERKSD_@Base 2.9
 _ZNKSt17_Rb_tree_iteratorISt4pairIKNSt7__cxx1112basic_stringIcSt11char_traitsIcESaIcEEEN9OptionSetI12OptionsBasicE6OptionEEEptEv@Base 2.9
 _ZNKSt17_Rb_tree_iteratorISt4pairIKNSt7__cxx1112basic_stringIcSt11char_traitsIcESaIcEEEN9OptionSetI14OptionsHaskellE6OptionEEEdeEv@Base 2.9
 _ZNKSt17_Rb_tree_iteratorISt4pairIKNSt7__cxx1112basic_stringIcSt11char_traitsIcESaIcEEEN9OptionSetI14OptionsHaskellE6OptionEEEeqERKSD_@Base 2.9
 _ZNKSt17_Rb_tree_iteratorISt4pairIKNSt7__cxx1112basic_stringIcSt11char_traitsIcESaIcEEEN9OptionSetI14OptionsHaskellE6OptionEEEneERKSD_@Base 2.9
 _ZNKSt17_Rb_tree_iteratorISt4pairIKNSt7__cxx1112basic_stringIcSt11char_traitsIcESaIcEEEN9OptionSetI14OptionsHaskellE6OptionEEEptEv@Base 2.9
 _ZNKSt17_Rb_tree_iteratorISt4pairIKNSt7__cxx1112basic_stringIcSt11char_traitsIcESaIcEEEN9OptionSetI15OptionsRegistryE6OptionEEEdeEv@Base 2.9
 _ZNKSt17_Rb_tree_iteratorISt4pairIKNSt7__cxx1112basic_stringIcSt11char_traitsIcESaIcEEEN9OptionSetI15OptionsRegistryE6OptionEEEeqERKSD_@Base 2.9
 _ZNKSt17_Rb_tree_iteratorISt4pairIKNSt7__cxx1112basic_stringIcSt11char_traitsIcESaIcEEEN9OptionSetI15OptionsRegistryE6OptionEEEneERKSD_@Base 2.9
 _ZNKSt17_Rb_tree_iteratorISt4pairIKNSt7__cxx1112basic_stringIcSt11char_traitsIcESaIcEEEN9OptionSetI15OptionsRegistryE6OptionEEEptEv@Base 2.9
 _ZNKSt17_Rb_tree_iteratorISt4pairIKNSt7__cxx1112basic_stringIcSt11char_traitsIcESaIcEEEN9OptionSetI19OptionsVisualPrologE6OptionEEEeqERKSD_@Base 2.9
 _ZNKSt17_Rb_tree_iteratorISt4pairIKNSt7__cxx1112basic_stringIcSt11char_traitsIcESaIcEEEN9OptionSetI19OptionsVisualPrologE6OptionEEEneERKSD_@Base 2.9
 _ZNKSt17_Rb_tree_iteratorISt4pairIKNSt7__cxx1112basic_stringIcSt11char_traitsIcESaIcEEEN9OptionSetI19OptionsVisualPrologE6OptionEEEptEv@Base 2.9
 _ZNKSt17_Rb_tree_iteratorISt4pairIKNSt7__cxx1112basic_stringIcSt11char_traitsIcESaIcEEEN9OptionSetI8OptionsDE6OptionEEEdeEv@Base 2.9
 _ZNKSt17_Rb_tree_iteratorISt4pairIKNSt7__cxx1112basic_stringIcSt11char_traitsIcESaIcEEEN9OptionSetI8OptionsDE6OptionEEEeqERKSD_@Base 2.9
 _ZNKSt17_Rb_tree_iteratorISt4pairIKNSt7__cxx1112basic_stringIcSt11char_traitsIcESaIcEEEN9OptionSetI8OptionsDE6OptionEEEneERKSD_@Base 2.9
 _ZNKSt17_Rb_tree_iteratorISt4pairIKNSt7__cxx1112basic_stringIcSt11char_traitsIcESaIcEEEN9OptionSetI8OptionsDE6OptionEEEptEv@Base 2.9
 _ZNKSt17_Rb_tree_iteratorISt4pairIKNSt7__cxx1112basic_stringIcSt11char_traitsIcESaIcEEES6_EEdeEv@Base 2.9
 _ZNKSt17_Rb_tree_iteratorISt4pairIKNSt7__cxx1112basic_stringIcSt11char_traitsIcESaIcEEES6_EEeqERKS9_@Base 2.9
 _ZNKSt17_Rb_tree_iteratorISt4pairIKNSt7__cxx1112basic_stringIcSt11char_traitsIcESaIcEEEiEEdeEv@Base 2.9
 _ZNKSt17_Rb_tree_iteratorISt4pairIKNSt7__cxx1112basic_stringIcSt11char_traitsIcESaIcEEEiEEeqERKS9_@Base 2.9
 _ZNKSt17_Rb_tree_iteratorISt4pairIKi14RepresentationEEdeEv@Base 2.8.4
 _ZNKSt17_Rb_tree_iteratorISt4pairIKi14RepresentationEEeqERKS4_@Base 2.8.4
 _ZNKSt17_Rb_tree_iteratorISt4pairIKi14RepresentationEEneERKS4_@Base 2.8.4
 _ZNKSt17_Rb_tree_iteratorISt4pairIKiiEEdeEv@Base 2.9
 _ZNKSt17_Rb_tree_iteratorISt4pairIKiiEEeqERKS3_@Base 2.9
 _ZNKSt17_Rb_tree_iteratorISt4pairIKiiEEneERKS3_@Base 2.9
 _ZNKSt17_Rb_tree_iteratorISt4pairIKiiEEptEv@Base 2.9
 _ZNKSt23_Rb_tree_const_iteratorISt4pairIK12KeyModifiersjEE13_M_const_castEv@Base 2.9
 _ZNKSt23_Rb_tree_const_iteratorISt4pairIK12KeyModifiersjEEeqERKS4_@Base 2.9
 _ZNKSt23_Rb_tree_const_iteratorISt4pairIK12KeyModifiersjEEptEv@Base 2.9
 _ZNKSt23_Rb_tree_const_iteratorISt4pairIK17FontSpecificationP12FontRealisedEE13_M_const_castEv@Base 2.8.4
 _ZNKSt23_Rb_tree_const_iteratorISt4pairIK17FontSpecificationP12FontRealisedEEneERKS6_@Base 2.8.4
 _ZNKSt23_Rb_tree_const_iteratorISt4pairIK17FontSpecificationP12FontRealisedEEptEv@Base 2.8.4
 _ZNKSt23_Rb_tree_const_iteratorISt4pairIKNSt7__cxx1112basic_stringIcSt11char_traitsIcESaIcEEEN12LexerVerilog11SymbolValueEEE13_M_const_castEv@Base 2.9
 _ZNKSt23_Rb_tree_const_iteratorISt4pairIKNSt7__cxx1112basic_stringIcSt11char_traitsIcESaIcEEEN12LexerVerilog11SymbolValueEEEeqERKSB_@Base 2.9
 _ZNKSt23_Rb_tree_const_iteratorISt4pairIKNSt7__cxx1112basic_stringIcSt11char_traitsIcESaIcEEEN12LexerVerilog11SymbolValueEEEneERKSB_@Base 2.9
 _ZNKSt23_Rb_tree_const_iteratorISt4pairIKNSt7__cxx1112basic_stringIcSt11char_traitsIcESaIcEEEN8LexerCPP11SymbolValueEEE13_M_const_castEv@Base 2.9
 _ZNKSt23_Rb_tree_const_iteratorISt4pairIKNSt7__cxx1112basic_stringIcSt11char_traitsIcESaIcEEEN8LexerCPP11SymbolValueEEEeqERKSB_@Base 2.9
 _ZNKSt23_Rb_tree_const_iteratorISt4pairIKNSt7__cxx1112basic_stringIcSt11char_traitsIcESaIcEEEN8LexerCPP11SymbolValueEEEneERKSB_@Base 2.9
 _ZNKSt23_Rb_tree_const_iteratorISt4pairIKNSt7__cxx1112basic_stringIcSt11char_traitsIcESaIcEEEN8LexerCPP11SymbolValueEEEptEv@Base 2.9
 _ZNKSt23_Rb_tree_const_iteratorISt4pairIKNSt7__cxx1112basic_stringIcSt11char_traitsIcESaIcEEEN9OptionSetI10OptionsAsmE6OptionEEE13_M_const_castEv@Base 2.9
 _ZNKSt23_Rb_tree_const_iteratorISt4pairIKNSt7__cxx1112basic_stringIcSt11char_traitsIcESaIcEEEN9OptionSetI10OptionsSQLE6OptionEEE13_M_const_castEv@Base 2.9
 _ZNKSt23_Rb_tree_const_iteratorISt4pairIKNSt7__cxx1112basic_stringIcSt11char_traitsIcESaIcEEEN9OptionSetI11OptionsPerlE6OptionEEE13_M_const_castEv@Base 2.9
 _ZNKSt23_Rb_tree_const_iteratorISt4pairIKNSt7__cxx1112basic_stringIcSt11char_traitsIcESaIcEEEN9OptionSetI11OptionsRustE6OptionEEE13_M_const_castEv@Base 2.9
 _ZNKSt23_Rb_tree_const_iteratorISt4pairIKNSt7__cxx1112basic_stringIcSt11char_traitsIcESaIcEEEN9OptionSetI12OptionsBasicE6OptionEEE13_M_const_castEv@Base 2.9
 _ZNKSt23_Rb_tree_const_iteratorISt4pairIKNSt7__cxx1112basic_stringIcSt11char_traitsIcESaIcEEEN9OptionSetI14OptionsHaskellE6OptionEEE13_M_const_castEv@Base 2.9
 _ZNKSt23_Rb_tree_const_iteratorISt4pairIKNSt7__cxx1112basic_stringIcSt11char_traitsIcESaIcEEEN9OptionSetI15OptionsRegistryE6OptionEEE13_M_const_castEv@Base 2.9
 _ZNKSt23_Rb_tree_const_iteratorISt4pairIKNSt7__cxx1112basic_stringIcSt11char_traitsIcESaIcEEEN9OptionSetI8OptionsDE6OptionEEE13_M_const_castEv@Base 2.9
 _ZNKSt23_Rb_tree_const_iteratorISt4pairIKNSt7__cxx1112basic_stringIcSt11char_traitsIcESaIcEEES6_EE13_M_const_castEv@Base 2.9
 _ZNKSt23_Rb_tree_const_iteratorISt4pairIKNSt7__cxx1112basic_stringIcSt11char_traitsIcESaIcEEES6_EEneERKS9_@Base 2.9
 _ZNKSt23_Rb_tree_const_iteratorISt4pairIKNSt7__cxx1112basic_stringIcSt11char_traitsIcESaIcEEES6_EEptEv@Base 2.9
 _ZNKSt23_Rb_tree_const_iteratorISt4pairIKNSt7__cxx1112basic_stringIcSt11char_traitsIcESaIcEEEiEE13_M_const_castEv@Base 2.9
 _ZNKSt23_Rb_tree_const_iteratorISt4pairIKNSt7__cxx1112basic_stringIcSt11char_traitsIcESaIcEEEiEEeqERKS9_@Base 2.9
 _ZNKSt23_Rb_tree_const_iteratorISt4pairIKNSt7__cxx1112basic_stringIcSt11char_traitsIcESaIcEEEiEEneERKS9_@Base 2.9
 _ZNKSt23_Rb_tree_const_iteratorISt4pairIKNSt7__cxx1112basic_stringIcSt11char_traitsIcESaIcEEEiEEptEv@Base 2.9
 _ZNKSt23_Rb_tree_const_iteratorISt4pairIKi14RepresentationEE13_M_const_castEv@Base 2.8.4
 _ZNKSt23_Rb_tree_const_iteratorISt4pairIKi14RepresentationEEeqERKS4_@Base 2.8.4
 _ZNKSt23_Rb_tree_const_iteratorISt4pairIKi14RepresentationEEneERKS4_@Base 2.8.4
 _ZNKSt23_Rb_tree_const_iteratorISt4pairIKi14RepresentationEEptEv@Base 2.9
 _ZNKSt23_Rb_tree_const_iteratorISt4pairIKiiEE13_M_const_castEv@Base 2.9
 _ZNKSt23_Rb_tree_const_iteratorISt4pairIKiiEEeqERKS3_@Base 2.9
 _ZNKSt23_Rb_tree_const_iteratorISt4pairIKiiEEneERKS3_@Base 2.9
 _ZNKSt3mapI12KeyModifiersjSt4lessIS0_ESaISt4pairIKS0_jEEE3endEv@Base 2.9
 _ZNKSt3mapI12KeyModifiersjSt4lessIS0_ESaISt4pairIKS0_jEEE4findERS4_@Base 2.9
 _ZNKSt3mapI12KeyModifiersjSt4lessIS0_ESaISt4pairIKS0_jEEE8key_compEv@Base 2.9
 _ZNKSt3mapI17FontSpecificationP12FontRealisedSt4lessIS0_ESaISt4pairIKS0_S2_EEE8key_compEv@Base 2.8.4
 _ZNKSt3mapINSt7__cxx1112basic_stringIcSt11char_traitsIcESaIcEEEN12LexerVerilog11SymbolValueESt4lessIS5_ESaISt4pairIKS5_S7_EEE8key_compEv@Base 2.9
 _ZNKSt3mapINSt7__cxx1112basic_stringIcSt11char_traitsIcESaIcEEEN8LexerCPP11SymbolValueESt4lessIS5_ESaISt4pairIKS5_S7_EEE3endEv@Base 2.9
 _ZNKSt3mapINSt7__cxx1112basic_stringIcSt11char_traitsIcESaIcEEEN8LexerCPP11SymbolValueESt4lessIS5_ESaISt4pairIKS5_S7_EEE4findERSB_@Base 2.9
 _ZNKSt3mapINSt7__cxx1112basic_stringIcSt11char_traitsIcESaIcEEEN8LexerCPP11SymbolValueESt4lessIS5_ESaISt4pairIKS5_S7_EEE8key_compEv@Base 2.9
 _ZNKSt3mapINSt7__cxx1112basic_stringIcSt11char_traitsIcESaIcEEEN9OptionSetI10OptionsAsmE6OptionESt4lessIS5_ESaISt4pairIKS5_S9_EEE8key_compEv@Base 2.9
 _ZNKSt3mapINSt7__cxx1112basic_stringIcSt11char_traitsIcESaIcEEEN9OptionSetI10OptionsSQLE6OptionESt4lessIS5_ESaISt4pairIKS5_S9_EEE8key_compEv@Base 2.9
 _ZNKSt3mapINSt7__cxx1112basic_stringIcSt11char_traitsIcESaIcEEEN9OptionSetI11OptionsPerlE6OptionESt4lessIS5_ESaISt4pairIKS5_S9_EEE8key_compEv@Base 2.9
 _ZNKSt3mapINSt7__cxx1112basic_stringIcSt11char_traitsIcESaIcEEEN9OptionSetI11OptionsRustE6OptionESt4lessIS5_ESaISt4pairIKS5_S9_EEE8key_compEv@Base 2.9
 _ZNKSt3mapINSt7__cxx1112basic_stringIcSt11char_traitsIcESaIcEEEN9OptionSetI12OptionsBasicE6OptionESt4lessIS5_ESaISt4pairIKS5_S9_EEE8key_compEv@Base 2.9
 _ZNKSt3mapINSt7__cxx1112basic_stringIcSt11char_traitsIcESaIcEEEN9OptionSetI14OptionsHaskellE6OptionESt4lessIS5_ESaISt4pairIKS5_S9_EEE8key_compEv@Base 2.9
 _ZNKSt3mapINSt7__cxx1112basic_stringIcSt11char_traitsIcESaIcEEEN9OptionSetI15OptionsRegistryE6OptionESt4lessIS5_ESaISt4pairIKS5_S9_EEE8key_compEv@Base 2.9
 _ZNKSt3mapINSt7__cxx1112basic_stringIcSt11char_traitsIcESaIcEEEN9OptionSetI8OptionsDE6OptionESt4lessIS5_ESaISt4pairIKS5_S9_EEE8key_compEv@Base 2.9
 _ZNKSt3mapINSt7__cxx1112basic_stringIcSt11char_traitsIcESaIcEEES5_St4lessIS5_ESaISt4pairIKS5_S5_EEE8key_compEv@Base 2.9
 _ZNKSt3mapINSt7__cxx1112basic_stringIcSt11char_traitsIcESaIcEEEiSt4lessIS5_ESaISt4pairIKS5_iEEE3endEv@Base 2.9
 _ZNKSt3mapINSt7__cxx1112basic_stringIcSt11char_traitsIcESaIcEEEiSt4lessIS5_ESaISt4pairIKS5_iEEE4findERS9_@Base 2.9
 _ZNKSt3mapINSt7__cxx1112basic_stringIcSt11char_traitsIcESaIcEEEiSt4lessIS5_ESaISt4pairIKS5_iEEE8key_compEv@Base 2.9
 _ZNKSt3mapIi14RepresentationSt4lessIiESaISt4pairIKiS0_EEE3endEv@Base 2.8.4
 _ZNKSt3mapIi14RepresentationSt4lessIiESaISt4pairIKiS0_EEE4findERS4_@Base 2.8.4
 _ZNKSt3mapIi14RepresentationSt4lessIiESaISt4pairIKiS0_EEE8key_compEv@Base 2.8.4
 _ZNKSt3mapIiiSt4lessIiESaISt4pairIKiiEEE8key_compEv@Base 2.9
 _ZNKSt4lessI12KeyModifiersEclERKS0_S3_@Base 2.9
 _ZNKSt4lessI17FontSpecificationEclERKS0_S3_@Base 2.8.4
 _ZNKSt4lessINSt7__cxx1112basic_stringIcSt11char_traitsIcESaIcEEEEclERKS5_S8_@Base 2.9
 _ZNKSt4lessIiEclERKiS2_@Base 2.8.4
 _ZNKSt6vectorI13latexFoldSaveSaIS0_EE12_M_check_lenEjPKc@Base 2.9
 _ZNKSt6vectorI13latexFoldSaveSaIS0_EE4sizeEv@Base 2.8.4
 _ZNKSt6vectorI13latexFoldSaveSaIS0_EE8max_sizeEv@Base 2.8.4
 _ZNKSt6vectorI14SelectionRangeSaIS0_EE12_M_check_lenEjPKc@Base 2.9
 _ZNKSt6vectorI14SelectionRangeSaIS0_EE3endEv@Base 2.8.4
 _ZNKSt6vectorI14SelectionRangeSaIS0_EE4sizeEv@Base 2.8.4
 _ZNKSt6vectorI14SelectionRangeSaIS0_EE5beginEv@Base 2.8.4
 _ZNKSt6vectorI14SelectionRangeSaIS0_EE5emptyEv@Base 2.8.4
 _ZNKSt6vectorI14SelectionRangeSaIS0_EE6cbeginEv@Base 2.9.2+dfsg
 _ZNKSt6vectorI14SelectionRangeSaIS0_EE8capacityEv@Base 2.8.4
 _ZNKSt6vectorI14SelectionRangeSaIS0_EE8max_sizeEv@Base 2.8.4
 _ZNKSt6vectorI14SelectionRangeSaIS0_EEixEj@Base 2.9
 _ZNKSt6vectorI14WordClassifierSaIS0_EE12_M_check_lenEjPKc@Base 2.9
 _ZNKSt6vectorI14WordClassifierSaIS0_EE3endEv@Base 2.8.4
 _ZNKSt6vectorI14WordClassifierSaIS0_EE4sizeEv@Base 2.8.4
 _ZNKSt6vectorI14WordClassifierSaIS0_EE5beginEv@Base 2.8.4
 _ZNKSt6vectorI14WordClassifierSaIS0_EE8max_sizeEv@Base 2.8.4
 _ZNKSt6vectorI14WordClassifierSaIS0_EEixEj@Base 2.9
 _ZNKSt6vectorI18PositionCacheEntrySaIS0_EE12_M_check_lenEjPKc@Base 2.9
 _ZNKSt6vectorI18PositionCacheEntrySaIS0_EE3endEv@Base 2.8.4
 _ZNKSt6vectorI18PositionCacheEntrySaIS0_EE4sizeEv@Base 2.8.4
 _ZNKSt6vectorI18PositionCacheEntrySaIS0_EE5beginEv@Base 2.8.4
 _ZNKSt6vectorI18PositionCacheEntrySaIS0_EE5emptyEv@Base 2.8.4
 _ZNKSt6vectorI18PositionCacheEntrySaIS0_EE8max_sizeEv@Base 2.8.4
 _ZNKSt6vectorI5StyleSaIS0_EE12_M_check_lenEjPKc@Base 2.9
 _ZNKSt6vectorI5StyleSaIS0_EE4sizeEv@Base 2.8.4
 _ZNKSt6vectorI5StyleSaIS0_EE8max_sizeEv@Base 2.8.4
 _ZNKSt6vectorI5StyleSaIS0_EEixEj@Base 2.9
 _ZNKSt6vectorI9DrawPhaseSaIS0_EE12_M_check_lenEjPKc@Base 2.9
 _ZNKSt6vectorI9DrawPhaseSaIS0_EE4sizeEv@Base 2.9
 _ZNKSt6vectorI9DrawPhaseSaIS0_EE8max_sizeEv@Base 2.9
 _ZNKSt6vectorIN11SparseStateINSt7__cxx1112basic_stringIcSt11char_traitsIcESaIcEEEE5StateESaIS8_EE12_M_check_lenEjPKc@Base 2.9
 _ZNKSt6vectorIN11SparseStateINSt7__cxx1112basic_stringIcSt11char_traitsIcESaIcEEEE5StateESaIS8_EE3endEv@Base 2.9
 _ZNKSt6vectorIN11SparseStateINSt7__cxx1112basic_stringIcSt11char_traitsIcESaIcEEEE5StateESaIS8_EE4sizeEv@Base 2.9
 _ZNKSt6vectorIN11SparseStateINSt7__cxx1112basic_stringIcSt11char_traitsIcESaIcEEEE5StateESaIS8_EE5beginEv@Base 2.9
 _ZNKSt6vectorIN11SparseStateINSt7__cxx1112basic_stringIcSt11char_traitsIcESaIcEEEE5StateESaIS8_EE5emptyEv@Base 2.9
 _ZNKSt6vectorIN11SparseStateINSt7__cxx1112basic_stringIcSt11char_traitsIcESaIcEEEE5StateESaIS8_EE6cbeginEv@Base 2.9.2+dfsg
 _ZNKSt6vectorIN11SparseStateINSt7__cxx1112basic_stringIcSt11char_traitsIcESaIcEEEE5StateESaIS8_EE8max_sizeEv@Base 2.9
 _ZNKSt6vectorIN11SparseStateIjE5StateESaIS2_EE12_M_check_lenEjPKc@Base 2.9
 _ZNKSt6vectorIN11SparseStateIjE5StateESaIS2_EE3endEv@Base 2.8.4
 _ZNKSt6vectorIN11SparseStateIjE5StateESaIS2_EE4sizeEv@Base 2.8.4
 _ZNKSt6vectorIN11SparseStateIjE5StateESaIS2_EE5beginEv@Base 2.8.4
 _ZNKSt6vectorIN11SparseStateIjE5StateESaIS2_EE5emptyEv@Base 2.8.4
 _ZNKSt6vectorIN11SparseStateIjE5StateESaIS2_EE6cbeginEv@Base 2.9.2+dfsg
 _ZNKSt6vectorIN11SparseStateIjE5StateESaIS2_EE8max_sizeEv@Base 2.8.4
 _ZNKSt6vectorIN8Document19WatcherWithUserDataESaIS1_EE12_M_check_lenEjPKc@Base 2.9
 _ZNKSt6vectorIN8Document19WatcherWithUserDataESaIS1_EE4sizeEv@Base 2.8.4
 _ZNKSt6vectorIN8Document19WatcherWithUserDataESaIS1_EE6cbeginEv@Base 2.9.2+dfsg
 _ZNKSt6vectorIN8Document19WatcherWithUserDataESaIS1_EE8max_sizeEv@Base 2.8.4
 _ZNKSt6vectorINSt7__cxx1112basic_stringIcSt11char_traitsIcESaIcEEESaIS5_EE12_M_check_lenEjPKc@Base 2.9
 _ZNKSt6vectorINSt7__cxx1112basic_stringIcSt11char_traitsIcESaIcEEESaIS5_EE14_M_range_checkEj@Base 2.9
 _ZNKSt6vectorINSt7__cxx1112basic_stringIcSt11char_traitsIcESaIcEEESaIS5_EE3endEv@Base 2.9
 _ZNKSt6vectorINSt7__cxx1112basic_stringIcSt11char_traitsIcESaIcEEESaIS5_EE4sizeEv@Base 2.9
 _ZNKSt6vectorINSt7__cxx1112basic_stringIcSt11char_traitsIcESaIcEEESaIS5_EE5beginEv@Base 2.9
 _ZNKSt6vectorINSt7__cxx1112basic_stringIcSt11char_traitsIcESaIcEEESaIS5_EE5emptyEv@Base 2.9
 _ZNKSt6vectorINSt7__cxx1112basic_stringIcSt11char_traitsIcESaIcEEESaIS5_EE6cbeginEv@Base 2.9.2+dfsg
 _ZNKSt6vectorINSt7__cxx1112basic_stringIcSt11char_traitsIcESaIcEEESaIS5_EE8max_sizeEv@Base 2.9
 _ZNKSt6vectorIP10LineLayoutSaIS1_EE12_M_check_lenEjPKc@Base 2.9
 _ZNKSt6vectorIP10LineLayoutSaIS1_EE3endEv@Base 2.8.4
 _ZNKSt6vectorIP10LineLayoutSaIS1_EE4sizeEv@Base 2.8.4
 _ZNKSt6vectorIP10LineLayoutSaIS1_EE5beginEv@Base 2.8.4
 _ZNKSt6vectorIP10LineLayoutSaIS1_EE5emptyEv@Base 2.8.4
 _ZNKSt6vectorIP10LineLayoutSaIS1_EE8max_sizeEv@Base 2.8.4
 _ZNKSt6vectorIP11LexerModuleSaIS1_EE12_M_check_lenEjPKc@Base 2.9
 _ZNKSt6vectorIP11LexerModuleSaIS1_EE4sizeEv@Base 2.8.4
 _ZNKSt6vectorIP11LexerModuleSaIS1_EE8max_sizeEv@Base 2.8.4
 _ZNKSt6vectorIP14SelectionRangeSaIS1_EE12_M_check_lenEjPKc@Base 2.9
 _ZNKSt6vectorIP14SelectionRangeSaIS1_EE4sizeEv@Base 2.8.4
 _ZNKSt6vectorIP14SelectionRangeSaIS1_EE8max_sizeEv@Base 2.8.4
 _ZNKSt6vectorIPcSaIS0_EE12_M_check_lenEjPKc@Base 2.9
 _ZNKSt6vectorIPcSaIS0_EE4sizeEv@Base 2.8.4
 _ZNKSt6vectorIPcSaIS0_EE8max_sizeEv@Base 2.8.4
 _ZNKSt6vectorIcSaIcEE4sizeEv@Base 2.8.4
 _ZNKSt6vectorIiSaIiEE12_M_check_lenEjPKc@Base 2.9
 _ZNKSt6vectorIiSaIiEE3endEv@Base 2.8.4
 _ZNKSt6vectorIiSaIiEE4sizeEv@Base 2.8.4
 _ZNKSt6vectorIiSaIiEE5beginEv@Base 2.8.4
 _ZNKSt6vectorIiSaIiEE5emptyEv@Base 2.8.4
 _ZNKSt6vectorIiSaIiEE6cbeginEv@Base 2.9.2+dfsg
 _ZNKSt6vectorIiSaIiEE8capacityEv@Base 2.8.4
 _ZNKSt6vectorIiSaIiEE8max_sizeEv@Base 2.8.4
 _ZNKSt8_Rb_treeI12KeyModifiersSt4pairIKS0_jESt10_Select1stIS3_ESt4lessIS0_ESaIS3_EE14_M_lower_boundEPKSt13_Rb_tree_nodeIS3_EPKSt18_Rb_tree_node_baseRS2_@Base 2.9.3
 _ZNKSt8_Rb_treeI12KeyModifiersSt4pairIKS0_jESt10_Select1stIS3_ESt4lessIS0_ESaIS3_EE3endEv@Base 2.9
 _ZNKSt8_Rb_treeI12KeyModifiersSt4pairIKS0_jESt10_Select1stIS3_ESt4lessIS0_ESaIS3_EE4findERS2_@Base 2.9
 _ZNKSt8_Rb_treeI12KeyModifiersSt4pairIKS0_jESt10_Select1stIS3_ESt4lessIS0_ESaIS3_EE4sizeEv@Base 2.9
 _ZNKSt8_Rb_treeI12KeyModifiersSt4pairIKS0_jESt10_Select1stIS3_ESt4lessIS0_ESaIS3_EE6_M_endEv@Base 2.9
 _ZNKSt8_Rb_treeI12KeyModifiersSt4pairIKS0_jESt10_Select1stIS3_ESt4lessIS0_ESaIS3_EE8_M_beginEv@Base 2.9
 _ZNKSt8_Rb_treeI12KeyModifiersSt4pairIKS0_jESt10_Select1stIS3_ESt4lessIS0_ESaIS3_EE8key_compEv@Base 2.9
 _ZNKSt8_Rb_treeI17FontSpecificationSt4pairIKS0_P12FontRealisedESt10_Select1stIS5_ESt4lessIS0_ESaIS5_EE4sizeEv@Base 2.8.4
 _ZNKSt8_Rb_treeI17FontSpecificationSt4pairIKS0_P12FontRealisedESt10_Select1stIS5_ESt4lessIS0_ESaIS5_EE8key_compEv@Base 2.8.4
 _ZNKSt8_Rb_treeINSt7__cxx1112basic_stringIcSt11char_traitsIcESaIcEEESt4pairIKS5_N12LexerVerilog11SymbolValueEESt10_Select1stISA_ESt4lessIS5_ESaISA_EE11_Alloc_nodeclIRKSA_EEPSt13_Rb_tree_nodeISA_EOT_@Base 2.9.2+dfsg
 _ZNKSt8_Rb_treeINSt7__cxx1112basic_stringIcSt11char_traitsIcESaIcEEESt4pairIKS5_N12LexerVerilog11SymbolValueEESt10_Select1stISA_ESt4lessIS5_ESaISA_EE21_M_get_Node_allocatorEv@Base 2.9
 _ZNKSt8_Rb_treeINSt7__cxx1112basic_stringIcSt11char_traitsIcESaIcEEESt4pairIKS5_N12LexerVerilog11SymbolValueEESt10_Select1stISA_ESt4lessIS5_ESaISA_EE4sizeEv@Base 2.9
 _ZNKSt8_Rb_treeINSt7__cxx1112basic_stringIcSt11char_traitsIcESaIcEEESt4pairIKS5_N12LexerVerilog11SymbolValueEESt10_Select1stISA_ESt4lessIS5_ESaISA_EE7_M_rootEv@Base 2.9
 _ZNKSt8_Rb_treeINSt7__cxx1112basic_stringIcSt11char_traitsIcESaIcEEESt4pairIKS5_N12LexerVerilog11SymbolValueEESt10_Select1stISA_ESt4lessIS5_ESaISA_EE8_M_beginEv@Base 2.9
 _ZNKSt8_Rb_treeINSt7__cxx1112basic_stringIcSt11char_traitsIcESaIcEEESt4pairIKS5_N12LexerVerilog11SymbolValueEESt10_Select1stISA_ESt4lessIS5_ESaISA_EE8key_compEv@Base 2.9
 _ZNKSt8_Rb_treeINSt7__cxx1112basic_stringIcSt11char_traitsIcESaIcEEESt4pairIKS5_N8LexerCPP11SymbolValueEESt10_Select1stISA_ESt4lessIS5_ESaISA_EE11_Alloc_nodeclIRKSA_EEPSt13_Rb_tree_nodeISA_EOT_@Base 2.9.2+dfsg
 _ZNKSt8_Rb_treeINSt7__cxx1112basic_stringIcSt11char_traitsIcESaIcEEESt4pairIKS5_N8LexerCPP11SymbolValueEESt10_Select1stISA_ESt4lessIS5_ESaISA_EE14_M_lower_boundEPKSt13_Rb_tree_nodeISA_EPKSt18_Rb_tree_node_baseRS7_@Base 2.9.3
 _ZNKSt8_Rb_treeINSt7__cxx1112basic_stringIcSt11char_traitsIcESaIcEEESt4pairIKS5_N8LexerCPP11SymbolValueEESt10_Select1stISA_ESt4lessIS5_ESaISA_EE21_M_get_Node_allocatorEv@Base 2.9
 _ZNKSt8_Rb_treeINSt7__cxx1112basic_stringIcSt11char_traitsIcESaIcEEESt4pairIKS5_N8LexerCPP11SymbolValueEESt10_Select1stISA_ESt4lessIS5_ESaISA_EE3endEv@Base 2.9
 _ZNKSt8_Rb_treeINSt7__cxx1112basic_stringIcSt11char_traitsIcESaIcEEESt4pairIKS5_N8LexerCPP11SymbolValueEESt10_Select1stISA_ESt4lessIS5_ESaISA_EE4findERS7_@Base 2.9
 _ZNKSt8_Rb_treeINSt7__cxx1112basic_stringIcSt11char_traitsIcESaIcEEESt4pairIKS5_N8LexerCPP11SymbolValueEESt10_Select1stISA_ESt4lessIS5_ESaISA_EE4sizeEv@Base 2.9
 _ZNKSt8_Rb_treeINSt7__cxx1112basic_stringIcSt11char_traitsIcESaIcEEESt4pairIKS5_N8LexerCPP11SymbolValueEESt10_Select1stISA_ESt4lessIS5_ESaISA_EE6_M_endEv@Base 2.9
 _ZNKSt8_Rb_treeINSt7__cxx1112basic_stringIcSt11char_traitsIcESaIcEEESt4pairIKS5_N8LexerCPP11SymbolValueEESt10_Select1stISA_ESt4lessIS5_ESaISA_EE7_M_rootEv@Base 2.9
 _ZNKSt8_Rb_treeINSt7__cxx1112basic_stringIcSt11char_traitsIcESaIcEEESt4pairIKS5_N8LexerCPP11SymbolValueEESt10_Select1stISA_ESt4lessIS5_ESaISA_EE8_M_beginEv@Base 2.9
 _ZNKSt8_Rb_treeINSt7__cxx1112basic_stringIcSt11char_traitsIcESaIcEEESt4pairIKS5_N8LexerCPP11SymbolValueEESt10_Select1stISA_ESt4lessIS5_ESaISA_EE8key_compEv@Base 2.9
 _ZNKSt8_Rb_treeINSt7__cxx1112basic_stringIcSt11char_traitsIcESaIcEEESt4pairIKS5_N9OptionSetI10OptionsAsmE6OptionEESt10_Select1stISC_ESt4lessIS5_ESaISC_EE4sizeEv@Base 2.9
 _ZNKSt8_Rb_treeINSt7__cxx1112basic_stringIcSt11char_traitsIcESaIcEEESt4pairIKS5_N9OptionSetI10OptionsAsmE6OptionEESt10_Select1stISC_ESt4lessIS5_ESaISC_EE8key_compEv@Base 2.9
 _ZNKSt8_Rb_treeINSt7__cxx1112basic_stringIcSt11char_traitsIcESaIcEEESt4pairIKS5_N9OptionSetI10OptionsSQLE6OptionEESt10_Select1stISC_ESt4lessIS5_ESaISC_EE4sizeEv@Base 2.9
 _ZNKSt8_Rb_treeINSt7__cxx1112basic_stringIcSt11char_traitsIcESaIcEEESt4pairIKS5_N9OptionSetI10OptionsSQLE6OptionEESt10_Select1stISC_ESt4lessIS5_ESaISC_EE8key_compEv@Base 2.9
 _ZNKSt8_Rb_treeINSt7__cxx1112basic_stringIcSt11char_traitsIcESaIcEEESt4pairIKS5_N9OptionSetI11OptionsPerlE6OptionEESt10_Select1stISC_ESt4lessIS5_ESaISC_EE4sizeEv@Base 2.9
 _ZNKSt8_Rb_treeINSt7__cxx1112basic_stringIcSt11char_traitsIcESaIcEEESt4pairIKS5_N9OptionSetI11OptionsPerlE6OptionEESt10_Select1stISC_ESt4lessIS5_ESaISC_EE8key_compEv@Base 2.9
 _ZNKSt8_Rb_treeINSt7__cxx1112basic_stringIcSt11char_traitsIcESaIcEEESt4pairIKS5_N9OptionSetI11OptionsRustE6OptionEESt10_Select1stISC_ESt4lessIS5_ESaISC_EE4sizeEv@Base 2.9
 _ZNKSt8_Rb_treeINSt7__cxx1112basic_stringIcSt11char_traitsIcESaIcEEESt4pairIKS5_N9OptionSetI11OptionsRustE6OptionEESt10_Select1stISC_ESt4lessIS5_ESaISC_EE8key_compEv@Base 2.9
 _ZNKSt8_Rb_treeINSt7__cxx1112basic_stringIcSt11char_traitsIcESaIcEEESt4pairIKS5_N9OptionSetI12OptionsBasicE6OptionEESt10_Select1stISC_ESt4lessIS5_ESaISC_EE4sizeEv@Base 2.9
 _ZNKSt8_Rb_treeINSt7__cxx1112basic_stringIcSt11char_traitsIcESaIcEEESt4pairIKS5_N9OptionSetI12OptionsBasicE6OptionEESt10_Select1stISC_ESt4lessIS5_ESaISC_EE8key_compEv@Base 2.9
 _ZNKSt8_Rb_treeINSt7__cxx1112basic_stringIcSt11char_traitsIcESaIcEEESt4pairIKS5_N9OptionSetI14OptionsHaskellE6OptionEESt10_Select1stISC_ESt4lessIS5_ESaISC_EE4sizeEv@Base 2.9
 _ZNKSt8_Rb_treeINSt7__cxx1112basic_stringIcSt11char_traitsIcESaIcEEESt4pairIKS5_N9OptionSetI14OptionsHaskellE6OptionEESt10_Select1stISC_ESt4lessIS5_ESaISC_EE8key_compEv@Base 2.9
 _ZNKSt8_Rb_treeINSt7__cxx1112basic_stringIcSt11char_traitsIcESaIcEEESt4pairIKS5_N9OptionSetI15OptionsRegistryE6OptionEESt10_Select1stISC_ESt4lessIS5_ESaISC_EE4sizeEv@Base 2.9
 _ZNKSt8_Rb_treeINSt7__cxx1112basic_stringIcSt11char_traitsIcESaIcEEESt4pairIKS5_N9OptionSetI15OptionsRegistryE6OptionEESt10_Select1stISC_ESt4lessIS5_ESaISC_EE8key_compEv@Base 2.9
 _ZNKSt8_Rb_treeINSt7__cxx1112basic_stringIcSt11char_traitsIcESaIcEEESt4pairIKS5_N9OptionSetI8OptionsDE6OptionEESt10_Select1stISC_ESt4lessIS5_ESaISC_EE4sizeEv@Base 2.9
 _ZNKSt8_Rb_treeINSt7__cxx1112basic_stringIcSt11char_traitsIcESaIcEEESt4pairIKS5_N9OptionSetI8OptionsDE6OptionEESt10_Select1stISC_ESt4lessIS5_ESaISC_EE8key_compEv@Base 2.9
 _ZNKSt8_Rb_treeINSt7__cxx1112basic_stringIcSt11char_traitsIcESaIcEEESt4pairIKS5_S5_ESt10_Select1stIS8_ESt4lessIS5_ESaIS8_EE4sizeEv@Base 2.9
 _ZNKSt8_Rb_treeINSt7__cxx1112basic_stringIcSt11char_traitsIcESaIcEEESt4pairIKS5_S5_ESt10_Select1stIS8_ESt4lessIS5_ESaIS8_EE8key_compEv@Base 2.9
 _ZNKSt8_Rb_treeINSt7__cxx1112basic_stringIcSt11char_traitsIcESaIcEEESt4pairIKS5_iESt10_Select1stIS8_ESt4lessIS5_ESaIS8_EE14_M_lower_boundEPKSt13_Rb_tree_nodeIS8_EPKSt18_Rb_tree_node_baseRS7_@Base 2.9.3
 _ZNKSt8_Rb_treeINSt7__cxx1112basic_stringIcSt11char_traitsIcESaIcEEESt4pairIKS5_iESt10_Select1stIS8_ESt4lessIS5_ESaIS8_EE3endEv@Base 2.9
 _ZNKSt8_Rb_treeINSt7__cxx1112basic_stringIcSt11char_traitsIcESaIcEEESt4pairIKS5_iESt10_Select1stIS8_ESt4lessIS5_ESaIS8_EE4findERS7_@Base 2.9
 _ZNKSt8_Rb_treeINSt7__cxx1112basic_stringIcSt11char_traitsIcESaIcEEESt4pairIKS5_iESt10_Select1stIS8_ESt4lessIS5_ESaIS8_EE4sizeEv@Base 2.9
 _ZNKSt8_Rb_treeINSt7__cxx1112basic_stringIcSt11char_traitsIcESaIcEEESt4pairIKS5_iESt10_Select1stIS8_ESt4lessIS5_ESaIS8_EE6_M_endEv@Base 2.9
 _ZNKSt8_Rb_treeINSt7__cxx1112basic_stringIcSt11char_traitsIcESaIcEEESt4pairIKS5_iESt10_Select1stIS8_ESt4lessIS5_ESaIS8_EE8_M_beginEv@Base 2.9
 _ZNKSt8_Rb_treeINSt7__cxx1112basic_stringIcSt11char_traitsIcESaIcEEESt4pairIKS5_iESt10_Select1stIS8_ESt4lessIS5_ESaIS8_EE8key_compEv@Base 2.9
 _ZNKSt8_Rb_treeIiSt4pairIKi14RepresentationESt10_Select1stIS3_ESt4lessIiESaIS3_EE14_M_lower_boundEPKSt13_Rb_tree_nodeIS3_EPKSt18_Rb_tree_node_baseRS1_@Base 2.9.3
 _ZNKSt8_Rb_treeIiSt4pairIKi14RepresentationESt10_Select1stIS3_ESt4lessIiESaIS3_EE3endEv@Base 2.8.4
 _ZNKSt8_Rb_treeIiSt4pairIKi14RepresentationESt10_Select1stIS3_ESt4lessIiESaIS3_EE4findERS1_@Base 2.8.4
 _ZNKSt8_Rb_treeIiSt4pairIKi14RepresentationESt10_Select1stIS3_ESt4lessIiESaIS3_EE4sizeEv@Base 2.8.4
 _ZNKSt8_Rb_treeIiSt4pairIKi14RepresentationESt10_Select1stIS3_ESt4lessIiESaIS3_EE6_M_endEv@Base 2.8.4
 _ZNKSt8_Rb_treeIiSt4pairIKi14RepresentationESt10_Select1stIS3_ESt4lessIiESaIS3_EE8_M_beginEv@Base 2.8.4
 _ZNKSt8_Rb_treeIiSt4pairIKi14RepresentationESt10_Select1stIS3_ESt4lessIiESaIS3_EE8key_compEv@Base 2.8.4
 _ZNKSt8_Rb_treeIiSt4pairIKiiESt10_Select1stIS2_ESt4lessIiESaIS2_EE4sizeEv@Base 2.9
 _ZNKSt8_Rb_treeIiSt4pairIKiiESt10_Select1stIS2_ESt4lessIiESaIS2_EE8key_compEv@Base 2.9
 _ZNO7QString8toLatin1Ev@Base 2.9.2+dfsg
 _ZNSaI13latexFoldSaveEC1Ev@Base 2.8.4
 _ZNSaI13latexFoldSaveEC2Ev@Base 2.8.4
 _ZNSaI13latexFoldSaveED1Ev@Base 2.8.4
 _ZNSaI13latexFoldSaveED2Ev@Base 2.8.4
 _ZNSaI14SelectionRangeEC1ERKS0_@Base 2.8.4
 _ZNSaI14SelectionRangeEC1Ev@Base 2.8.4
 _ZNSaI14SelectionRangeEC2ERKS0_@Base 2.8.4
 _ZNSaI14SelectionRangeEC2Ev@Base 2.8.4
 _ZNSaI14SelectionRangeED1Ev@Base 2.8.4
 _ZNSaI14SelectionRangeED2Ev@Base 2.8.4
 _ZNSaI14WordClassifierEC1Ev@Base 2.8.4
 _ZNSaI14WordClassifierEC2Ev@Base 2.8.4
 _ZNSaI14WordClassifierED1Ev@Base 2.8.4
 _ZNSaI14WordClassifierED2Ev@Base 2.8.4
 _ZNSaI18PositionCacheEntryEC1Ev@Base 2.8.4
 _ZNSaI18PositionCacheEntryEC2Ev@Base 2.8.4
 _ZNSaI18PositionCacheEntryED1Ev@Base 2.8.4
 _ZNSaI18PositionCacheEntryED2Ev@Base 2.8.4
 _ZNSaI5StyleEC1Ev@Base 2.8.4
 _ZNSaI5StyleEC2Ev@Base 2.8.4
 _ZNSaI5StyleED1Ev@Base 2.8.4
 _ZNSaI5StyleED2Ev@Base 2.8.4
 _ZNSaI9DrawPhaseEC1Ev@Base 2.9
 _ZNSaI9DrawPhaseEC2Ev@Base 2.9
 _ZNSaI9DrawPhaseED1Ev@Base 2.9
 _ZNSaI9DrawPhaseED2Ev@Base 2.9
 _ZNSaIN11SparseStateINSt7__cxx1112basic_stringIcSt11char_traitsIcESaIcEEEE5StateEEC1Ev@Base 2.9
 _ZNSaIN11SparseStateINSt7__cxx1112basic_stringIcSt11char_traitsIcESaIcEEEE5StateEEC2Ev@Base 2.9
 _ZNSaIN11SparseStateINSt7__cxx1112basic_stringIcSt11char_traitsIcESaIcEEEE5StateEED1Ev@Base 2.9
 _ZNSaIN11SparseStateINSt7__cxx1112basic_stringIcSt11char_traitsIcESaIcEEEE5StateEED2Ev@Base 2.9
 _ZNSaIN11SparseStateIjE5StateEEC1Ev@Base 2.8.4
 _ZNSaIN11SparseStateIjE5StateEEC2Ev@Base 2.8.4
 _ZNSaIN11SparseStateIjE5StateEED1Ev@Base 2.8.4
 _ZNSaIN11SparseStateIjE5StateEED2Ev@Base 2.8.4
 _ZNSaIN8Document19WatcherWithUserDataEEC1Ev@Base 2.8.4
 _ZNSaIN8Document19WatcherWithUserDataEEC2Ev@Base 2.8.4
 _ZNSaIN8Document19WatcherWithUserDataEED1Ev@Base 2.8.4
 _ZNSaIN8Document19WatcherWithUserDataEED2Ev@Base 2.8.4
 _ZNSaINSt7__cxx1112basic_stringIcSt11char_traitsIcESaIcEEEEC1ERKS5_@Base 2.9
 _ZNSaINSt7__cxx1112basic_stringIcSt11char_traitsIcESaIcEEEEC1Ev@Base 2.9
 _ZNSaINSt7__cxx1112basic_stringIcSt11char_traitsIcESaIcEEEEC2ERKS5_@Base 2.9
 _ZNSaINSt7__cxx1112basic_stringIcSt11char_traitsIcESaIcEEEEC2Ev@Base 2.9
 _ZNSaINSt7__cxx1112basic_stringIcSt11char_traitsIcESaIcEEEED1Ev@Base 2.9
 _ZNSaINSt7__cxx1112basic_stringIcSt11char_traitsIcESaIcEEEED2Ev@Base 2.9
 _ZNSaIP10LineLayoutEC1Ev@Base 2.8.4
 _ZNSaIP10LineLayoutEC2Ev@Base 2.8.4
 _ZNSaIP10LineLayoutED1Ev@Base 2.8.4
 _ZNSaIP10LineLayoutED2Ev@Base 2.8.4
 _ZNSaIP11LexerModuleEC1Ev@Base 2.8.4
 _ZNSaIP11LexerModuleEC2Ev@Base 2.8.4
 _ZNSaIP11LexerModuleED1Ev@Base 2.8.4
 _ZNSaIP11LexerModuleED2Ev@Base 2.8.4
 _ZNSaIP14SelectionRangeEC1Ev@Base 2.8.4
 _ZNSaIP14SelectionRangeEC2Ev@Base 2.8.4
 _ZNSaIP14SelectionRangeED1Ev@Base 2.8.4
 _ZNSaIP14SelectionRangeED2Ev@Base 2.8.4
 _ZNSaIPcEC1Ev@Base 2.8.4
 _ZNSaIPcEC2Ev@Base 2.8.4
 _ZNSaIPcED1Ev@Base 2.8.4
 _ZNSaIPcED2Ev@Base 2.8.4
 _ZNSaISt13_Rb_tree_nodeISt4pairIK12KeyModifiersjEEEC1Ev@Base 2.9
 _ZNSaISt13_Rb_tree_nodeISt4pairIK12KeyModifiersjEEEC2Ev@Base 2.9
 _ZNSaISt13_Rb_tree_nodeISt4pairIK12KeyModifiersjEEED1Ev@Base 2.9
 _ZNSaISt13_Rb_tree_nodeISt4pairIK12KeyModifiersjEEED2Ev@Base 2.9
 _ZNSaISt13_Rb_tree_nodeISt4pairIK17FontSpecificationP12FontRealisedEEEC1Ev@Base 2.8.4
 _ZNSaISt13_Rb_tree_nodeISt4pairIK17FontSpecificationP12FontRealisedEEEC2Ev@Base 2.8.4
 _ZNSaISt13_Rb_tree_nodeISt4pairIK17FontSpecificationP12FontRealisedEEED1Ev@Base 2.8.4
 _ZNSaISt13_Rb_tree_nodeISt4pairIK17FontSpecificationP12FontRealisedEEED2Ev@Base 2.8.4
 _ZNSaISt13_Rb_tree_nodeISt4pairIKNSt7__cxx1112basic_stringIcSt11char_traitsIcESaIcEEEN12LexerVerilog11SymbolValueEEEEC1ERKSC_@Base 2.9
 _ZNSaISt13_Rb_tree_nodeISt4pairIKNSt7__cxx1112basic_stringIcSt11char_traitsIcESaIcEEEN12LexerVerilog11SymbolValueEEEEC1Ev@Base 2.9
 _ZNSaISt13_Rb_tree_nodeISt4pairIKNSt7__cxx1112basic_stringIcSt11char_traitsIcESaIcEEEN12LexerVerilog11SymbolValueEEEEC2ERKSC_@Base 2.9
 _ZNSaISt13_Rb_tree_nodeISt4pairIKNSt7__cxx1112basic_stringIcSt11char_traitsIcESaIcEEEN12LexerVerilog11SymbolValueEEEEC2Ev@Base 2.9
 _ZNSaISt13_Rb_tree_nodeISt4pairIKNSt7__cxx1112basic_stringIcSt11char_traitsIcESaIcEEEN12LexerVerilog11SymbolValueEEEED1Ev@Base 2.9
 _ZNSaISt13_Rb_tree_nodeISt4pairIKNSt7__cxx1112basic_stringIcSt11char_traitsIcESaIcEEEN12LexerVerilog11SymbolValueEEEED2Ev@Base 2.9
 _ZNSaISt13_Rb_tree_nodeISt4pairIKNSt7__cxx1112basic_stringIcSt11char_traitsIcESaIcEEEN8LexerCPP11SymbolValueEEEEC1ERKSC_@Base 2.9
 _ZNSaISt13_Rb_tree_nodeISt4pairIKNSt7__cxx1112basic_stringIcSt11char_traitsIcESaIcEEEN8LexerCPP11SymbolValueEEEEC1Ev@Base 2.9
 _ZNSaISt13_Rb_tree_nodeISt4pairIKNSt7__cxx1112basic_stringIcSt11char_traitsIcESaIcEEEN8LexerCPP11SymbolValueEEEEC2ERKSC_@Base 2.9
 _ZNSaISt13_Rb_tree_nodeISt4pairIKNSt7__cxx1112basic_stringIcSt11char_traitsIcESaIcEEEN8LexerCPP11SymbolValueEEEEC2Ev@Base 2.9
 _ZNSaISt13_Rb_tree_nodeISt4pairIKNSt7__cxx1112basic_stringIcSt11char_traitsIcESaIcEEEN8LexerCPP11SymbolValueEEEED1Ev@Base 2.9
 _ZNSaISt13_Rb_tree_nodeISt4pairIKNSt7__cxx1112basic_stringIcSt11char_traitsIcESaIcEEEN8LexerCPP11SymbolValueEEEED2Ev@Base 2.9
 _ZNSaISt13_Rb_tree_nodeISt4pairIKNSt7__cxx1112basic_stringIcSt11char_traitsIcESaIcEEEN9OptionSetI10OptionsAsmE6OptionEEEEC1Ev@Base 2.9
 _ZNSaISt13_Rb_tree_nodeISt4pairIKNSt7__cxx1112basic_stringIcSt11char_traitsIcESaIcEEEN9OptionSetI10OptionsAsmE6OptionEEEEC2Ev@Base 2.9
 _ZNSaISt13_Rb_tree_nodeISt4pairIKNSt7__cxx1112basic_stringIcSt11char_traitsIcESaIcEEEN9OptionSetI10OptionsAsmE6OptionEEEED1Ev@Base 2.9
 _ZNSaISt13_Rb_tree_nodeISt4pairIKNSt7__cxx1112basic_stringIcSt11char_traitsIcESaIcEEEN9OptionSetI10OptionsAsmE6OptionEEEED2Ev@Base 2.9
 _ZNSaISt13_Rb_tree_nodeISt4pairIKNSt7__cxx1112basic_stringIcSt11char_traitsIcESaIcEEEN9OptionSetI10OptionsSQLE6OptionEEEEC1Ev@Base 2.9
 _ZNSaISt13_Rb_tree_nodeISt4pairIKNSt7__cxx1112basic_stringIcSt11char_traitsIcESaIcEEEN9OptionSetI10OptionsSQLE6OptionEEEEC2Ev@Base 2.9
 _ZNSaISt13_Rb_tree_nodeISt4pairIKNSt7__cxx1112basic_stringIcSt11char_traitsIcESaIcEEEN9OptionSetI10OptionsSQLE6OptionEEEED1Ev@Base 2.9
 _ZNSaISt13_Rb_tree_nodeISt4pairIKNSt7__cxx1112basic_stringIcSt11char_traitsIcESaIcEEEN9OptionSetI10OptionsSQLE6OptionEEEED2Ev@Base 2.9
 _ZNSaISt13_Rb_tree_nodeISt4pairIKNSt7__cxx1112basic_stringIcSt11char_traitsIcESaIcEEEN9OptionSetI11OptionsPerlE6OptionEEEEC1Ev@Base 2.9
 _ZNSaISt13_Rb_tree_nodeISt4pairIKNSt7__cxx1112basic_stringIcSt11char_traitsIcESaIcEEEN9OptionSetI11OptionsPerlE6OptionEEEEC2Ev@Base 2.9
 _ZNSaISt13_Rb_tree_nodeISt4pairIKNSt7__cxx1112basic_stringIcSt11char_traitsIcESaIcEEEN9OptionSetI11OptionsPerlE6OptionEEEED1Ev@Base 2.9
 _ZNSaISt13_Rb_tree_nodeISt4pairIKNSt7__cxx1112basic_stringIcSt11char_traitsIcESaIcEEEN9OptionSetI11OptionsPerlE6OptionEEEED2Ev@Base 2.9
 _ZNSaISt13_Rb_tree_nodeISt4pairIKNSt7__cxx1112basic_stringIcSt11char_traitsIcESaIcEEEN9OptionSetI11OptionsRustE6OptionEEEEC1Ev@Base 2.9
 _ZNSaISt13_Rb_tree_nodeISt4pairIKNSt7__cxx1112basic_stringIcSt11char_traitsIcESaIcEEEN9OptionSetI11OptionsRustE6OptionEEEEC2Ev@Base 2.9
 _ZNSaISt13_Rb_tree_nodeISt4pairIKNSt7__cxx1112basic_stringIcSt11char_traitsIcESaIcEEEN9OptionSetI11OptionsRustE6OptionEEEED1Ev@Base 2.9
 _ZNSaISt13_Rb_tree_nodeISt4pairIKNSt7__cxx1112basic_stringIcSt11char_traitsIcESaIcEEEN9OptionSetI11OptionsRustE6OptionEEEED2Ev@Base 2.9
 _ZNSaISt13_Rb_tree_nodeISt4pairIKNSt7__cxx1112basic_stringIcSt11char_traitsIcESaIcEEEN9OptionSetI12OptionsBasicE6OptionEEEEC1Ev@Base 2.9
 _ZNSaISt13_Rb_tree_nodeISt4pairIKNSt7__cxx1112basic_stringIcSt11char_traitsIcESaIcEEEN9OptionSetI12OptionsBasicE6OptionEEEEC2Ev@Base 2.9
 _ZNSaISt13_Rb_tree_nodeISt4pairIKNSt7__cxx1112basic_stringIcSt11char_traitsIcESaIcEEEN9OptionSetI12OptionsBasicE6OptionEEEED1Ev@Base 2.9
 _ZNSaISt13_Rb_tree_nodeISt4pairIKNSt7__cxx1112basic_stringIcSt11char_traitsIcESaIcEEEN9OptionSetI12OptionsBasicE6OptionEEEED2Ev@Base 2.9
 _ZNSaISt13_Rb_tree_nodeISt4pairIKNSt7__cxx1112basic_stringIcSt11char_traitsIcESaIcEEEN9OptionSetI14OptionsHaskellE6OptionEEEEC1Ev@Base 2.9
 _ZNSaISt13_Rb_tree_nodeISt4pairIKNSt7__cxx1112basic_stringIcSt11char_traitsIcESaIcEEEN9OptionSetI14OptionsHaskellE6OptionEEEEC2Ev@Base 2.9
 _ZNSaISt13_Rb_tree_nodeISt4pairIKNSt7__cxx1112basic_stringIcSt11char_traitsIcESaIcEEEN9OptionSetI14OptionsHaskellE6OptionEEEED1Ev@Base 2.9
 _ZNSaISt13_Rb_tree_nodeISt4pairIKNSt7__cxx1112basic_stringIcSt11char_traitsIcESaIcEEEN9OptionSetI14OptionsHaskellE6OptionEEEED2Ev@Base 2.9
 _ZNSaISt13_Rb_tree_nodeISt4pairIKNSt7__cxx1112basic_stringIcSt11char_traitsIcESaIcEEEN9OptionSetI15OptionsRegistryE6OptionEEEEC1Ev@Base 2.9
 _ZNSaISt13_Rb_tree_nodeISt4pairIKNSt7__cxx1112basic_stringIcSt11char_traitsIcESaIcEEEN9OptionSetI15OptionsRegistryE6OptionEEEEC2Ev@Base 2.9
 _ZNSaISt13_Rb_tree_nodeISt4pairIKNSt7__cxx1112basic_stringIcSt11char_traitsIcESaIcEEEN9OptionSetI15OptionsRegistryE6OptionEEEED1Ev@Base 2.9
 _ZNSaISt13_Rb_tree_nodeISt4pairIKNSt7__cxx1112basic_stringIcSt11char_traitsIcESaIcEEEN9OptionSetI15OptionsRegistryE6OptionEEEED2Ev@Base 2.9
 _ZNSaISt13_Rb_tree_nodeISt4pairIKNSt7__cxx1112basic_stringIcSt11char_traitsIcESaIcEEEN9OptionSetI19OptionsVisualPrologE6OptionEEEEC1Ev@Base 2.9
 _ZNSaISt13_Rb_tree_nodeISt4pairIKNSt7__cxx1112basic_stringIcSt11char_traitsIcESaIcEEEN9OptionSetI19OptionsVisualPrologE6OptionEEEEC2Ev@Base 2.9
 _ZNSaISt13_Rb_tree_nodeISt4pairIKNSt7__cxx1112basic_stringIcSt11char_traitsIcESaIcEEEN9OptionSetI19OptionsVisualPrologE6OptionEEEED1Ev@Base 2.9
 _ZNSaISt13_Rb_tree_nodeISt4pairIKNSt7__cxx1112basic_stringIcSt11char_traitsIcESaIcEEEN9OptionSetI19OptionsVisualPrologE6OptionEEEED2Ev@Base 2.9
 _ZNSaISt13_Rb_tree_nodeISt4pairIKNSt7__cxx1112basic_stringIcSt11char_traitsIcESaIcEEEN9OptionSetI8OptionsDE6OptionEEEEC1Ev@Base 2.9
 _ZNSaISt13_Rb_tree_nodeISt4pairIKNSt7__cxx1112basic_stringIcSt11char_traitsIcESaIcEEEN9OptionSetI8OptionsDE6OptionEEEEC2Ev@Base 2.9
 _ZNSaISt13_Rb_tree_nodeISt4pairIKNSt7__cxx1112basic_stringIcSt11char_traitsIcESaIcEEEN9OptionSetI8OptionsDE6OptionEEEED1Ev@Base 2.9
 _ZNSaISt13_Rb_tree_nodeISt4pairIKNSt7__cxx1112basic_stringIcSt11char_traitsIcESaIcEEEN9OptionSetI8OptionsDE6OptionEEEED2Ev@Base 2.9
 _ZNSaISt13_Rb_tree_nodeISt4pairIKNSt7__cxx1112basic_stringIcSt11char_traitsIcESaIcEEES6_EEEC1Ev@Base 2.9
 _ZNSaISt13_Rb_tree_nodeISt4pairIKNSt7__cxx1112basic_stringIcSt11char_traitsIcESaIcEEES6_EEEC2Ev@Base 2.9
 _ZNSaISt13_Rb_tree_nodeISt4pairIKNSt7__cxx1112basic_stringIcSt11char_traitsIcESaIcEEES6_EEED1Ev@Base 2.9
 _ZNSaISt13_Rb_tree_nodeISt4pairIKNSt7__cxx1112basic_stringIcSt11char_traitsIcESaIcEEES6_EEED2Ev@Base 2.9
 _ZNSaISt13_Rb_tree_nodeISt4pairIKNSt7__cxx1112basic_stringIcSt11char_traitsIcESaIcEEEiEEEC1ERKSA_@Base 2.9
 _ZNSaISt13_Rb_tree_nodeISt4pairIKNSt7__cxx1112basic_stringIcSt11char_traitsIcESaIcEEEiEEEC1Ev@Base 2.9
 _ZNSaISt13_Rb_tree_nodeISt4pairIKNSt7__cxx1112basic_stringIcSt11char_traitsIcESaIcEEEiEEEC2ERKSA_@Base 2.9
 _ZNSaISt13_Rb_tree_nodeISt4pairIKNSt7__cxx1112basic_stringIcSt11char_traitsIcESaIcEEEiEEEC2Ev@Base 2.9
 _ZNSaISt13_Rb_tree_nodeISt4pairIKNSt7__cxx1112basic_stringIcSt11char_traitsIcESaIcEEEiEEED1Ev@Base 2.9
 _ZNSaISt13_Rb_tree_nodeISt4pairIKNSt7__cxx1112basic_stringIcSt11char_traitsIcESaIcEEEiEEED2Ev@Base 2.9
 _ZNSaISt13_Rb_tree_nodeISt4pairIKi14RepresentationEEEC1Ev@Base 2.8.4
 _ZNSaISt13_Rb_tree_nodeISt4pairIKi14RepresentationEEEC2Ev@Base 2.8.4
 _ZNSaISt13_Rb_tree_nodeISt4pairIKi14RepresentationEEED1Ev@Base 2.8.4
 _ZNSaISt13_Rb_tree_nodeISt4pairIKi14RepresentationEEED2Ev@Base 2.8.4
 _ZNSaISt13_Rb_tree_nodeISt4pairIKiiEEEC1Ev@Base 2.9
 _ZNSaISt13_Rb_tree_nodeISt4pairIKiiEEEC2Ev@Base 2.9
 _ZNSaISt13_Rb_tree_nodeISt4pairIKiiEEED1Ev@Base 2.9
 _ZNSaISt13_Rb_tree_nodeISt4pairIKiiEEED2Ev@Base 2.9
 _ZNSaIiEC1ERKS_@Base 2.8.4
 _ZNSaIiEC1Ev@Base 2.8.4
 _ZNSaIiEC2ERKS_@Base 2.8.4
 _ZNSaIiEC2Ev@Base 2.8.4
 _ZNSaIiED1Ev@Base 2.8.4
 _ZNSaIiED2Ev@Base 2.8.4
 _ZNSt10_Head_baseILj0EO12KeyModifiersLb0EE7_M_headERS2_@Base 2.9.2+dfsg
 _ZNSt10_Head_baseILj0EO12KeyModifiersLb0EEC1IS0_EEOT_@Base 2.9.2+dfsg
 _ZNSt10_Head_baseILj0EO12KeyModifiersLb0EEC2IS0_EEOT_@Base 2.9.2+dfsg
 _ZNSt10_Head_baseILj0EONSt7__cxx1112basic_stringIcSt11char_traitsIcESaIcEEELb0EE7_M_headERS7_@Base 2.9.2+dfsg
 _ZNSt10_Head_baseILj0EONSt7__cxx1112basic_stringIcSt11char_traitsIcESaIcEEELb0EEC1IS5_EEOT_@Base 2.9.2+dfsg
 _ZNSt10_Head_baseILj0EONSt7__cxx1112basic_stringIcSt11char_traitsIcESaIcEEELb0EEC2IS5_EEOT_@Base 2.9.2+dfsg
 _ZNSt10_Head_baseILj0EOiLb0EE7_M_headERS1_@Base 2.9.2+dfsg
 _ZNSt10_Head_baseILj0EOiLb0EEC1IiEEOT_@Base 2.9.2+dfsg
 _ZNSt10_Head_baseILj0EOiLb0EEC2IiEEOT_@Base 2.9.2+dfsg
 _ZNSt10_Head_baseILj0ERK17FontSpecificationLb0EE7_M_headERS3_@Base 2.9.2+dfsg
 _ZNSt10_Head_baseILj0ERK17FontSpecificationLb0EEC1ES2_@Base 2.9.2+dfsg
 _ZNSt10_Head_baseILj0ERK17FontSpecificationLb0EEC2ES2_@Base 2.9.2+dfsg
 _ZNSt10_Head_baseILj0ERKNSt7__cxx1112basic_stringIcSt11char_traitsIcESaIcEEELb0EE7_M_headERS8_@Base 2.9.2+dfsg
 _ZNSt10_Head_baseILj0ERKNSt7__cxx1112basic_stringIcSt11char_traitsIcESaIcEEELb0EEC1ES7_@Base 2.9.2+dfsg
 _ZNSt10_Head_baseILj0ERKNSt7__cxx1112basic_stringIcSt11char_traitsIcESaIcEEELb0EEC2ES7_@Base 2.9.2+dfsg
 _ZNSt10_Head_baseILj0ERKiLb0EE7_M_headERS2_@Base 2.9.2+dfsg
 _ZNSt10_Head_baseILj0ERKiLb0EEC1ES1_@Base 2.9.2+dfsg
 _ZNSt10_Head_baseILj0ERKiLb0EEC2ES1_@Base 2.9.2+dfsg
 _ZNSt11_Tuple_implILj0EJO12KeyModifiersEE7_M_headERS2_@Base 2.9.2+dfsg
 _ZNSt11_Tuple_implILj0EJO12KeyModifiersEEC1EOS2_@Base 2.9.2+dfsg
 _ZNSt11_Tuple_implILj0EJO12KeyModifiersEEC1IS0_EEOT_@Base 2.9.2+dfsg
 _ZNSt11_Tuple_implILj0EJO12KeyModifiersEEC2EOS2_@Base 2.9.2+dfsg
 _ZNSt11_Tuple_implILj0EJO12KeyModifiersEEC2IS0_EEOT_@Base 2.9.2+dfsg
 _ZNSt11_Tuple_implILj0EJONSt7__cxx1112basic_stringIcSt11char_traitsIcESaIcEEEEE7_M_headERS7_@Base 2.9.2+dfsg
 _ZNSt11_Tuple_implILj0EJONSt7__cxx1112basic_stringIcSt11char_traitsIcESaIcEEEEEC1EOS7_@Base 2.9.2+dfsg
 _ZNSt11_Tuple_implILj0EJONSt7__cxx1112basic_stringIcSt11char_traitsIcESaIcEEEEEC1IS5_EEOT_@Base 2.9.2+dfsg
 _ZNSt11_Tuple_implILj0EJONSt7__cxx1112basic_stringIcSt11char_traitsIcESaIcEEEEEC2EOS7_@Base 2.9.2+dfsg
 _ZNSt11_Tuple_implILj0EJONSt7__cxx1112basic_stringIcSt11char_traitsIcESaIcEEEEEC2IS5_EEOT_@Base 2.9.2+dfsg
 _ZNSt11_Tuple_implILj0EJOiEE7_M_headERS1_@Base 2.9.2+dfsg
 _ZNSt11_Tuple_implILj0EJOiEEC1EOS1_@Base 2.9.2+dfsg
 _ZNSt11_Tuple_implILj0EJOiEEC1IiEEOT_@Base 2.9.2+dfsg
 _ZNSt11_Tuple_implILj0EJOiEEC2EOS1_@Base 2.9.2+dfsg
 _ZNSt11_Tuple_implILj0EJOiEEC2IiEEOT_@Base 2.9.2+dfsg
 _ZNSt11_Tuple_implILj0EJRK17FontSpecificationEE7_M_headERS3_@Base 2.9.2+dfsg
 _ZNSt11_Tuple_implILj0EJRK17FontSpecificationEEC1EOS3_@Base 2.9.2+dfsg
 _ZNSt11_Tuple_implILj0EJRK17FontSpecificationEEC1ES2_@Base 2.9.2+dfsg
 _ZNSt11_Tuple_implILj0EJRK17FontSpecificationEEC2EOS3_@Base 2.9.2+dfsg
 _ZNSt11_Tuple_implILj0EJRK17FontSpecificationEEC2ES2_@Base 2.9.2+dfsg
 _ZNSt11_Tuple_implILj0EJRKNSt7__cxx1112basic_stringIcSt11char_traitsIcESaIcEEEEE7_M_headERS8_@Base 2.9.2+dfsg
 _ZNSt11_Tuple_implILj0EJRKNSt7__cxx1112basic_stringIcSt11char_traitsIcESaIcEEEEEC1EOS8_@Base 2.9.2+dfsg
 _ZNSt11_Tuple_implILj0EJRKNSt7__cxx1112basic_stringIcSt11char_traitsIcESaIcEEEEEC1ES7_@Base 2.9.2+dfsg
 _ZNSt11_Tuple_implILj0EJRKNSt7__cxx1112basic_stringIcSt11char_traitsIcESaIcEEEEEC2EOS8_@Base 2.9.2+dfsg
 _ZNSt11_Tuple_implILj0EJRKNSt7__cxx1112basic_stringIcSt11char_traitsIcESaIcEEEEEC2ES7_@Base 2.9.2+dfsg
 _ZNSt11_Tuple_implILj0EJRKiEE7_M_headERS2_@Base 2.9.2+dfsg
 _ZNSt11_Tuple_implILj0EJRKiEEC1EOS2_@Base 2.9.2+dfsg
 _ZNSt11_Tuple_implILj0EJRKiEEC1ES1_@Base 2.9.2+dfsg
 _ZNSt11_Tuple_implILj0EJRKiEEC2EOS2_@Base 2.9.2+dfsg
 _ZNSt11_Tuple_implILj0EJRKiEEC2ES1_@Base 2.9.2+dfsg
 _ZNSt11__copy_moveILb0ELb0ESt26random_access_iterator_tagE8__copy_mIP14SelectionRangeS4_EET0_T_S6_S5_@Base 2.8.4
 _ZNSt11__copy_moveILb0ELb0ESt26random_access_iterator_tagE8__copy_mIPK14SelectionRangePS3_EET0_T_S8_S7_@Base 2.8.4
 _ZNSt11__copy_moveILb0ELb0ESt26random_access_iterator_tagE8__copy_mIPKN11SparseStateINSt7__cxx1112basic_stringIcSt11char_traitsIcESaIcEEEE5StateEPSB_EET0_T_SG_SF_@Base 2.9
 _ZNSt11__copy_moveILb0ELb0ESt26random_access_iterator_tagE8__copy_mIPNSt7__cxx1112basic_stringIcSt11char_traitsIcESaIcEEES9_EET0_T_SB_SA_@Base 2.9
 _ZNSt11__copy_moveILb0ELb1ESt26random_access_iterator_tagE8__copy_mIiEEPT_PKS3_S6_S4_@Base 2.8.4
 _ZNSt11__copy_moveILb1ELb0ESt26random_access_iterator_tagE8__copy_mIP14SelectionRangeS4_EET0_T_S6_S5_@Base 2.9.2+dfsg
 _ZNSt11__copy_moveILb1ELb0ESt26random_access_iterator_tagE8__copy_mIPN11SparseStateINSt7__cxx1112basic_stringIcSt11char_traitsIcESaIcEEEE5StateESC_EET0_T_SE_SD_@Base 2.9.2+dfsg
 _ZNSt11__copy_moveILb1ELb0ESt26random_access_iterator_tagE8__copy_mIPN11SparseStateIjE5StateES6_EET0_T_S8_S7_@Base 2.9.2+dfsg
 _ZNSt11__copy_moveILb1ELb0ESt26random_access_iterator_tagE8__copy_mIPN8Document19WatcherWithUserDataES5_EET0_T_S7_S6_@Base 2.9.2+dfsg
 _ZNSt11__copy_moveILb1ELb0ESt26random_access_iterator_tagE8__copy_mIPNSt7__cxx1112basic_stringIcSt11char_traitsIcESaIcEEES9_EET0_T_SB_SA_@Base 2.9.2+dfsg
 _ZNSt11__copy_moveILb1ELb1ESt26random_access_iterator_tagE8__copy_mI9DrawPhaseEEPT_PKS4_S7_S5_@Base 2.9.2+dfsg
 _ZNSt11__copy_moveILb1ELb1ESt26random_access_iterator_tagE8__copy_mIP10LineLayoutEEPT_PKS5_S8_S6_@Base 2.9.2+dfsg
 _ZNSt11__copy_moveILb1ELb1ESt26random_access_iterator_tagE8__copy_mIP11LexerModuleEEPT_PKS5_S8_S6_@Base 2.9.2+dfsg
 _ZNSt11__copy_moveILb1ELb1ESt26random_access_iterator_tagE8__copy_mIP14SelectionRangeEEPT_PKS5_S8_S6_@Base 2.9.2+dfsg
 _ZNSt11__copy_moveILb1ELb1ESt26random_access_iterator_tagE8__copy_mIPcEEPT_PKS4_S7_S5_@Base 2.9.2+dfsg
 _ZNSt11__copy_moveILb1ELb1ESt26random_access_iterator_tagE8__copy_mIiEEPT_PKS3_S6_S4_@Base 2.9.2+dfsg
 _ZNSt11char_traitsIcE7compareEPKcS2_j@Base 2.9
 _ZNSt12_Destroy_auxILb0EE9__destroyIP14WordClassifierEEvT_S4_@Base 2.8.4
 _ZNSt12_Destroy_auxILb0EE9__destroyIP18PositionCacheEntryEEvT_S4_@Base 2.8.4
 _ZNSt12_Destroy_auxILb0EE9__destroyIP5StyleEEvT_S4_@Base 2.8.4
 _ZNSt12_Destroy_auxILb0EE9__destroyIPN11SparseStateINSt7__cxx1112basic_stringIcSt11char_traitsIcESaIcEEEE5StateEEEvT_SC_@Base 2.9
 _ZNSt12_Destroy_auxILb0EE9__destroyIPNSt7__cxx1112basic_stringIcSt11char_traitsIcESaIcEEEEEvT_S9_@Base 2.9
 _ZNSt12_Destroy_auxILb1EE9__destroyIN9__gnu_cxx17__normal_iteratorIP14SelectionRangeSt6vectorIS4_SaIS4_EEEEEEvT_SA_@Base 2.8.4
 _ZNSt12_Destroy_auxILb1EE9__destroyIP13latexFoldSaveEEvT_S4_@Base 2.8.4
 _ZNSt12_Destroy_auxILb1EE9__destroyIP14SelectionRangeEEvT_S4_@Base 2.8.4
 _ZNSt12_Destroy_auxILb1EE9__destroyIP9DrawPhaseEEvT_S4_@Base 2.9
 _ZNSt12_Destroy_auxILb1EE9__destroyIPN11SparseStateIjE5StateEEEvT_S6_@Base 2.8.4
 _ZNSt12_Destroy_auxILb1EE9__destroyIPN8Document19WatcherWithUserDataEEEvT_S5_@Base 2.8.4
 _ZNSt12_Destroy_auxILb1EE9__destroyIPP10LineLayoutEEvT_S5_@Base 2.8.4
 _ZNSt12_Destroy_auxILb1EE9__destroyIPP11LexerModuleEEvT_S5_@Base 2.8.4
 _ZNSt12_Destroy_auxILb1EE9__destroyIPP14SelectionRangeEEvT_S5_@Base 2.8.4
 _ZNSt12_Destroy_auxILb1EE9__destroyIPPcEEvT_S4_@Base 2.8.4
 _ZNSt12_Destroy_auxILb1EE9__destroyIPcEEvT_S3_@Base 2.8.4
 _ZNSt12_Destroy_auxILb1EE9__destroyIPiEEvT_S3_@Base 2.8.4
 _ZNSt12_Vector_baseI13latexFoldSaveSaIS0_EE11_M_allocateEj@Base 2.9
 _ZNSt12_Vector_baseI13latexFoldSaveSaIS0_EE12_Vector_implC1Ev@Base 2.8.4
 _ZNSt12_Vector_baseI13latexFoldSaveSaIS0_EE12_Vector_implC2Ev@Base 2.8.4
 _ZNSt12_Vector_baseI13latexFoldSaveSaIS0_EE12_Vector_implD1Ev@Base 2.8.4
 _ZNSt12_Vector_baseI13latexFoldSaveSaIS0_EE12_Vector_implD2Ev@Base 2.8.4
 _ZNSt12_Vector_baseI13latexFoldSaveSaIS0_EE13_M_deallocateEPS0_j@Base 2.9
 _ZNSt12_Vector_baseI13latexFoldSaveSaIS0_EE19_M_get_Tp_allocatorEv@Base 2.8.4
 _ZNSt12_Vector_baseI13latexFoldSaveSaIS0_EEC1Ev@Base 2.8.4
 _ZNSt12_Vector_baseI13latexFoldSaveSaIS0_EEC2Ev@Base 2.8.4
 _ZNSt12_Vector_baseI13latexFoldSaveSaIS0_EED1Ev@Base 2.8.4
 _ZNSt12_Vector_baseI13latexFoldSaveSaIS0_EED2Ev@Base 2.8.4
 _ZNSt12_Vector_baseI14SelectionRangeSaIS0_EE11_M_allocateEj@Base 2.9
 _ZNSt12_Vector_baseI14SelectionRangeSaIS0_EE12_Vector_implC1ERKS1_@Base 2.8.4
 _ZNSt12_Vector_baseI14SelectionRangeSaIS0_EE12_Vector_implC1Ev@Base 2.8.4
 _ZNSt12_Vector_baseI14SelectionRangeSaIS0_EE12_Vector_implC2ERKS1_@Base 2.8.4
 _ZNSt12_Vector_baseI14SelectionRangeSaIS0_EE12_Vector_implC2Ev@Base 2.8.4
 _ZNSt12_Vector_baseI14SelectionRangeSaIS0_EE12_Vector_implD1Ev@Base 2.8.4
 _ZNSt12_Vector_baseI14SelectionRangeSaIS0_EE12_Vector_implD2Ev@Base 2.8.4
 _ZNSt12_Vector_baseI14SelectionRangeSaIS0_EE13_M_deallocateEPS0_j@Base 2.9
 _ZNSt12_Vector_baseI14SelectionRangeSaIS0_EE17_M_create_storageEj@Base 2.9
 _ZNSt12_Vector_baseI14SelectionRangeSaIS0_EE19_M_get_Tp_allocatorEv@Base 2.8.4
 _ZNSt12_Vector_baseI14SelectionRangeSaIS0_EEC1EjRKS1_@Base 2.9
 _ZNSt12_Vector_baseI14SelectionRangeSaIS0_EEC1Ev@Base 2.8.4
 _ZNSt12_Vector_baseI14SelectionRangeSaIS0_EEC2EjRKS1_@Base 2.9
 _ZNSt12_Vector_baseI14SelectionRangeSaIS0_EEC2Ev@Base 2.8.4
 _ZNSt12_Vector_baseI14SelectionRangeSaIS0_EED1Ev@Base 2.8.4
 _ZNSt12_Vector_baseI14SelectionRangeSaIS0_EED2Ev@Base 2.8.4
 _ZNSt12_Vector_baseI14WordClassifierSaIS0_EE11_M_allocateEj@Base 2.9
 _ZNSt12_Vector_baseI14WordClassifierSaIS0_EE12_Vector_implC1Ev@Base 2.8.4
 _ZNSt12_Vector_baseI14WordClassifierSaIS0_EE12_Vector_implC2Ev@Base 2.8.4
 _ZNSt12_Vector_baseI14WordClassifierSaIS0_EE12_Vector_implD1Ev@Base 2.8.4
 _ZNSt12_Vector_baseI14WordClassifierSaIS0_EE12_Vector_implD2Ev@Base 2.8.4
 _ZNSt12_Vector_baseI14WordClassifierSaIS0_EE13_M_deallocateEPS0_j@Base 2.9
 _ZNSt12_Vector_baseI14WordClassifierSaIS0_EE19_M_get_Tp_allocatorEv@Base 2.8.4
 _ZNSt12_Vector_baseI14WordClassifierSaIS0_EEC1Ev@Base 2.8.4
 _ZNSt12_Vector_baseI14WordClassifierSaIS0_EEC2Ev@Base 2.8.4
 _ZNSt12_Vector_baseI14WordClassifierSaIS0_EED1Ev@Base 2.8.4
 _ZNSt12_Vector_baseI14WordClassifierSaIS0_EED2Ev@Base 2.8.4
 _ZNSt12_Vector_baseI18PositionCacheEntrySaIS0_EE11_M_allocateEj@Base 2.9
 _ZNSt12_Vector_baseI18PositionCacheEntrySaIS0_EE12_Vector_implC1Ev@Base 2.8.4
 _ZNSt12_Vector_baseI18PositionCacheEntrySaIS0_EE12_Vector_implC2Ev@Base 2.8.4
 _ZNSt12_Vector_baseI18PositionCacheEntrySaIS0_EE12_Vector_implD1Ev@Base 2.8.4
 _ZNSt12_Vector_baseI18PositionCacheEntrySaIS0_EE12_Vector_implD2Ev@Base 2.8.4
 _ZNSt12_Vector_baseI18PositionCacheEntrySaIS0_EE13_M_deallocateEPS0_j@Base 2.9
 _ZNSt12_Vector_baseI18PositionCacheEntrySaIS0_EE19_M_get_Tp_allocatorEv@Base 2.8.4
 _ZNSt12_Vector_baseI18PositionCacheEntrySaIS0_EEC1Ev@Base 2.8.4
 _ZNSt12_Vector_baseI18PositionCacheEntrySaIS0_EEC2Ev@Base 2.8.4
 _ZNSt12_Vector_baseI18PositionCacheEntrySaIS0_EED1Ev@Base 2.8.4
 _ZNSt12_Vector_baseI18PositionCacheEntrySaIS0_EED2Ev@Base 2.8.4
 _ZNSt12_Vector_baseI5StyleSaIS0_EE11_M_allocateEj@Base 2.9
 _ZNSt12_Vector_baseI5StyleSaIS0_EE12_Vector_implC1Ev@Base 2.8.4
 _ZNSt12_Vector_baseI5StyleSaIS0_EE12_Vector_implC2Ev@Base 2.8.4
 _ZNSt12_Vector_baseI5StyleSaIS0_EE12_Vector_implD1Ev@Base 2.8.4
 _ZNSt12_Vector_baseI5StyleSaIS0_EE12_Vector_implD2Ev@Base 2.8.4
 _ZNSt12_Vector_baseI5StyleSaIS0_EE13_M_deallocateEPS0_j@Base 2.9
 _ZNSt12_Vector_baseI5StyleSaIS0_EE19_M_get_Tp_allocatorEv@Base 2.8.4
 _ZNSt12_Vector_baseI5StyleSaIS0_EEC1Ev@Base 2.8.4
 _ZNSt12_Vector_baseI5StyleSaIS0_EEC2Ev@Base 2.8.4
 _ZNSt12_Vector_baseI5StyleSaIS0_EED1Ev@Base 2.8.4
 _ZNSt12_Vector_baseI5StyleSaIS0_EED2Ev@Base 2.8.4
 _ZNSt12_Vector_baseI9DrawPhaseSaIS0_EE11_M_allocateEj@Base 2.9
 _ZNSt12_Vector_baseI9DrawPhaseSaIS0_EE12_Vector_implC1Ev@Base 2.9
 _ZNSt12_Vector_baseI9DrawPhaseSaIS0_EE12_Vector_implC2Ev@Base 2.9
 _ZNSt12_Vector_baseI9DrawPhaseSaIS0_EE12_Vector_implD1Ev@Base 2.9
 _ZNSt12_Vector_baseI9DrawPhaseSaIS0_EE12_Vector_implD2Ev@Base 2.9
 _ZNSt12_Vector_baseI9DrawPhaseSaIS0_EE13_M_deallocateEPS0_j@Base 2.9
 _ZNSt12_Vector_baseI9DrawPhaseSaIS0_EE19_M_get_Tp_allocatorEv@Base 2.9
 _ZNSt12_Vector_baseI9DrawPhaseSaIS0_EEC1Ev@Base 2.9
 _ZNSt12_Vector_baseI9DrawPhaseSaIS0_EEC2Ev@Base 2.9
 _ZNSt12_Vector_baseI9DrawPhaseSaIS0_EED1Ev@Base 2.9
 _ZNSt12_Vector_baseI9DrawPhaseSaIS0_EED2Ev@Base 2.9
 _ZNSt12_Vector_baseIN11SparseStateINSt7__cxx1112basic_stringIcSt11char_traitsIcESaIcEEEE5StateESaIS8_EE11_M_allocateEj@Base 2.9
 _ZNSt12_Vector_baseIN11SparseStateINSt7__cxx1112basic_stringIcSt11char_traitsIcESaIcEEEE5StateESaIS8_EE12_Vector_implC1Ev@Base 2.9
 _ZNSt12_Vector_baseIN11SparseStateINSt7__cxx1112basic_stringIcSt11char_traitsIcESaIcEEEE5StateESaIS8_EE12_Vector_implC2Ev@Base 2.9
 _ZNSt12_Vector_baseIN11SparseStateINSt7__cxx1112basic_stringIcSt11char_traitsIcESaIcEEEE5StateESaIS8_EE12_Vector_implD1Ev@Base 2.9
 _ZNSt12_Vector_baseIN11SparseStateINSt7__cxx1112basic_stringIcSt11char_traitsIcESaIcEEEE5StateESaIS8_EE12_Vector_implD2Ev@Base 2.9
 _ZNSt12_Vector_baseIN11SparseStateINSt7__cxx1112basic_stringIcSt11char_traitsIcESaIcEEEE5StateESaIS8_EE13_M_deallocateEPS8_j@Base 2.9
 _ZNSt12_Vector_baseIN11SparseStateINSt7__cxx1112basic_stringIcSt11char_traitsIcESaIcEEEE5StateESaIS8_EE19_M_get_Tp_allocatorEv@Base 2.9
 _ZNSt12_Vector_baseIN11SparseStateINSt7__cxx1112basic_stringIcSt11char_traitsIcESaIcEEEE5StateESaIS8_EEC1Ev@Base 2.9
 _ZNSt12_Vector_baseIN11SparseStateINSt7__cxx1112basic_stringIcSt11char_traitsIcESaIcEEEE5StateESaIS8_EEC2Ev@Base 2.9
 _ZNSt12_Vector_baseIN11SparseStateINSt7__cxx1112basic_stringIcSt11char_traitsIcESaIcEEEE5StateESaIS8_EED1Ev@Base 2.9
 _ZNSt12_Vector_baseIN11SparseStateINSt7__cxx1112basic_stringIcSt11char_traitsIcESaIcEEEE5StateESaIS8_EED2Ev@Base 2.9
 _ZNSt12_Vector_baseIN11SparseStateIjE5StateESaIS2_EE11_M_allocateEj@Base 2.9
 _ZNSt12_Vector_baseIN11SparseStateIjE5StateESaIS2_EE12_Vector_implC1Ev@Base 2.8.4
 _ZNSt12_Vector_baseIN11SparseStateIjE5StateESaIS2_EE12_Vector_implC2Ev@Base 2.8.4
 _ZNSt12_Vector_baseIN11SparseStateIjE5StateESaIS2_EE12_Vector_implD1Ev@Base 2.8.4
 _ZNSt12_Vector_baseIN11SparseStateIjE5StateESaIS2_EE12_Vector_implD2Ev@Base 2.8.4
 _ZNSt12_Vector_baseIN11SparseStateIjE5StateESaIS2_EE13_M_deallocateEPS2_j@Base 2.9
 _ZNSt12_Vector_baseIN11SparseStateIjE5StateESaIS2_EE19_M_get_Tp_allocatorEv@Base 2.8.4
 _ZNSt12_Vector_baseIN11SparseStateIjE5StateESaIS2_EEC1Ev@Base 2.8.4
 _ZNSt12_Vector_baseIN11SparseStateIjE5StateESaIS2_EEC2Ev@Base 2.8.4
 _ZNSt12_Vector_baseIN11SparseStateIjE5StateESaIS2_EED1Ev@Base 2.8.4
 _ZNSt12_Vector_baseIN11SparseStateIjE5StateESaIS2_EED2Ev@Base 2.8.4
 _ZNSt12_Vector_baseIN8Document19WatcherWithUserDataESaIS1_EE11_M_allocateEj@Base 2.9
 _ZNSt12_Vector_baseIN8Document19WatcherWithUserDataESaIS1_EE12_Vector_implC1Ev@Base 2.8.4
 _ZNSt12_Vector_baseIN8Document19WatcherWithUserDataESaIS1_EE12_Vector_implC2Ev@Base 2.8.4
 _ZNSt12_Vector_baseIN8Document19WatcherWithUserDataESaIS1_EE12_Vector_implD1Ev@Base 2.8.4
 _ZNSt12_Vector_baseIN8Document19WatcherWithUserDataESaIS1_EE12_Vector_implD2Ev@Base 2.8.4
 _ZNSt12_Vector_baseIN8Document19WatcherWithUserDataESaIS1_EE13_M_deallocateEPS1_j@Base 2.9
 _ZNSt12_Vector_baseIN8Document19WatcherWithUserDataESaIS1_EE19_M_get_Tp_allocatorEv@Base 2.8.4
 _ZNSt12_Vector_baseIN8Document19WatcherWithUserDataESaIS1_EEC1Ev@Base 2.8.4
 _ZNSt12_Vector_baseIN8Document19WatcherWithUserDataESaIS1_EEC2Ev@Base 2.8.4
 _ZNSt12_Vector_baseIN8Document19WatcherWithUserDataESaIS1_EED1Ev@Base 2.8.4
 _ZNSt12_Vector_baseIN8Document19WatcherWithUserDataESaIS1_EED2Ev@Base 2.8.4
 _ZNSt12_Vector_baseINSt7__cxx1112basic_stringIcSt11char_traitsIcESaIcEEESaIS5_EE11_M_allocateEj@Base 2.9
 _ZNSt12_Vector_baseINSt7__cxx1112basic_stringIcSt11char_traitsIcESaIcEEESaIS5_EE12_Vector_implC1ERKS6_@Base 2.9
 _ZNSt12_Vector_baseINSt7__cxx1112basic_stringIcSt11char_traitsIcESaIcEEESaIS5_EE12_Vector_implC1Ev@Base 2.9
 _ZNSt12_Vector_baseINSt7__cxx1112basic_stringIcSt11char_traitsIcESaIcEEESaIS5_EE12_Vector_implC2ERKS6_@Base 2.9
 _ZNSt12_Vector_baseINSt7__cxx1112basic_stringIcSt11char_traitsIcESaIcEEESaIS5_EE12_Vector_implC2Ev@Base 2.9
 _ZNSt12_Vector_baseINSt7__cxx1112basic_stringIcSt11char_traitsIcESaIcEEESaIS5_EE12_Vector_implD1Ev@Base 2.9
 _ZNSt12_Vector_baseINSt7__cxx1112basic_stringIcSt11char_traitsIcESaIcEEESaIS5_EE12_Vector_implD2Ev@Base 2.9
 _ZNSt12_Vector_baseINSt7__cxx1112basic_stringIcSt11char_traitsIcESaIcEEESaIS5_EE13_M_deallocateEPS5_j@Base 2.9
 _ZNSt12_Vector_baseINSt7__cxx1112basic_stringIcSt11char_traitsIcESaIcEEESaIS5_EE17_M_create_storageEj@Base 2.9
 _ZNSt12_Vector_baseINSt7__cxx1112basic_stringIcSt11char_traitsIcESaIcEEESaIS5_EE19_M_get_Tp_allocatorEv@Base 2.9
 _ZNSt12_Vector_baseINSt7__cxx1112basic_stringIcSt11char_traitsIcESaIcEEESaIS5_EEC1ERKS6_@Base 2.9
 _ZNSt12_Vector_baseINSt7__cxx1112basic_stringIcSt11char_traitsIcESaIcEEESaIS5_EEC1Ev@Base 2.9
 _ZNSt12_Vector_baseINSt7__cxx1112basic_stringIcSt11char_traitsIcESaIcEEESaIS5_EEC1EjRKS6_@Base 2.9
 _ZNSt12_Vector_baseINSt7__cxx1112basic_stringIcSt11char_traitsIcESaIcEEESaIS5_EEC2ERKS6_@Base 2.9
 _ZNSt12_Vector_baseINSt7__cxx1112basic_stringIcSt11char_traitsIcESaIcEEESaIS5_EEC2Ev@Base 2.9
 _ZNSt12_Vector_baseINSt7__cxx1112basic_stringIcSt11char_traitsIcESaIcEEESaIS5_EEC2EjRKS6_@Base 2.9
 _ZNSt12_Vector_baseINSt7__cxx1112basic_stringIcSt11char_traitsIcESaIcEEESaIS5_EED1Ev@Base 2.9
 _ZNSt12_Vector_baseINSt7__cxx1112basic_stringIcSt11char_traitsIcESaIcEEESaIS5_EED2Ev@Base 2.9
 _ZNSt12_Vector_baseIP10LineLayoutSaIS1_EE11_M_allocateEj@Base 2.9
 _ZNSt12_Vector_baseIP10LineLayoutSaIS1_EE12_Vector_implC1Ev@Base 2.8.4
 _ZNSt12_Vector_baseIP10LineLayoutSaIS1_EE12_Vector_implC2Ev@Base 2.8.4
 _ZNSt12_Vector_baseIP10LineLayoutSaIS1_EE12_Vector_implD1Ev@Base 2.8.4
 _ZNSt12_Vector_baseIP10LineLayoutSaIS1_EE12_Vector_implD2Ev@Base 2.8.4
 _ZNSt12_Vector_baseIP10LineLayoutSaIS1_EE13_M_deallocateEPS1_j@Base 2.9
 _ZNSt12_Vector_baseIP10LineLayoutSaIS1_EE19_M_get_Tp_allocatorEv@Base 2.8.4
 _ZNSt12_Vector_baseIP10LineLayoutSaIS1_EEC1Ev@Base 2.8.4
 _ZNSt12_Vector_baseIP10LineLayoutSaIS1_EEC2Ev@Base 2.8.4
 _ZNSt12_Vector_baseIP10LineLayoutSaIS1_EED1Ev@Base 2.8.4
 _ZNSt12_Vector_baseIP10LineLayoutSaIS1_EED2Ev@Base 2.8.4
 _ZNSt12_Vector_baseIP11LexerModuleSaIS1_EE11_M_allocateEj@Base 2.9
 _ZNSt12_Vector_baseIP11LexerModuleSaIS1_EE12_Vector_implC1Ev@Base 2.8.4
 _ZNSt12_Vector_baseIP11LexerModuleSaIS1_EE12_Vector_implC2Ev@Base 2.8.4
 _ZNSt12_Vector_baseIP11LexerModuleSaIS1_EE12_Vector_implD1Ev@Base 2.8.4
 _ZNSt12_Vector_baseIP11LexerModuleSaIS1_EE12_Vector_implD2Ev@Base 2.8.4
 _ZNSt12_Vector_baseIP11LexerModuleSaIS1_EE13_M_deallocateEPS1_j@Base 2.9
 _ZNSt12_Vector_baseIP11LexerModuleSaIS1_EE19_M_get_Tp_allocatorEv@Base 2.8.4
 _ZNSt12_Vector_baseIP11LexerModuleSaIS1_EEC1Ev@Base 2.8.4
 _ZNSt12_Vector_baseIP11LexerModuleSaIS1_EEC2Ev@Base 2.8.4
 _ZNSt12_Vector_baseIP11LexerModuleSaIS1_EED1Ev@Base 2.8.4
 _ZNSt12_Vector_baseIP11LexerModuleSaIS1_EED2Ev@Base 2.8.4
 _ZNSt12_Vector_baseIP14SelectionRangeSaIS1_EE11_M_allocateEj@Base 2.9
 _ZNSt12_Vector_baseIP14SelectionRangeSaIS1_EE12_Vector_implC1Ev@Base 2.8.4
 _ZNSt12_Vector_baseIP14SelectionRangeSaIS1_EE12_Vector_implC2Ev@Base 2.8.4
 _ZNSt12_Vector_baseIP14SelectionRangeSaIS1_EE12_Vector_implD1Ev@Base 2.8.4
 _ZNSt12_Vector_baseIP14SelectionRangeSaIS1_EE12_Vector_implD2Ev@Base 2.8.4
 _ZNSt12_Vector_baseIP14SelectionRangeSaIS1_EE13_M_deallocateEPS1_j@Base 2.9
 _ZNSt12_Vector_baseIP14SelectionRangeSaIS1_EE19_M_get_Tp_allocatorEv@Base 2.8.4
 _ZNSt12_Vector_baseIP14SelectionRangeSaIS1_EEC1Ev@Base 2.8.4
 _ZNSt12_Vector_baseIP14SelectionRangeSaIS1_EEC2Ev@Base 2.8.4
 _ZNSt12_Vector_baseIP14SelectionRangeSaIS1_EED1Ev@Base 2.8.4
 _ZNSt12_Vector_baseIP14SelectionRangeSaIS1_EED2Ev@Base 2.8.4
 _ZNSt12_Vector_baseIPcSaIS0_EE11_M_allocateEj@Base 2.9
 _ZNSt12_Vector_baseIPcSaIS0_EE12_Vector_implC1Ev@Base 2.8.4
 _ZNSt12_Vector_baseIPcSaIS0_EE12_Vector_implC2Ev@Base 2.8.4
 _ZNSt12_Vector_baseIPcSaIS0_EE12_Vector_implD1Ev@Base 2.8.4
 _ZNSt12_Vector_baseIPcSaIS0_EE12_Vector_implD2Ev@Base 2.8.4
 _ZNSt12_Vector_baseIPcSaIS0_EE13_M_deallocateEPS0_j@Base 2.9
 _ZNSt12_Vector_baseIPcSaIS0_EE19_M_get_Tp_allocatorEv@Base 2.8.4
 _ZNSt12_Vector_baseIPcSaIS0_EEC1Ev@Base 2.8.4
 _ZNSt12_Vector_baseIPcSaIS0_EEC2Ev@Base 2.8.4
 _ZNSt12_Vector_baseIPcSaIS0_EED1Ev@Base 2.8.4
 _ZNSt12_Vector_baseIPcSaIS0_EED2Ev@Base 2.8.4
 _ZNSt12_Vector_baseIcSaIcEE11_M_allocateEj@Base 2.9
 _ZNSt12_Vector_baseIcSaIcEE12_Vector_implC1ERKS0_@Base 2.8.4
 _ZNSt12_Vector_baseIcSaIcEE12_Vector_implC2ERKS0_@Base 2.8.4
 _ZNSt12_Vector_baseIcSaIcEE12_Vector_implD1Ev@Base 2.8.4
 _ZNSt12_Vector_baseIcSaIcEE12_Vector_implD2Ev@Base 2.8.4
 _ZNSt12_Vector_baseIcSaIcEE13_M_deallocateEPcj@Base 2.9
 _ZNSt12_Vector_baseIcSaIcEE17_M_create_storageEj@Base 2.9
 _ZNSt12_Vector_baseIcSaIcEE19_M_get_Tp_allocatorEv@Base 2.8.4
 _ZNSt12_Vector_baseIcSaIcEEC1EjRKS0_@Base 2.9
 _ZNSt12_Vector_baseIcSaIcEEC2EjRKS0_@Base 2.9
 _ZNSt12_Vector_baseIcSaIcEED1Ev@Base 2.8.4
 _ZNSt12_Vector_baseIcSaIcEED2Ev@Base 2.8.4
 _ZNSt12_Vector_baseIiSaIiEE11_M_allocateEj@Base 2.9
 _ZNSt12_Vector_baseIiSaIiEE12_Vector_implC1ERKS0_@Base 2.8.4
 _ZNSt12_Vector_baseIiSaIiEE12_Vector_implC1Ev@Base 2.8.4
 _ZNSt12_Vector_baseIiSaIiEE12_Vector_implC2ERKS0_@Base 2.8.4
 _ZNSt12_Vector_baseIiSaIiEE12_Vector_implC2Ev@Base 2.8.4
 _ZNSt12_Vector_baseIiSaIiEE12_Vector_implD1Ev@Base 2.8.4
 _ZNSt12_Vector_baseIiSaIiEE12_Vector_implD2Ev@Base 2.8.4
 _ZNSt12_Vector_baseIiSaIiEE13_M_deallocateEPij@Base 2.9
 _ZNSt12_Vector_baseIiSaIiEE17_M_create_storageEj@Base 2.9
 _ZNSt12_Vector_baseIiSaIiEE19_M_get_Tp_allocatorEv@Base 2.8.4
 _ZNSt12_Vector_baseIiSaIiEEC1EjRKS0_@Base 2.9
 _ZNSt12_Vector_baseIiSaIiEEC1Ev@Base 2.8.4
 _ZNSt12_Vector_baseIiSaIiEEC2EjRKS0_@Base 2.9
 _ZNSt12_Vector_baseIiSaIiEEC2Ev@Base 2.8.4
 _ZNSt12_Vector_baseIiSaIiEED1Ev@Base 2.8.4
 _ZNSt12_Vector_baseIiSaIiEED2Ev@Base 2.8.4
 _ZNSt13_Rb_tree_nodeISt4pairIK12KeyModifiersjEE9_M_valptrEv@Base 2.9
 _ZNSt13_Rb_tree_nodeISt4pairIK12KeyModifiersjEEC1Ev@Base 2.9.2+dfsg
 _ZNSt13_Rb_tree_nodeISt4pairIK12KeyModifiersjEEC2Ev@Base 2.9.2+dfsg
 _ZNSt13_Rb_tree_nodeISt4pairIK17FontSpecificationP12FontRealisedEE9_M_valptrEv@Base 2.8.4
 _ZNSt13_Rb_tree_nodeISt4pairIK17FontSpecificationP12FontRealisedEEC1Ev@Base 2.9.2+dfsg
 _ZNSt13_Rb_tree_nodeISt4pairIK17FontSpecificationP12FontRealisedEEC2Ev@Base 2.9.2+dfsg
 _ZNSt13_Rb_tree_nodeISt4pairIKNSt7__cxx1112basic_stringIcSt11char_traitsIcESaIcEEEN12LexerVerilog11SymbolValueEEE9_M_valptrEv@Base 2.9
 _ZNSt13_Rb_tree_nodeISt4pairIKNSt7__cxx1112basic_stringIcSt11char_traitsIcESaIcEEEN12LexerVerilog11SymbolValueEEEC1Ev@Base 2.9.2+dfsg
 _ZNSt13_Rb_tree_nodeISt4pairIKNSt7__cxx1112basic_stringIcSt11char_traitsIcESaIcEEEN12LexerVerilog11SymbolValueEEEC2Ev@Base 2.9.2+dfsg
 _ZNSt13_Rb_tree_nodeISt4pairIKNSt7__cxx1112basic_stringIcSt11char_traitsIcESaIcEEEN8LexerCPP11SymbolValueEEE9_M_valptrEv@Base 2.9
 _ZNSt13_Rb_tree_nodeISt4pairIKNSt7__cxx1112basic_stringIcSt11char_traitsIcESaIcEEEN8LexerCPP11SymbolValueEEEC1Ev@Base 2.9.2+dfsg
 _ZNSt13_Rb_tree_nodeISt4pairIKNSt7__cxx1112basic_stringIcSt11char_traitsIcESaIcEEEN8LexerCPP11SymbolValueEEEC2Ev@Base 2.9.2+dfsg
 _ZNSt13_Rb_tree_nodeISt4pairIKNSt7__cxx1112basic_stringIcSt11char_traitsIcESaIcEEEN9OptionSetI10OptionsAsmE6OptionEEE9_M_valptrEv@Base 2.9
 _ZNSt13_Rb_tree_nodeISt4pairIKNSt7__cxx1112basic_stringIcSt11char_traitsIcESaIcEEEN9OptionSetI10OptionsAsmE6OptionEEEC1Ev@Base 2.9.2+dfsg
 _ZNSt13_Rb_tree_nodeISt4pairIKNSt7__cxx1112basic_stringIcSt11char_traitsIcESaIcEEEN9OptionSetI10OptionsAsmE6OptionEEEC2Ev@Base 2.9.2+dfsg
 _ZNSt13_Rb_tree_nodeISt4pairIKNSt7__cxx1112basic_stringIcSt11char_traitsIcESaIcEEEN9OptionSetI10OptionsSQLE6OptionEEE9_M_valptrEv@Base 2.9
 _ZNSt13_Rb_tree_nodeISt4pairIKNSt7__cxx1112basic_stringIcSt11char_traitsIcESaIcEEEN9OptionSetI10OptionsSQLE6OptionEEEC1Ev@Base 2.9.2+dfsg
 _ZNSt13_Rb_tree_nodeISt4pairIKNSt7__cxx1112basic_stringIcSt11char_traitsIcESaIcEEEN9OptionSetI10OptionsSQLE6OptionEEEC2Ev@Base 2.9.2+dfsg
 _ZNSt13_Rb_tree_nodeISt4pairIKNSt7__cxx1112basic_stringIcSt11char_traitsIcESaIcEEEN9OptionSetI11OptionsPerlE6OptionEEE9_M_valptrEv@Base 2.9
 _ZNSt13_Rb_tree_nodeISt4pairIKNSt7__cxx1112basic_stringIcSt11char_traitsIcESaIcEEEN9OptionSetI11OptionsPerlE6OptionEEEC1Ev@Base 2.9.2+dfsg
 _ZNSt13_Rb_tree_nodeISt4pairIKNSt7__cxx1112basic_stringIcSt11char_traitsIcESaIcEEEN9OptionSetI11OptionsPerlE6OptionEEEC2Ev@Base 2.9.2+dfsg
 _ZNSt13_Rb_tree_nodeISt4pairIKNSt7__cxx1112basic_stringIcSt11char_traitsIcESaIcEEEN9OptionSetI11OptionsRustE6OptionEEE9_M_valptrEv@Base 2.9
 _ZNSt13_Rb_tree_nodeISt4pairIKNSt7__cxx1112basic_stringIcSt11char_traitsIcESaIcEEEN9OptionSetI11OptionsRustE6OptionEEEC1Ev@Base 2.9.2+dfsg
 _ZNSt13_Rb_tree_nodeISt4pairIKNSt7__cxx1112basic_stringIcSt11char_traitsIcESaIcEEEN9OptionSetI11OptionsRustE6OptionEEEC2Ev@Base 2.9.2+dfsg
 _ZNSt13_Rb_tree_nodeISt4pairIKNSt7__cxx1112basic_stringIcSt11char_traitsIcESaIcEEEN9OptionSetI12OptionsBasicE6OptionEEE9_M_valptrEv@Base 2.9
 _ZNSt13_Rb_tree_nodeISt4pairIKNSt7__cxx1112basic_stringIcSt11char_traitsIcESaIcEEEN9OptionSetI12OptionsBasicE6OptionEEEC1Ev@Base 2.9.2+dfsg
 _ZNSt13_Rb_tree_nodeISt4pairIKNSt7__cxx1112basic_stringIcSt11char_traitsIcESaIcEEEN9OptionSetI12OptionsBasicE6OptionEEEC2Ev@Base 2.9.2+dfsg
 _ZNSt13_Rb_tree_nodeISt4pairIKNSt7__cxx1112basic_stringIcSt11char_traitsIcESaIcEEEN9OptionSetI14OptionsHaskellE6OptionEEE9_M_valptrEv@Base 2.9
 _ZNSt13_Rb_tree_nodeISt4pairIKNSt7__cxx1112basic_stringIcSt11char_traitsIcESaIcEEEN9OptionSetI14OptionsHaskellE6OptionEEEC1Ev@Base 2.9.2+dfsg
 _ZNSt13_Rb_tree_nodeISt4pairIKNSt7__cxx1112basic_stringIcSt11char_traitsIcESaIcEEEN9OptionSetI14OptionsHaskellE6OptionEEEC2Ev@Base 2.9.2+dfsg
 _ZNSt13_Rb_tree_nodeISt4pairIKNSt7__cxx1112basic_stringIcSt11char_traitsIcESaIcEEEN9OptionSetI15OptionsRegistryE6OptionEEE9_M_valptrEv@Base 2.9
 _ZNSt13_Rb_tree_nodeISt4pairIKNSt7__cxx1112basic_stringIcSt11char_traitsIcESaIcEEEN9OptionSetI15OptionsRegistryE6OptionEEEC1Ev@Base 2.9.2+dfsg
 _ZNSt13_Rb_tree_nodeISt4pairIKNSt7__cxx1112basic_stringIcSt11char_traitsIcESaIcEEEN9OptionSetI15OptionsRegistryE6OptionEEEC2Ev@Base 2.9.2+dfsg
 _ZNSt13_Rb_tree_nodeISt4pairIKNSt7__cxx1112basic_stringIcSt11char_traitsIcESaIcEEEN9OptionSetI19OptionsVisualPrologE6OptionEEE9_M_valptrEv@Base 2.9
 _ZNSt13_Rb_tree_nodeISt4pairIKNSt7__cxx1112basic_stringIcSt11char_traitsIcESaIcEEEN9OptionSetI8OptionsDE6OptionEEE9_M_valptrEv@Base 2.9
 _ZNSt13_Rb_tree_nodeISt4pairIKNSt7__cxx1112basic_stringIcSt11char_traitsIcESaIcEEEN9OptionSetI8OptionsDE6OptionEEEC1Ev@Base 2.9.2+dfsg
 _ZNSt13_Rb_tree_nodeISt4pairIKNSt7__cxx1112basic_stringIcSt11char_traitsIcESaIcEEEN9OptionSetI8OptionsDE6OptionEEEC2Ev@Base 2.9.2+dfsg
 _ZNSt13_Rb_tree_nodeISt4pairIKNSt7__cxx1112basic_stringIcSt11char_traitsIcESaIcEEES6_EE9_M_valptrEv@Base 2.9
 _ZNSt13_Rb_tree_nodeISt4pairIKNSt7__cxx1112basic_stringIcSt11char_traitsIcESaIcEEES6_EEC1Ev@Base 2.9.2+dfsg
 _ZNSt13_Rb_tree_nodeISt4pairIKNSt7__cxx1112basic_stringIcSt11char_traitsIcESaIcEEES6_EEC2Ev@Base 2.9.2+dfsg
 _ZNSt13_Rb_tree_nodeISt4pairIKNSt7__cxx1112basic_stringIcSt11char_traitsIcESaIcEEEiEE9_M_valptrEv@Base 2.9
 _ZNSt13_Rb_tree_nodeISt4pairIKNSt7__cxx1112basic_stringIcSt11char_traitsIcESaIcEEEiEEC1Ev@Base 2.9.2+dfsg
 _ZNSt13_Rb_tree_nodeISt4pairIKNSt7__cxx1112basic_stringIcSt11char_traitsIcESaIcEEEiEEC2Ev@Base 2.9.2+dfsg
 _ZNSt13_Rb_tree_nodeISt4pairIKi14RepresentationEE9_M_valptrEv@Base 2.8.4
 _ZNSt13_Rb_tree_nodeISt4pairIKi14RepresentationEEC1Ev@Base 2.9.2+dfsg
 _ZNSt13_Rb_tree_nodeISt4pairIKi14RepresentationEEC2Ev@Base 2.9.2+dfsg
 _ZNSt13_Rb_tree_nodeISt4pairIKiiEE9_M_valptrEv@Base 2.9
 _ZNSt13_Rb_tree_nodeISt4pairIKiiEEC1Ev@Base 2.9.2+dfsg
 _ZNSt13_Rb_tree_nodeISt4pairIKiiEEC2Ev@Base 2.9.2+dfsg
 _ZNSt13__atomic_baseIiEmmEv@Base 2.9.2+dfsg
 _ZNSt13__atomic_baseIiEppEv@Base 2.9.2+dfsg
 _ZNSt13move_iteratorIP14SelectionRangeEC1ES1_@Base 2.9.2+dfsg
 _ZNSt13move_iteratorIP14SelectionRangeEC2ES1_@Base 2.9.2+dfsg
 _ZNSt13move_iteratorIP14SelectionRangeEppEv@Base 2.9.2+dfsg
 _ZNSt13move_iteratorIP14WordClassifierEC1ES1_@Base 2.9.2+dfsg
 _ZNSt13move_iteratorIP14WordClassifierEC2ES1_@Base 2.9.2+dfsg
 _ZNSt13move_iteratorIP14WordClassifierEppEv@Base 2.9.2+dfsg
 _ZNSt13move_iteratorIP18PositionCacheEntryEC1ES1_@Base 2.9.2+dfsg
 _ZNSt13move_iteratorIP18PositionCacheEntryEC2ES1_@Base 2.9.2+dfsg
 _ZNSt13move_iteratorIP18PositionCacheEntryEppEv@Base 2.9.2+dfsg
 _ZNSt13move_iteratorIP9DrawPhaseEC1ES1_@Base 2.9.2+dfsg
 _ZNSt13move_iteratorIP9DrawPhaseEC2ES1_@Base 2.9.2+dfsg
 _ZNSt13move_iteratorIPN11SparseStateINSt7__cxx1112basic_stringIcSt11char_traitsIcESaIcEEEE5StateEEC1ES9_@Base 2.9.2+dfsg
 _ZNSt13move_iteratorIPN11SparseStateINSt7__cxx1112basic_stringIcSt11char_traitsIcESaIcEEEE5StateEEC2ES9_@Base 2.9.2+dfsg
 _ZNSt13move_iteratorIPN11SparseStateINSt7__cxx1112basic_stringIcSt11char_traitsIcESaIcEEEE5StateEEppEv@Base 2.9.2+dfsg
 _ZNSt13move_iteratorIPN11SparseStateIjE5StateEEC1ES3_@Base 2.9.2+dfsg
 _ZNSt13move_iteratorIPN11SparseStateIjE5StateEEC2ES3_@Base 2.9.2+dfsg
 _ZNSt13move_iteratorIPN11SparseStateIjE5StateEEppEv@Base 2.9.2+dfsg
 _ZNSt13move_iteratorIPN8Document19WatcherWithUserDataEEC1ES2_@Base 2.9.2+dfsg
 _ZNSt13move_iteratorIPN8Document19WatcherWithUserDataEEC2ES2_@Base 2.9.2+dfsg
 _ZNSt13move_iteratorIPN8Document19WatcherWithUserDataEEppEv@Base 2.9.2+dfsg
 _ZNSt13move_iteratorIPNSt7__cxx1112basic_stringIcSt11char_traitsIcESaIcEEEEC1ES6_@Base 2.9.2+dfsg
 _ZNSt13move_iteratorIPNSt7__cxx1112basic_stringIcSt11char_traitsIcESaIcEEEEC2ES6_@Base 2.9.2+dfsg
 _ZNSt13move_iteratorIPNSt7__cxx1112basic_stringIcSt11char_traitsIcESaIcEEEEppEv@Base 2.9.2+dfsg
 _ZNSt13move_iteratorIPP10LineLayoutEC1ES2_@Base 2.9.2+dfsg
 _ZNSt13move_iteratorIPP10LineLayoutEC2ES2_@Base 2.9.2+dfsg
 _ZNSt13move_iteratorIPP11LexerModuleEC1ES2_@Base 2.9.2+dfsg
 _ZNSt13move_iteratorIPP11LexerModuleEC2ES2_@Base 2.9.2+dfsg
 _ZNSt13move_iteratorIPP14SelectionRangeEC1ES2_@Base 2.9.2+dfsg
 _ZNSt13move_iteratorIPP14SelectionRangeEC2ES2_@Base 2.9.2+dfsg
 _ZNSt13move_iteratorIPPcEC1ES1_@Base 2.9.2+dfsg
 _ZNSt13move_iteratorIPPcEC2ES1_@Base 2.9.2+dfsg
 _ZNSt13move_iteratorIPiEC1ES0_@Base 2.9.2+dfsg
 _ZNSt13move_iteratorIPiEC2ES0_@Base 2.9.2+dfsg
 _ZNSt16allocator_traitsISaI13latexFoldSaveEE10deallocateERS1_PS0_j@Base 2.9.2+dfsg
 _ZNSt16allocator_traitsISaI13latexFoldSaveEE8allocateERS1_j@Base 2.9.2+dfsg
 _ZNSt16allocator_traitsISaI13latexFoldSaveEE8max_sizeERKS1_@Base 2.9.2+dfsg
 _ZNSt16allocator_traitsISaI14SelectionRangeEE10deallocateERS1_PS0_j@Base 2.9.2+dfsg
 _ZNSt16allocator_traitsISaI14SelectionRangeEE37select_on_container_copy_constructionERKS1_@Base 2.9.2+dfsg
 _ZNSt16allocator_traitsISaI14SelectionRangeEE7destroyIS0_EEvRS1_PT_@Base 2.9.2+dfsg
 _ZNSt16allocator_traitsISaI14SelectionRangeEE8allocateERS1_j@Base 2.9.2+dfsg
 _ZNSt16allocator_traitsISaI14SelectionRangeEE8max_sizeERKS1_@Base 2.9.2+dfsg
 _ZNSt16allocator_traitsISaI14SelectionRangeEE9constructIS0_JRKS0_EEEvRS1_PT_DpOT0_@Base 2.9.2+dfsg
 _ZNSt16allocator_traitsISaI14SelectionRangeEE9constructIS0_JS0_EEEvRS1_PT_DpOT0_@Base 2.9.2+dfsg
 _ZNSt16allocator_traitsISaI14WordClassifierEE10deallocateERS1_PS0_j@Base 2.9.2+dfsg
 _ZNSt16allocator_traitsISaI14WordClassifierEE7destroyIS0_EEvRS1_PT_@Base 2.9.2+dfsg
 _ZNSt16allocator_traitsISaI14WordClassifierEE8allocateERS1_j@Base 2.9.2+dfsg
 _ZNSt16allocator_traitsISaI14WordClassifierEE8max_sizeERKS1_@Base 2.9.2+dfsg
 _ZNSt16allocator_traitsISaI14WordClassifierEE9constructIS0_JS0_EEEvRS1_PT_DpOT0_@Base 2.9.2+dfsg
 _ZNSt16allocator_traitsISaI18PositionCacheEntryEE10deallocateERS1_PS0_j@Base 2.9.2+dfsg
 _ZNSt16allocator_traitsISaI18PositionCacheEntryEE8allocateERS1_j@Base 2.9.2+dfsg
 _ZNSt16allocator_traitsISaI18PositionCacheEntryEE8max_sizeERKS1_@Base 2.9.2+dfsg
 _ZNSt16allocator_traitsISaI5StyleEE10deallocateERS1_PS0_j@Base 2.9.2+dfsg
 _ZNSt16allocator_traitsISaI5StyleEE8allocateERS1_j@Base 2.9.2+dfsg
 _ZNSt16allocator_traitsISaI5StyleEE8max_sizeERKS1_@Base 2.9.2+dfsg
 _ZNSt16allocator_traitsISaI9DrawPhaseEE10deallocateERS1_PS0_j@Base 2.9.2+dfsg
 _ZNSt16allocator_traitsISaI9DrawPhaseEE7destroyIS0_EEvRS1_PT_@Base 2.9.2+dfsg
 _ZNSt16allocator_traitsISaI9DrawPhaseEE8allocateERS1_j@Base 2.9.2+dfsg
 _ZNSt16allocator_traitsISaI9DrawPhaseEE8max_sizeERKS1_@Base 2.9.2+dfsg
 _ZNSt16allocator_traitsISaI9DrawPhaseEE9constructIS0_JRKS0_EEEvRS1_PT_DpOT0_@Base 2.9.2+dfsg
 _ZNSt16allocator_traitsISaI9DrawPhaseEE9constructIS0_JS0_EEEvRS1_PT_DpOT0_@Base 2.9.2+dfsg
 _ZNSt16allocator_traitsISaIN11SparseStateINSt7__cxx1112basic_stringIcSt11char_traitsIcESaIcEEEE5StateEEE10deallocateERS9_PS8_j@Base 2.9.2+dfsg
 _ZNSt16allocator_traitsISaIN11SparseStateINSt7__cxx1112basic_stringIcSt11char_traitsIcESaIcEEEE5StateEEE7destroyIS8_EEvRS9_PT_@Base 2.9.2+dfsg
 _ZNSt16allocator_traitsISaIN11SparseStateINSt7__cxx1112basic_stringIcSt11char_traitsIcESaIcEEEE5StateEEE8allocateERS9_j@Base 2.9.2+dfsg
 _ZNSt16allocator_traitsISaIN11SparseStateINSt7__cxx1112basic_stringIcSt11char_traitsIcESaIcEEEE5StateEEE8max_sizeERKS9_@Base 2.9.2+dfsg
 _ZNSt16allocator_traitsISaIN11SparseStateINSt7__cxx1112basic_stringIcSt11char_traitsIcESaIcEEEE5StateEEE9constructIS8_JS8_EEEvRS9_PT_DpOT0_@Base 2.9.2+dfsg
 _ZNSt16allocator_traitsISaIN11SparseStateIjE5StateEEE10deallocateERS3_PS2_j@Base 2.9.2+dfsg
 _ZNSt16allocator_traitsISaIN11SparseStateIjE5StateEEE7destroyIS2_EEvRS3_PT_@Base 2.9.2+dfsg
 _ZNSt16allocator_traitsISaIN11SparseStateIjE5StateEEE8allocateERS3_j@Base 2.9.2+dfsg
 _ZNSt16allocator_traitsISaIN11SparseStateIjE5StateEEE8max_sizeERKS3_@Base 2.9.2+dfsg
 _ZNSt16allocator_traitsISaIN11SparseStateIjE5StateEEE9constructIS2_JS2_EEEvRS3_PT_DpOT0_@Base 2.9.2+dfsg
 _ZNSt16allocator_traitsISaIN8Document19WatcherWithUserDataEEE10deallocateERS2_PS1_j@Base 2.9.2+dfsg
 _ZNSt16allocator_traitsISaIN8Document19WatcherWithUserDataEEE7destroyIS1_EEvRS2_PT_@Base 2.9.2+dfsg
 _ZNSt16allocator_traitsISaIN8Document19WatcherWithUserDataEEE8allocateERS2_j@Base 2.9.2+dfsg
 _ZNSt16allocator_traitsISaIN8Document19WatcherWithUserDataEEE8max_sizeERKS2_@Base 2.9.2+dfsg
 _ZNSt16allocator_traitsISaIN8Document19WatcherWithUserDataEEE9constructIS1_JRKS1_EEEvRS2_PT_DpOT0_@Base 2.9.2+dfsg
 _ZNSt16allocator_traitsISaINSt7__cxx1112basic_stringIcSt11char_traitsIcESaIcEEEEE10deallocateERS6_PS5_j@Base 2.9.2+dfsg
 _ZNSt16allocator_traitsISaINSt7__cxx1112basic_stringIcSt11char_traitsIcESaIcEEEEE7destroyIS5_EEvRS6_PT_@Base 2.9.2+dfsg
 _ZNSt16allocator_traitsISaINSt7__cxx1112basic_stringIcSt11char_traitsIcESaIcEEEEE8allocateERS6_j@Base 2.9.2+dfsg
 _ZNSt16allocator_traitsISaINSt7__cxx1112basic_stringIcSt11char_traitsIcESaIcEEEEE8max_sizeERKS6_@Base 2.9.2+dfsg
 _ZNSt16allocator_traitsISaINSt7__cxx1112basic_stringIcSt11char_traitsIcESaIcEEEEE9constructIS5_JRKS5_EEEvRS6_PT_DpOT0_@Base 2.9.2+dfsg
 _ZNSt16allocator_traitsISaINSt7__cxx1112basic_stringIcSt11char_traitsIcESaIcEEEEE9constructIS5_JS5_EEEvRS6_PT_DpOT0_@Base 2.9.2+dfsg
 _ZNSt16allocator_traitsISaIP10LineLayoutEE10deallocateERS2_PS1_j@Base 2.9.2+dfsg
 _ZNSt16allocator_traitsISaIP10LineLayoutEE8allocateERS2_j@Base 2.9.2+dfsg
 _ZNSt16allocator_traitsISaIP10LineLayoutEE8max_sizeERKS2_@Base 2.9.2+dfsg
 _ZNSt16allocator_traitsISaIP11LexerModuleEE10deallocateERS2_PS1_j@Base 2.9.2+dfsg
 _ZNSt16allocator_traitsISaIP11LexerModuleEE7destroyIS1_EEvRS2_PT_@Base 2.9.2+dfsg
 _ZNSt16allocator_traitsISaIP11LexerModuleEE8allocateERS2_j@Base 2.9.2+dfsg
 _ZNSt16allocator_traitsISaIP11LexerModuleEE8max_sizeERKS2_@Base 2.9.2+dfsg
 _ZNSt16allocator_traitsISaIP11LexerModuleEE9constructIS1_JRKS1_EEEvRS2_PT_DpOT0_@Base 2.9.2+dfsg
 _ZNSt16allocator_traitsISaIP14SelectionRangeEE10deallocateERS2_PS1_j@Base 2.9.2+dfsg
 _ZNSt16allocator_traitsISaIP14SelectionRangeEE7destroyIS1_EEvRS2_PT_@Base 2.9.2+dfsg
 _ZNSt16allocator_traitsISaIP14SelectionRangeEE8allocateERS2_j@Base 2.9.2+dfsg
 _ZNSt16allocator_traitsISaIP14SelectionRangeEE8max_sizeERKS2_@Base 2.9.2+dfsg
 _ZNSt16allocator_traitsISaIP14SelectionRangeEE9constructIS1_JS1_EEEvRS2_PT_DpOT0_@Base 2.9.2+dfsg
 _ZNSt16allocator_traitsISaIPcEE10deallocateERS1_PS0_j@Base 2.9.2+dfsg
 _ZNSt16allocator_traitsISaIPcEE7destroyIS0_EEvRS1_PT_@Base 2.9.2+dfsg
 _ZNSt16allocator_traitsISaIPcEE8allocateERS1_j@Base 2.9.2+dfsg
 _ZNSt16allocator_traitsISaIPcEE8max_sizeERKS1_@Base 2.9.2+dfsg
 _ZNSt16allocator_traitsISaIPcEE9constructIS0_JRKS0_EEEvRS1_PT_DpOT0_@Base 2.9.2+dfsg
 _ZNSt16allocator_traitsISaISt13_Rb_tree_nodeISt4pairIK12KeyModifiersjEEEE10deallocateERS6_PS5_j@Base 2.9.2+dfsg
 _ZNSt16allocator_traitsISaISt13_Rb_tree_nodeISt4pairIK12KeyModifiersjEEEE7destroyIS4_EEvRS6_PT_@Base 2.9.2+dfsg
 _ZNSt16allocator_traitsISaISt13_Rb_tree_nodeISt4pairIK12KeyModifiersjEEEE8allocateERS6_j@Base 2.9.2+dfsg
 _ZNSt16allocator_traitsISaISt13_Rb_tree_nodeISt4pairIK12KeyModifiersjEEEE9constructIS4_JRKSt21piecewise_construct_tSt5tupleIJOS2_EESC_IJEEEEEvRS6_PT_DpOT0_@Base 2.9.2+dfsg
 _ZNSt16allocator_traitsISaISt13_Rb_tree_nodeISt4pairIK17FontSpecificationP12FontRealisedEEEE10deallocateERS8_PS7_j@Base 2.9.2+dfsg
 _ZNSt16allocator_traitsISaISt13_Rb_tree_nodeISt4pairIK17FontSpecificationP12FontRealisedEEEE7destroyIS6_EEvRS8_PT_@Base 2.9.2+dfsg
 _ZNSt16allocator_traitsISaISt13_Rb_tree_nodeISt4pairIK17FontSpecificationP12FontRealisedEEEE8allocateERS8_j@Base 2.9.2+dfsg
 _ZNSt16allocator_traitsISaISt13_Rb_tree_nodeISt4pairIK17FontSpecificationP12FontRealisedEEEE9constructIS6_JRKSt21piecewise_construct_tSt5tupleIJRS3_EESE_IJEEEEEvRS8_PT_DpOT0_@Base 2.9.2+dfsg
 _ZNSt16allocator_traitsISaISt13_Rb_tree_nodeISt4pairIKNSt7__cxx1112basic_stringIcSt11char_traitsIcESaIcEEEN12LexerVerilog11SymbolValueEEEEE10deallocateERSD_PSC_j@Base 2.9.2+dfsg
 _ZNSt16allocator_traitsISaISt13_Rb_tree_nodeISt4pairIKNSt7__cxx1112basic_stringIcSt11char_traitsIcESaIcEEEN12LexerVerilog11SymbolValueEEEEE37select_on_container_copy_constructionERKSD_@Base 2.9.2+dfsg
 _ZNSt16allocator_traitsISaISt13_Rb_tree_nodeISt4pairIKNSt7__cxx1112basic_stringIcSt11char_traitsIcESaIcEEEN12LexerVerilog11SymbolValueEEEEE7destroyISB_EEvRSD_PT_@Base 2.9.2+dfsg
 _ZNSt16allocator_traitsISaISt13_Rb_tree_nodeISt4pairIKNSt7__cxx1112basic_stringIcSt11char_traitsIcESaIcEEEN12LexerVerilog11SymbolValueEEEEE8allocateERSD_j@Base 2.9.2+dfsg
 _ZNSt16allocator_traitsISaISt13_Rb_tree_nodeISt4pairIKNSt7__cxx1112basic_stringIcSt11char_traitsIcESaIcEEEN12LexerVerilog11SymbolValueEEEEE9constructISB_JRKSB_EEEvRSD_PT_DpOT0_@Base 2.9.2+dfsg
 _ZNSt16allocator_traitsISaISt13_Rb_tree_nodeISt4pairIKNSt7__cxx1112basic_stringIcSt11char_traitsIcESaIcEEEN12LexerVerilog11SymbolValueEEEEE9constructISB_JRKSt21piecewise_construct_tSt5tupleIJRS8_EESJ_IJEEEEEvRSD_PT_DpOT0_@Base 2.9.2+dfsg
 _ZNSt16allocator_traitsISaISt13_Rb_tree_nodeISt4pairIKNSt7__cxx1112basic_stringIcSt11char_traitsIcESaIcEEEN8LexerCPP11SymbolValueEEEEE10deallocateERSD_PSC_j@Base 2.9.2+dfsg
 _ZNSt16allocator_traitsISaISt13_Rb_tree_nodeISt4pairIKNSt7__cxx1112basic_stringIcSt11char_traitsIcESaIcEEEN8LexerCPP11SymbolValueEEEEE37select_on_container_copy_constructionERKSD_@Base 2.9.2+dfsg
 _ZNSt16allocator_traitsISaISt13_Rb_tree_nodeISt4pairIKNSt7__cxx1112basic_stringIcSt11char_traitsIcESaIcEEEN8LexerCPP11SymbolValueEEEEE7destroyISB_EEvRSD_PT_@Base 2.9.2+dfsg
 _ZNSt16allocator_traitsISaISt13_Rb_tree_nodeISt4pairIKNSt7__cxx1112basic_stringIcSt11char_traitsIcESaIcEEEN8LexerCPP11SymbolValueEEEEE8allocateERSD_j@Base 2.9.2+dfsg
 _ZNSt16allocator_traitsISaISt13_Rb_tree_nodeISt4pairIKNSt7__cxx1112basic_stringIcSt11char_traitsIcESaIcEEEN8LexerCPP11SymbolValueEEEEE9constructISB_JRKSB_EEEvRSD_PT_DpOT0_@Base 2.9.2+dfsg
 _ZNSt16allocator_traitsISaISt13_Rb_tree_nodeISt4pairIKNSt7__cxx1112basic_stringIcSt11char_traitsIcESaIcEEEN8LexerCPP11SymbolValueEEEEE9constructISB_JRKSt21piecewise_construct_tSt5tupleIJRS8_EESJ_IJEEEEEvRSD_PT_DpOT0_@Base 2.9.2+dfsg
 _ZNSt16allocator_traitsISaISt13_Rb_tree_nodeISt4pairIKNSt7__cxx1112basic_stringIcSt11char_traitsIcESaIcEEEN9OptionSetI10OptionsAsmE6OptionEEEEE10deallocateERSF_PSE_j@Base 2.9.2+dfsg
 _ZNSt16allocator_traitsISaISt13_Rb_tree_nodeISt4pairIKNSt7__cxx1112basic_stringIcSt11char_traitsIcESaIcEEEN9OptionSetI10OptionsAsmE6OptionEEEEE7destroyISD_EEvRSF_PT_@Base 2.9.2+dfsg
 _ZNSt16allocator_traitsISaISt13_Rb_tree_nodeISt4pairIKNSt7__cxx1112basic_stringIcSt11char_traitsIcESaIcEEEN9OptionSetI10OptionsAsmE6OptionEEEEE8allocateERSF_j@Base 2.9.2+dfsg
 _ZNSt16allocator_traitsISaISt13_Rb_tree_nodeISt4pairIKNSt7__cxx1112basic_stringIcSt11char_traitsIcESaIcEEEN9OptionSetI10OptionsAsmE6OptionEEEEE9constructISD_JRKSt21piecewise_construct_tSt5tupleIJOS7_EESL_IJEEEEEvRSF_PT_DpOT0_@Base 2.9.2+dfsg
 _ZNSt16allocator_traitsISaISt13_Rb_tree_nodeISt4pairIKNSt7__cxx1112basic_stringIcSt11char_traitsIcESaIcEEEN9OptionSetI10OptionsSQLE6OptionEEEEE10deallocateERSF_PSE_j@Base 2.9.2+dfsg
 _ZNSt16allocator_traitsISaISt13_Rb_tree_nodeISt4pairIKNSt7__cxx1112basic_stringIcSt11char_traitsIcESaIcEEEN9OptionSetI10OptionsSQLE6OptionEEEEE7destroyISD_EEvRSF_PT_@Base 2.9.2+dfsg
 _ZNSt16allocator_traitsISaISt13_Rb_tree_nodeISt4pairIKNSt7__cxx1112basic_stringIcSt11char_traitsIcESaIcEEEN9OptionSetI10OptionsSQLE6OptionEEEEE8allocateERSF_j@Base 2.9.2+dfsg
 _ZNSt16allocator_traitsISaISt13_Rb_tree_nodeISt4pairIKNSt7__cxx1112basic_stringIcSt11char_traitsIcESaIcEEEN9OptionSetI10OptionsSQLE6OptionEEEEE9constructISD_JRKSt21piecewise_construct_tSt5tupleIJOS7_EESL_IJEEEEEvRSF_PT_DpOT0_@Base 2.9.2+dfsg
 _ZNSt16allocator_traitsISaISt13_Rb_tree_nodeISt4pairIKNSt7__cxx1112basic_stringIcSt11char_traitsIcESaIcEEEN9OptionSetI11OptionsPerlE6OptionEEEEE10deallocateERSF_PSE_j@Base 2.9.2+dfsg
 _ZNSt16allocator_traitsISaISt13_Rb_tree_nodeISt4pairIKNSt7__cxx1112basic_stringIcSt11char_traitsIcESaIcEEEN9OptionSetI11OptionsPerlE6OptionEEEEE7destroyISD_EEvRSF_PT_@Base 2.9.2+dfsg
 _ZNSt16allocator_traitsISaISt13_Rb_tree_nodeISt4pairIKNSt7__cxx1112basic_stringIcSt11char_traitsIcESaIcEEEN9OptionSetI11OptionsPerlE6OptionEEEEE8allocateERSF_j@Base 2.9.2+dfsg
 _ZNSt16allocator_traitsISaISt13_Rb_tree_nodeISt4pairIKNSt7__cxx1112basic_stringIcSt11char_traitsIcESaIcEEEN9OptionSetI11OptionsPerlE6OptionEEEEE9constructISD_JRKSt21piecewise_construct_tSt5tupleIJOS7_EESL_IJEEEEEvRSF_PT_DpOT0_@Base 2.9.2+dfsg
 _ZNSt16allocator_traitsISaISt13_Rb_tree_nodeISt4pairIKNSt7__cxx1112basic_stringIcSt11char_traitsIcESaIcEEEN9OptionSetI11OptionsRustE6OptionEEEEE10deallocateERSF_PSE_j@Base 2.9.2+dfsg
 _ZNSt16allocator_traitsISaISt13_Rb_tree_nodeISt4pairIKNSt7__cxx1112basic_stringIcSt11char_traitsIcESaIcEEEN9OptionSetI11OptionsRustE6OptionEEEEE7destroyISD_EEvRSF_PT_@Base 2.9.2+dfsg
 _ZNSt16allocator_traitsISaISt13_Rb_tree_nodeISt4pairIKNSt7__cxx1112basic_stringIcSt11char_traitsIcESaIcEEEN9OptionSetI11OptionsRustE6OptionEEEEE8allocateERSF_j@Base 2.9.2+dfsg
 _ZNSt16allocator_traitsISaISt13_Rb_tree_nodeISt4pairIKNSt7__cxx1112basic_stringIcSt11char_traitsIcESaIcEEEN9OptionSetI11OptionsRustE6OptionEEEEE9constructISD_JRKSt21piecewise_construct_tSt5tupleIJOS7_EESL_IJEEEEEvRSF_PT_DpOT0_@Base 2.9.2+dfsg
 _ZNSt16allocator_traitsISaISt13_Rb_tree_nodeISt4pairIKNSt7__cxx1112basic_stringIcSt11char_traitsIcESaIcEEEN9OptionSetI12OptionsBasicE6OptionEEEEE10deallocateERSF_PSE_j@Base 2.9.2+dfsg
 _ZNSt16allocator_traitsISaISt13_Rb_tree_nodeISt4pairIKNSt7__cxx1112basic_stringIcSt11char_traitsIcESaIcEEEN9OptionSetI12OptionsBasicE6OptionEEEEE7destroyISD_EEvRSF_PT_@Base 2.9.2+dfsg
 _ZNSt16allocator_traitsISaISt13_Rb_tree_nodeISt4pairIKNSt7__cxx1112basic_stringIcSt11char_traitsIcESaIcEEEN9OptionSetI12OptionsBasicE6OptionEEEEE8allocateERSF_j@Base 2.9.2+dfsg
 _ZNSt16allocator_traitsISaISt13_Rb_tree_nodeISt4pairIKNSt7__cxx1112basic_stringIcSt11char_traitsIcESaIcEEEN9OptionSetI12OptionsBasicE6OptionEEEEE9constructISD_JRKSt21piecewise_construct_tSt5tupleIJOS7_EESL_IJEEEEEvRSF_PT_DpOT0_@Base 2.9.2+dfsg
 _ZNSt16allocator_traitsISaISt13_Rb_tree_nodeISt4pairIKNSt7__cxx1112basic_stringIcSt11char_traitsIcESaIcEEEN9OptionSetI14OptionsHaskellE6OptionEEEEE10deallocateERSF_PSE_j@Base 2.9.2+dfsg
 _ZNSt16allocator_traitsISaISt13_Rb_tree_nodeISt4pairIKNSt7__cxx1112basic_stringIcSt11char_traitsIcESaIcEEEN9OptionSetI14OptionsHaskellE6OptionEEEEE7destroyISD_EEvRSF_PT_@Base 2.9.2+dfsg
 _ZNSt16allocator_traitsISaISt13_Rb_tree_nodeISt4pairIKNSt7__cxx1112basic_stringIcSt11char_traitsIcESaIcEEEN9OptionSetI14OptionsHaskellE6OptionEEEEE8allocateERSF_j@Base 2.9.2+dfsg
 _ZNSt16allocator_traitsISaISt13_Rb_tree_nodeISt4pairIKNSt7__cxx1112basic_stringIcSt11char_traitsIcESaIcEEEN9OptionSetI14OptionsHaskellE6OptionEEEEE9constructISD_JRKSt21piecewise_construct_tSt5tupleIJOS7_EESL_IJEEEEEvRSF_PT_DpOT0_@Base 2.9.2+dfsg
 _ZNSt16allocator_traitsISaISt13_Rb_tree_nodeISt4pairIKNSt7__cxx1112basic_stringIcSt11char_traitsIcESaIcEEEN9OptionSetI15OptionsRegistryE6OptionEEEEE10deallocateERSF_PSE_j@Base 2.9.2+dfsg
 _ZNSt16allocator_traitsISaISt13_Rb_tree_nodeISt4pairIKNSt7__cxx1112basic_stringIcSt11char_traitsIcESaIcEEEN9OptionSetI15OptionsRegistryE6OptionEEEEE7destroyISD_EEvRSF_PT_@Base 2.9.2+dfsg
 _ZNSt16allocator_traitsISaISt13_Rb_tree_nodeISt4pairIKNSt7__cxx1112basic_stringIcSt11char_traitsIcESaIcEEEN9OptionSetI15OptionsRegistryE6OptionEEEEE8allocateERSF_j@Base 2.9.2+dfsg
 _ZNSt16allocator_traitsISaISt13_Rb_tree_nodeISt4pairIKNSt7__cxx1112basic_stringIcSt11char_traitsIcESaIcEEEN9OptionSetI15OptionsRegistryE6OptionEEEEE9constructISD_JRKSt21piecewise_construct_tSt5tupleIJOS7_EESL_IJEEEEEvRSF_PT_DpOT0_@Base 2.9.2+dfsg
 _ZNSt16allocator_traitsISaISt13_Rb_tree_nodeISt4pairIKNSt7__cxx1112basic_stringIcSt11char_traitsIcESaIcEEEN9OptionSetI19OptionsVisualPrologE6OptionEEEEE10deallocateERSF_PSE_j@Base 2.9.2+dfsg
 _ZNSt16allocator_traitsISaISt13_Rb_tree_nodeISt4pairIKNSt7__cxx1112basic_stringIcSt11char_traitsIcESaIcEEEN9OptionSetI19OptionsVisualPrologE6OptionEEEEE7destroyISD_EEvRSF_PT_@Base 2.9.2+dfsg
 _ZNSt16allocator_traitsISaISt13_Rb_tree_nodeISt4pairIKNSt7__cxx1112basic_stringIcSt11char_traitsIcESaIcEEEN9OptionSetI8OptionsDE6OptionEEEEE10deallocateERSF_PSE_j@Base 2.9.2+dfsg
 _ZNSt16allocator_traitsISaISt13_Rb_tree_nodeISt4pairIKNSt7__cxx1112basic_stringIcSt11char_traitsIcESaIcEEEN9OptionSetI8OptionsDE6OptionEEEEE7destroyISD_EEvRSF_PT_@Base 2.9.2+dfsg
 _ZNSt16allocator_traitsISaISt13_Rb_tree_nodeISt4pairIKNSt7__cxx1112basic_stringIcSt11char_traitsIcESaIcEEEN9OptionSetI8OptionsDE6OptionEEEEE8allocateERSF_j@Base 2.9.2+dfsg
 _ZNSt16allocator_traitsISaISt13_Rb_tree_nodeISt4pairIKNSt7__cxx1112basic_stringIcSt11char_traitsIcESaIcEEEN9OptionSetI8OptionsDE6OptionEEEEE9constructISD_JRKSt21piecewise_construct_tSt5tupleIJOS7_EESL_IJEEEEEvRSF_PT_DpOT0_@Base 2.9.2+dfsg
 _ZNSt16allocator_traitsISaISt13_Rb_tree_nodeISt4pairIKNSt7__cxx1112basic_stringIcSt11char_traitsIcESaIcEEES7_EEEE10deallocateERSB_PSA_j@Base 2.9.2+dfsg
 _ZNSt16allocator_traitsISaISt13_Rb_tree_nodeISt4pairIKNSt7__cxx1112basic_stringIcSt11char_traitsIcESaIcEEES7_EEEE7destroyIS9_EEvRSB_PT_@Base 2.9.2+dfsg
 _ZNSt16allocator_traitsISaISt13_Rb_tree_nodeISt4pairIKNSt7__cxx1112basic_stringIcSt11char_traitsIcESaIcEEES7_EEEE8allocateERSB_j@Base 2.9.2+dfsg
 _ZNSt16allocator_traitsISaISt13_Rb_tree_nodeISt4pairIKNSt7__cxx1112basic_stringIcSt11char_traitsIcESaIcEEES7_EEEE9constructIS9_JRKSt21piecewise_construct_tSt5tupleIJOS7_EESH_IJEEEEEvRSB_PT_DpOT0_@Base 2.9.2+dfsg
 _ZNSt16allocator_traitsISaISt13_Rb_tree_nodeISt4pairIKNSt7__cxx1112basic_stringIcSt11char_traitsIcESaIcEEES7_EEEE9constructIS9_JRKSt21piecewise_construct_tSt5tupleIJRS8_EESH_IJEEEEEvRSB_PT_DpOT0_@Base 2.9.2+dfsg
 _ZNSt16allocator_traitsISaISt13_Rb_tree_nodeISt4pairIKNSt7__cxx1112basic_stringIcSt11char_traitsIcESaIcEEEiEEEE10deallocateERSB_PSA_j@Base 2.9.2+dfsg
 _ZNSt16allocator_traitsISaISt13_Rb_tree_nodeISt4pairIKNSt7__cxx1112basic_stringIcSt11char_traitsIcESaIcEEEiEEEE7destroyIS9_EEvRSB_PT_@Base 2.9.2+dfsg
 _ZNSt16allocator_traitsISaISt13_Rb_tree_nodeISt4pairIKNSt7__cxx1112basic_stringIcSt11char_traitsIcESaIcEEEiEEEE8allocateERSB_j@Base 2.9.2+dfsg
 _ZNSt16allocator_traitsISaISt13_Rb_tree_nodeISt4pairIKNSt7__cxx1112basic_stringIcSt11char_traitsIcESaIcEEEiEEEE9constructIS9_JRKSt21piecewise_construct_tSt5tupleIJRS8_EESH_IJEEEEEvRSB_PT_DpOT0_@Base 2.9.2+dfsg
 _ZNSt16allocator_traitsISaISt13_Rb_tree_nodeISt4pairIKi14RepresentationEEEE10deallocateERS6_PS5_j@Base 2.9.2+dfsg
 _ZNSt16allocator_traitsISaISt13_Rb_tree_nodeISt4pairIKi14RepresentationEEEE7destroyIS4_EEvRS6_PT_@Base 2.9.2+dfsg
 _ZNSt16allocator_traitsISaISt13_Rb_tree_nodeISt4pairIKi14RepresentationEEEE8allocateERS6_j@Base 2.9.2+dfsg
 _ZNSt16allocator_traitsISaISt13_Rb_tree_nodeISt4pairIKi14RepresentationEEEE9constructIS4_JRKSt21piecewise_construct_tSt5tupleIJOiEESC_IJEEEEEvRS6_PT_DpOT0_@Base 2.9.2+dfsg
 _ZNSt16allocator_traitsISaISt13_Rb_tree_nodeISt4pairIKiiEEEE10deallocateERS5_PS4_j@Base 2.9.2+dfsg
 _ZNSt16allocator_traitsISaISt13_Rb_tree_nodeISt4pairIKiiEEEE7destroyIS3_EEvRS5_PT_@Base 2.9.2+dfsg
 _ZNSt16allocator_traitsISaISt13_Rb_tree_nodeISt4pairIKiiEEEE8allocateERS5_j@Base 2.9.2+dfsg
 _ZNSt16allocator_traitsISaISt13_Rb_tree_nodeISt4pairIKiiEEEE9constructIS3_JRKSt21piecewise_construct_tSt5tupleIJRS2_EESB_IJEEEEEvRS5_PT_DpOT0_@Base 2.9.2+dfsg
 _ZNSt16allocator_traitsISaIcEE10deallocateERS0_Pcj@Base 2.9.2+dfsg
 _ZNSt16allocator_traitsISaIcEE8allocateERS0_j@Base 2.9.2+dfsg
 _ZNSt16allocator_traitsISaIiEE10deallocateERS0_Pij@Base 2.9.2+dfsg
 _ZNSt16allocator_traitsISaIiEE37select_on_container_copy_constructionERKS0_@Base 2.9.2+dfsg
 _ZNSt16allocator_traitsISaIiEE7destroyIiEEvRS0_PT_@Base 2.9.2+dfsg
 _ZNSt16allocator_traitsISaIiEE8allocateERS0_j@Base 2.9.2+dfsg
 _ZNSt16allocator_traitsISaIiEE8max_sizeERKS0_@Base 2.9.2+dfsg
 _ZNSt16allocator_traitsISaIiEE9constructIiJRKiEEEvRS0_PT_DpOT0_@Base 2.9.2+dfsg
 _ZNSt16allocator_traitsISaIiEE9constructIiJiEEEvRS0_PT_DpOT0_@Base 2.9.2+dfsg
 _ZNSt16reverse_iteratorIN9__gnu_cxx17__normal_iteratorIPP14SelectionRangeSt6vectorIS3_SaIS3_EEEEEC1ES8_@Base 2.8.4
 _ZNSt16reverse_iteratorIN9__gnu_cxx17__normal_iteratorIPP14SelectionRangeSt6vectorIS3_SaIS3_EEEEEC2ES8_@Base 2.8.4
 _ZNSt16reverse_iteratorIN9__gnu_cxx17__normal_iteratorIPP14SelectionRangeSt6vectorIS3_SaIS3_EEEEEppEv@Base 2.8.4
 _ZNSt17_Rb_tree_iteratorISt4pairIK12KeyModifiersjEEC1EPSt18_Rb_tree_node_base@Base 2.9
 _ZNSt17_Rb_tree_iteratorISt4pairIK12KeyModifiersjEEC2EPSt18_Rb_tree_node_base@Base 2.9
 _ZNSt17_Rb_tree_iteratorISt4pairIK12KeyModifiersjEEmmEv@Base 2.9
 _ZNSt17_Rb_tree_iteratorISt4pairIK12KeyModifiersjEEppEv@Base 2.9
 _ZNSt17_Rb_tree_iteratorISt4pairIK17FontSpecificationP12FontRealisedEEC1EPSt18_Rb_tree_node_base@Base 2.9
 _ZNSt17_Rb_tree_iteratorISt4pairIK17FontSpecificationP12FontRealisedEEC2EPSt18_Rb_tree_node_base@Base 2.9
 _ZNSt17_Rb_tree_iteratorISt4pairIK17FontSpecificationP12FontRealisedEEmmEv@Base 2.8.4
 _ZNSt17_Rb_tree_iteratorISt4pairIK17FontSpecificationP12FontRealisedEEppEv@Base 2.8.4
 _ZNSt17_Rb_tree_iteratorISt4pairIKNSt7__cxx1112basic_stringIcSt11char_traitsIcESaIcEEEN12LexerVerilog11SymbolValueEEEC1EPSt18_Rb_tree_node_base@Base 2.9
 _ZNSt17_Rb_tree_iteratorISt4pairIKNSt7__cxx1112basic_stringIcSt11char_traitsIcESaIcEEEN12LexerVerilog11SymbolValueEEEC1Ev@Base 2.9
 _ZNSt17_Rb_tree_iteratorISt4pairIKNSt7__cxx1112basic_stringIcSt11char_traitsIcESaIcEEEN12LexerVerilog11SymbolValueEEEC2EPSt18_Rb_tree_node_base@Base 2.9
 _ZNSt17_Rb_tree_iteratorISt4pairIKNSt7__cxx1112basic_stringIcSt11char_traitsIcESaIcEEEN12LexerVerilog11SymbolValueEEEC2Ev@Base 2.9
 _ZNSt17_Rb_tree_iteratorISt4pairIKNSt7__cxx1112basic_stringIcSt11char_traitsIcESaIcEEEN12LexerVerilog11SymbolValueEEEmmEv@Base 2.9
 _ZNSt17_Rb_tree_iteratorISt4pairIKNSt7__cxx1112basic_stringIcSt11char_traitsIcESaIcEEEN12LexerVerilog11SymbolValueEEEppEv@Base 2.9
 _ZNSt17_Rb_tree_iteratorISt4pairIKNSt7__cxx1112basic_stringIcSt11char_traitsIcESaIcEEEN8LexerCPP11SymbolValueEEEC1EPSt18_Rb_tree_node_base@Base 2.9
 _ZNSt17_Rb_tree_iteratorISt4pairIKNSt7__cxx1112basic_stringIcSt11char_traitsIcESaIcEEEN8LexerCPP11SymbolValueEEEC2EPSt18_Rb_tree_node_base@Base 2.9
 _ZNSt17_Rb_tree_iteratorISt4pairIKNSt7__cxx1112basic_stringIcSt11char_traitsIcESaIcEEEN8LexerCPP11SymbolValueEEEmmEv@Base 2.9
 _ZNSt17_Rb_tree_iteratorISt4pairIKNSt7__cxx1112basic_stringIcSt11char_traitsIcESaIcEEEN8LexerCPP11SymbolValueEEEppEv@Base 2.9
 _ZNSt17_Rb_tree_iteratorISt4pairIKNSt7__cxx1112basic_stringIcSt11char_traitsIcESaIcEEEN9OptionSetI10OptionsAsmE6OptionEEEC1EPSt18_Rb_tree_node_base@Base 2.9
 _ZNSt17_Rb_tree_iteratorISt4pairIKNSt7__cxx1112basic_stringIcSt11char_traitsIcESaIcEEEN9OptionSetI10OptionsAsmE6OptionEEEC2EPSt18_Rb_tree_node_base@Base 2.9
 _ZNSt17_Rb_tree_iteratorISt4pairIKNSt7__cxx1112basic_stringIcSt11char_traitsIcESaIcEEEN9OptionSetI10OptionsAsmE6OptionEEEmmEv@Base 2.9
 _ZNSt17_Rb_tree_iteratorISt4pairIKNSt7__cxx1112basic_stringIcSt11char_traitsIcESaIcEEEN9OptionSetI10OptionsAsmE6OptionEEEppEv@Base 2.9
 _ZNSt17_Rb_tree_iteratorISt4pairIKNSt7__cxx1112basic_stringIcSt11char_traitsIcESaIcEEEN9OptionSetI10OptionsSQLE6OptionEEEC1EPSt18_Rb_tree_node_base@Base 2.9
 _ZNSt17_Rb_tree_iteratorISt4pairIKNSt7__cxx1112basic_stringIcSt11char_traitsIcESaIcEEEN9OptionSetI10OptionsSQLE6OptionEEEC2EPSt18_Rb_tree_node_base@Base 2.9
 _ZNSt17_Rb_tree_iteratorISt4pairIKNSt7__cxx1112basic_stringIcSt11char_traitsIcESaIcEEEN9OptionSetI10OptionsSQLE6OptionEEEmmEv@Base 2.9
 _ZNSt17_Rb_tree_iteratorISt4pairIKNSt7__cxx1112basic_stringIcSt11char_traitsIcESaIcEEEN9OptionSetI10OptionsSQLE6OptionEEEppEv@Base 2.9
 _ZNSt17_Rb_tree_iteratorISt4pairIKNSt7__cxx1112basic_stringIcSt11char_traitsIcESaIcEEEN9OptionSetI11OptionsPerlE6OptionEEEC1EPSt18_Rb_tree_node_base@Base 2.9
 _ZNSt17_Rb_tree_iteratorISt4pairIKNSt7__cxx1112basic_stringIcSt11char_traitsIcESaIcEEEN9OptionSetI11OptionsPerlE6OptionEEEC2EPSt18_Rb_tree_node_base@Base 2.9
 _ZNSt17_Rb_tree_iteratorISt4pairIKNSt7__cxx1112basic_stringIcSt11char_traitsIcESaIcEEEN9OptionSetI11OptionsPerlE6OptionEEEmmEv@Base 2.9
 _ZNSt17_Rb_tree_iteratorISt4pairIKNSt7__cxx1112basic_stringIcSt11char_traitsIcESaIcEEEN9OptionSetI11OptionsPerlE6OptionEEEppEv@Base 2.9
 _ZNSt17_Rb_tree_iteratorISt4pairIKNSt7__cxx1112basic_stringIcSt11char_traitsIcESaIcEEEN9OptionSetI11OptionsRustE6OptionEEEC1EPSt18_Rb_tree_node_base@Base 2.9
 _ZNSt17_Rb_tree_iteratorISt4pairIKNSt7__cxx1112basic_stringIcSt11char_traitsIcESaIcEEEN9OptionSetI11OptionsRustE6OptionEEEC2EPSt18_Rb_tree_node_base@Base 2.9
 _ZNSt17_Rb_tree_iteratorISt4pairIKNSt7__cxx1112basic_stringIcSt11char_traitsIcESaIcEEEN9OptionSetI11OptionsRustE6OptionEEEmmEv@Base 2.9
 _ZNSt17_Rb_tree_iteratorISt4pairIKNSt7__cxx1112basic_stringIcSt11char_traitsIcESaIcEEEN9OptionSetI11OptionsRustE6OptionEEEppEv@Base 2.9
 _ZNSt17_Rb_tree_iteratorISt4pairIKNSt7__cxx1112basic_stringIcSt11char_traitsIcESaIcEEEN9OptionSetI12OptionsBasicE6OptionEEEC1EPSt18_Rb_tree_node_base@Base 2.9
 _ZNSt17_Rb_tree_iteratorISt4pairIKNSt7__cxx1112basic_stringIcSt11char_traitsIcESaIcEEEN9OptionSetI12OptionsBasicE6OptionEEEC2EPSt18_Rb_tree_node_base@Base 2.9
 _ZNSt17_Rb_tree_iteratorISt4pairIKNSt7__cxx1112basic_stringIcSt11char_traitsIcESaIcEEEN9OptionSetI12OptionsBasicE6OptionEEEmmEv@Base 2.9
 _ZNSt17_Rb_tree_iteratorISt4pairIKNSt7__cxx1112basic_stringIcSt11char_traitsIcESaIcEEEN9OptionSetI12OptionsBasicE6OptionEEEppEv@Base 2.9
 _ZNSt17_Rb_tree_iteratorISt4pairIKNSt7__cxx1112basic_stringIcSt11char_traitsIcESaIcEEEN9OptionSetI14OptionsHaskellE6OptionEEEC1EPSt18_Rb_tree_node_base@Base 2.9
 _ZNSt17_Rb_tree_iteratorISt4pairIKNSt7__cxx1112basic_stringIcSt11char_traitsIcESaIcEEEN9OptionSetI14OptionsHaskellE6OptionEEEC2EPSt18_Rb_tree_node_base@Base 2.9
 _ZNSt17_Rb_tree_iteratorISt4pairIKNSt7__cxx1112basic_stringIcSt11char_traitsIcESaIcEEEN9OptionSetI14OptionsHaskellE6OptionEEEmmEv@Base 2.9
 _ZNSt17_Rb_tree_iteratorISt4pairIKNSt7__cxx1112basic_stringIcSt11char_traitsIcESaIcEEEN9OptionSetI14OptionsHaskellE6OptionEEEppEv@Base 2.9
 _ZNSt17_Rb_tree_iteratorISt4pairIKNSt7__cxx1112basic_stringIcSt11char_traitsIcESaIcEEEN9OptionSetI15OptionsRegistryE6OptionEEEC1EPSt18_Rb_tree_node_base@Base 2.9
 _ZNSt17_Rb_tree_iteratorISt4pairIKNSt7__cxx1112basic_stringIcSt11char_traitsIcESaIcEEEN9OptionSetI15OptionsRegistryE6OptionEEEC2EPSt18_Rb_tree_node_base@Base 2.9
 _ZNSt17_Rb_tree_iteratorISt4pairIKNSt7__cxx1112basic_stringIcSt11char_traitsIcESaIcEEEN9OptionSetI15OptionsRegistryE6OptionEEEmmEv@Base 2.9
 _ZNSt17_Rb_tree_iteratorISt4pairIKNSt7__cxx1112basic_stringIcSt11char_traitsIcESaIcEEEN9OptionSetI15OptionsRegistryE6OptionEEEppEv@Base 2.9
 _ZNSt17_Rb_tree_iteratorISt4pairIKNSt7__cxx1112basic_stringIcSt11char_traitsIcESaIcEEEN9OptionSetI19OptionsVisualPrologE6OptionEEEC1EPSt18_Rb_tree_node_base@Base 2.9
 _ZNSt17_Rb_tree_iteratorISt4pairIKNSt7__cxx1112basic_stringIcSt11char_traitsIcESaIcEEEN9OptionSetI19OptionsVisualPrologE6OptionEEEC2EPSt18_Rb_tree_node_base@Base 2.9
 _ZNSt17_Rb_tree_iteratorISt4pairIKNSt7__cxx1112basic_stringIcSt11char_traitsIcESaIcEEEN9OptionSetI8OptionsDE6OptionEEEC1EPSt18_Rb_tree_node_base@Base 2.9
 _ZNSt17_Rb_tree_iteratorISt4pairIKNSt7__cxx1112basic_stringIcSt11char_traitsIcESaIcEEEN9OptionSetI8OptionsDE6OptionEEEC2EPSt18_Rb_tree_node_base@Base 2.9
 _ZNSt17_Rb_tree_iteratorISt4pairIKNSt7__cxx1112basic_stringIcSt11char_traitsIcESaIcEEEN9OptionSetI8OptionsDE6OptionEEEmmEv@Base 2.9
 _ZNSt17_Rb_tree_iteratorISt4pairIKNSt7__cxx1112basic_stringIcSt11char_traitsIcESaIcEEEN9OptionSetI8OptionsDE6OptionEEEppEv@Base 2.9
 _ZNSt17_Rb_tree_iteratorISt4pairIKNSt7__cxx1112basic_stringIcSt11char_traitsIcESaIcEEES6_EEC1EPSt18_Rb_tree_node_base@Base 2.9
 _ZNSt17_Rb_tree_iteratorISt4pairIKNSt7__cxx1112basic_stringIcSt11char_traitsIcESaIcEEES6_EEC2EPSt18_Rb_tree_node_base@Base 2.9
 _ZNSt17_Rb_tree_iteratorISt4pairIKNSt7__cxx1112basic_stringIcSt11char_traitsIcESaIcEEES6_EEmmEv@Base 2.9
 _ZNSt17_Rb_tree_iteratorISt4pairIKNSt7__cxx1112basic_stringIcSt11char_traitsIcESaIcEEES6_EEppEv@Base 2.9
 _ZNSt17_Rb_tree_iteratorISt4pairIKNSt7__cxx1112basic_stringIcSt11char_traitsIcESaIcEEEiEEC1EPSt18_Rb_tree_node_base@Base 2.9
 _ZNSt17_Rb_tree_iteratorISt4pairIKNSt7__cxx1112basic_stringIcSt11char_traitsIcESaIcEEEiEEC2EPSt18_Rb_tree_node_base@Base 2.9
 _ZNSt17_Rb_tree_iteratorISt4pairIKNSt7__cxx1112basic_stringIcSt11char_traitsIcESaIcEEEiEEmmEv@Base 2.9
 _ZNSt17_Rb_tree_iteratorISt4pairIKNSt7__cxx1112basic_stringIcSt11char_traitsIcESaIcEEEiEEppEv@Base 2.9
 _ZNSt17_Rb_tree_iteratorISt4pairIKi14RepresentationEEC1EPSt18_Rb_tree_node_base@Base 2.9
 _ZNSt17_Rb_tree_iteratorISt4pairIKi14RepresentationEEC2EPSt18_Rb_tree_node_base@Base 2.9
 _ZNSt17_Rb_tree_iteratorISt4pairIKi14RepresentationEEmmEv@Base 2.8.4
 _ZNSt17_Rb_tree_iteratorISt4pairIKi14RepresentationEEppEv@Base 2.8.4
 _ZNSt17_Rb_tree_iteratorISt4pairIKiiEEC1EPSt18_Rb_tree_node_base@Base 2.9
 _ZNSt17_Rb_tree_iteratorISt4pairIKiiEEC2EPSt18_Rb_tree_node_base@Base 2.9
 _ZNSt17_Rb_tree_iteratorISt4pairIKiiEEmmEv@Base 2.9
 _ZNSt17_Rb_tree_iteratorISt4pairIKiiEEppEv@Base 2.9
 _ZNSt18_Rb_tree_node_base10_S_maximumEPS_@Base 2.8.4
 _ZNSt18_Rb_tree_node_base10_S_minimumEPS_@Base 2.8.4
 _ZNSt18_Rb_tree_node_baseC1Ev@Base 2.9.2+dfsg
 _ZNSt18_Rb_tree_node_baseC2Ev@Base 2.9.2+dfsg
 _ZNSt20__copy_move_backwardILb1ELb0ESt26random_access_iterator_tagE13__copy_move_bIP14SelectionRangeS4_EET0_T_S6_S5_@Base 2.9.2+dfsg
 _ZNSt20__copy_move_backwardILb1ELb0ESt26random_access_iterator_tagE13__copy_move_bIPN11SparseStateINSt7__cxx1112basic_stringIcSt11char_traitsIcESaIcEEEE5StateESC_EET0_T_SE_SD_@Base 2.9.2+dfsg
 _ZNSt20__copy_move_backwardILb1ELb0ESt26random_access_iterator_tagE13__copy_move_bIPNSt7__cxx1112basic_stringIcSt11char_traitsIcESaIcEEES9_EET0_T_SB_SA_@Base 2.9.2+dfsg
 _ZNSt20__copy_move_backwardILb1ELb1ESt26random_access_iterator_tagE13__copy_move_bIP14SelectionRangeEEPT_PKS5_S8_S6_@Base 2.9.2+dfsg
 _ZNSt20__copy_move_backwardILb1ELb1ESt26random_access_iterator_tagE13__copy_move_bIiEEPT_PKS3_S6_S4_@Base 2.9.2+dfsg
 _ZNSt20__uninitialized_copyILb0EE13__uninit_copyIN9__gnu_cxx17__normal_iteratorIPK14SelectionRangeSt6vectorIS4_SaIS4_EEEEPS4_EET0_T_SD_SC_@Base 2.8.4
 _ZNSt20__uninitialized_copyILb0EE13__uninit_copyIN9__gnu_cxx17__normal_iteratorIPKN11SparseStateINSt7__cxx1112basic_stringIcSt11char_traitsIcESaIcEEEE5StateESt6vectorISC_SaISC_EEEEPSC_EET0_T_SL_SK_@Base 2.9
 _ZNSt20__uninitialized_copyILb0EE13__uninit_copyIN9__gnu_cxx17__normal_iteratorIPNSt7__cxx1112basic_stringIcSt11char_traitsIcESaIcEEESt6vectorIS9_SaIS9_EEEESA_EET0_T_SG_SF_@Base 2.9
 _ZNSt20__uninitialized_copyILb0EE13__uninit_copyIP14SelectionRangeS3_EET0_T_S5_S4_@Base 2.8.4
 _ZNSt20__uninitialized_copyILb0EE13__uninit_copyIPK13latexFoldSavePS2_EET0_T_S7_S6_@Base 2.9.3
 _ZNSt20__uninitialized_copyILb0EE13__uninit_copyIPK5StylePS2_EET0_T_S7_S6_@Base 2.9.3
 _ZNSt20__uninitialized_copyILb0EE13__uninit_copyISt13move_iteratorIP14SelectionRangeES4_EET0_T_S7_S6_@Base 2.9.2+dfsg
 _ZNSt20__uninitialized_copyILb0EE13__uninit_copyISt13move_iteratorIP14WordClassifierES4_EET0_T_S7_S6_@Base 2.9.2+dfsg
 _ZNSt20__uninitialized_copyILb0EE13__uninit_copyISt13move_iteratorIP18PositionCacheEntryES4_EET0_T_S7_S6_@Base 2.9.2+dfsg
 _ZNSt20__uninitialized_copyILb0EE13__uninit_copyISt13move_iteratorIPN11SparseStateINSt7__cxx1112basic_stringIcSt11char_traitsIcESaIcEEEE5StateEESC_EET0_T_SF_SE_@Base 2.9.2+dfsg
 _ZNSt20__uninitialized_copyILb0EE13__uninit_copyISt13move_iteratorIPN11SparseStateIjE5StateEES6_EET0_T_S9_S8_@Base 2.9.2+dfsg
 _ZNSt20__uninitialized_copyILb0EE13__uninit_copyISt13move_iteratorIPN8Document19WatcherWithUserDataEES5_EET0_T_S8_S7_@Base 2.9.2+dfsg
 _ZNSt20__uninitialized_copyILb0EE13__uninit_copyISt13move_iteratorIPNSt7__cxx1112basic_stringIcSt11char_traitsIcESaIcEEEES9_EET0_T_SC_SB_@Base 2.9.2+dfsg
 _ZNSt20__uninitialized_copyILb1EE13__uninit_copyIN9__gnu_cxx17__normal_iteratorIPKiSt6vectorIiSaIiEEEEPiEET0_T_SC_SB_@Base 2.8.4
 _ZNSt20__uninitialized_copyILb1EE13__uninit_copyISt13move_iteratorIP9DrawPhaseES4_EET0_T_S7_S6_@Base 2.9.2+dfsg
 _ZNSt20__uninitialized_copyILb1EE13__uninit_copyISt13move_iteratorIPP10LineLayoutES5_EET0_T_S8_S7_@Base 2.9.2+dfsg
 _ZNSt20__uninitialized_copyILb1EE13__uninit_copyISt13move_iteratorIPP11LexerModuleES5_EET0_T_S8_S7_@Base 2.9.2+dfsg
 _ZNSt20__uninitialized_copyILb1EE13__uninit_copyISt13move_iteratorIPP14SelectionRangeES5_EET0_T_S8_S7_@Base 2.9.2+dfsg
 _ZNSt20__uninitialized_copyILb1EE13__uninit_copyISt13move_iteratorIPPcES4_EET0_T_S7_S6_@Base 2.9.2+dfsg
 _ZNSt20__uninitialized_copyILb1EE13__uninit_copyISt13move_iteratorIPiES3_EET0_T_S6_S5_@Base 2.9.2+dfsg
 _ZNSt22__uninitialized_fill_nILb1EE15__uninit_fill_nIPijiEET_S3_T0_RKT1_@Base 2.9
 _ZNSt23_Rb_tree_const_iteratorISt4pairIK12KeyModifiersjEEC1EPKSt18_Rb_tree_node_base@Base 2.9
 _ZNSt23_Rb_tree_const_iteratorISt4pairIK12KeyModifiersjEEC1ERKSt17_Rb_tree_iteratorIS3_E@Base 2.9
 _ZNSt23_Rb_tree_const_iteratorISt4pairIK12KeyModifiersjEEC2EPKSt18_Rb_tree_node_base@Base 2.9
 _ZNSt23_Rb_tree_const_iteratorISt4pairIK12KeyModifiersjEEC2ERKSt17_Rb_tree_iteratorIS3_E@Base 2.9
 _ZNSt23_Rb_tree_const_iteratorISt4pairIK17FontSpecificationP12FontRealisedEEC1ERKSt17_Rb_tree_iteratorIS5_E@Base 2.8.4
 _ZNSt23_Rb_tree_const_iteratorISt4pairIK17FontSpecificationP12FontRealisedEEC2ERKSt17_Rb_tree_iteratorIS5_E@Base 2.8.4
 _ZNSt23_Rb_tree_const_iteratorISt4pairIK17FontSpecificationP12FontRealisedEEppEv@Base 2.8.4
 _ZNSt23_Rb_tree_const_iteratorISt4pairIKNSt7__cxx1112basic_stringIcSt11char_traitsIcESaIcEEEN12LexerVerilog11SymbolValueEEEC1ERKSt17_Rb_tree_iteratorISA_E@Base 2.9
 _ZNSt23_Rb_tree_const_iteratorISt4pairIKNSt7__cxx1112basic_stringIcSt11char_traitsIcESaIcEEEN12LexerVerilog11SymbolValueEEEC2ERKSt17_Rb_tree_iteratorISA_E@Base 2.9
 _ZNSt23_Rb_tree_const_iteratorISt4pairIKNSt7__cxx1112basic_stringIcSt11char_traitsIcESaIcEEEN12LexerVerilog11SymbolValueEEEppEi@Base 2.9
 _ZNSt23_Rb_tree_const_iteratorISt4pairIKNSt7__cxx1112basic_stringIcSt11char_traitsIcESaIcEEEN12LexerVerilog11SymbolValueEEEppEv@Base 2.9.2+dfsg
 _ZNSt23_Rb_tree_const_iteratorISt4pairIKNSt7__cxx1112basic_stringIcSt11char_traitsIcESaIcEEEN8LexerCPP11SymbolValueEEEC1EPKSt18_Rb_tree_node_base@Base 2.9
 _ZNSt23_Rb_tree_const_iteratorISt4pairIKNSt7__cxx1112basic_stringIcSt11char_traitsIcESaIcEEEN8LexerCPP11SymbolValueEEEC1ERKSt17_Rb_tree_iteratorISA_E@Base 2.9
 _ZNSt23_Rb_tree_const_iteratorISt4pairIKNSt7__cxx1112basic_stringIcSt11char_traitsIcESaIcEEEN8LexerCPP11SymbolValueEEEC2EPKSt18_Rb_tree_node_base@Base 2.9
 _ZNSt23_Rb_tree_const_iteratorISt4pairIKNSt7__cxx1112basic_stringIcSt11char_traitsIcESaIcEEEN8LexerCPP11SymbolValueEEEC2ERKSt17_Rb_tree_iteratorISA_E@Base 2.9
 _ZNSt23_Rb_tree_const_iteratorISt4pairIKNSt7__cxx1112basic_stringIcSt11char_traitsIcESaIcEEEN8LexerCPP11SymbolValueEEEppEi@Base 2.9
 _ZNSt23_Rb_tree_const_iteratorISt4pairIKNSt7__cxx1112basic_stringIcSt11char_traitsIcESaIcEEEN8LexerCPP11SymbolValueEEEppEv@Base 2.9.2+dfsg
 _ZNSt23_Rb_tree_const_iteratorISt4pairIKNSt7__cxx1112basic_stringIcSt11char_traitsIcESaIcEEEN9OptionSetI10OptionsAsmE6OptionEEEC1ERKSt17_Rb_tree_iteratorISC_E@Base 2.9
 _ZNSt23_Rb_tree_const_iteratorISt4pairIKNSt7__cxx1112basic_stringIcSt11char_traitsIcESaIcEEEN9OptionSetI10OptionsAsmE6OptionEEEC2ERKSt17_Rb_tree_iteratorISC_E@Base 2.9
 _ZNSt23_Rb_tree_const_iteratorISt4pairIKNSt7__cxx1112basic_stringIcSt11char_traitsIcESaIcEEEN9OptionSetI10OptionsSQLE6OptionEEEC1ERKSt17_Rb_tree_iteratorISC_E@Base 2.9
 _ZNSt23_Rb_tree_const_iteratorISt4pairIKNSt7__cxx1112basic_stringIcSt11char_traitsIcESaIcEEEN9OptionSetI10OptionsSQLE6OptionEEEC2ERKSt17_Rb_tree_iteratorISC_E@Base 2.9
 _ZNSt23_Rb_tree_const_iteratorISt4pairIKNSt7__cxx1112basic_stringIcSt11char_traitsIcESaIcEEEN9OptionSetI11OptionsPerlE6OptionEEEC1ERKSt17_Rb_tree_iteratorISC_E@Base 2.9
 _ZNSt23_Rb_tree_const_iteratorISt4pairIKNSt7__cxx1112basic_stringIcSt11char_traitsIcESaIcEEEN9OptionSetI11OptionsPerlE6OptionEEEC2ERKSt17_Rb_tree_iteratorISC_E@Base 2.9
 _ZNSt23_Rb_tree_const_iteratorISt4pairIKNSt7__cxx1112basic_stringIcSt11char_traitsIcESaIcEEEN9OptionSetI11OptionsRustE6OptionEEEC1ERKSt17_Rb_tree_iteratorISC_E@Base 2.9
 _ZNSt23_Rb_tree_const_iteratorISt4pairIKNSt7__cxx1112basic_stringIcSt11char_traitsIcESaIcEEEN9OptionSetI11OptionsRustE6OptionEEEC2ERKSt17_Rb_tree_iteratorISC_E@Base 2.9
 _ZNSt23_Rb_tree_const_iteratorISt4pairIKNSt7__cxx1112basic_stringIcSt11char_traitsIcESaIcEEEN9OptionSetI12OptionsBasicE6OptionEEEC1ERKSt17_Rb_tree_iteratorISC_E@Base 2.9
 _ZNSt23_Rb_tree_const_iteratorISt4pairIKNSt7__cxx1112basic_stringIcSt11char_traitsIcESaIcEEEN9OptionSetI12OptionsBasicE6OptionEEEC2ERKSt17_Rb_tree_iteratorISC_E@Base 2.9
 _ZNSt23_Rb_tree_const_iteratorISt4pairIKNSt7__cxx1112basic_stringIcSt11char_traitsIcESaIcEEEN9OptionSetI14OptionsHaskellE6OptionEEEC1ERKSt17_Rb_tree_iteratorISC_E@Base 2.9
 _ZNSt23_Rb_tree_const_iteratorISt4pairIKNSt7__cxx1112basic_stringIcSt11char_traitsIcESaIcEEEN9OptionSetI14OptionsHaskellE6OptionEEEC2ERKSt17_Rb_tree_iteratorISC_E@Base 2.9
 _ZNSt23_Rb_tree_const_iteratorISt4pairIKNSt7__cxx1112basic_stringIcSt11char_traitsIcESaIcEEEN9OptionSetI15OptionsRegistryE6OptionEEEC1ERKSt17_Rb_tree_iteratorISC_E@Base 2.9
 _ZNSt23_Rb_tree_const_iteratorISt4pairIKNSt7__cxx1112basic_stringIcSt11char_traitsIcESaIcEEEN9OptionSetI15OptionsRegistryE6OptionEEEC2ERKSt17_Rb_tree_iteratorISC_E@Base 2.9
 _ZNSt23_Rb_tree_const_iteratorISt4pairIKNSt7__cxx1112basic_stringIcSt11char_traitsIcESaIcEEEN9OptionSetI8OptionsDE6OptionEEEC1ERKSt17_Rb_tree_iteratorISC_E@Base 2.9
 _ZNSt23_Rb_tree_const_iteratorISt4pairIKNSt7__cxx1112basic_stringIcSt11char_traitsIcESaIcEEEN9OptionSetI8OptionsDE6OptionEEEC2ERKSt17_Rb_tree_iteratorISC_E@Base 2.9
 _ZNSt23_Rb_tree_const_iteratorISt4pairIKNSt7__cxx1112basic_stringIcSt11char_traitsIcESaIcEEES6_EEC1ERKSt17_Rb_tree_iteratorIS8_E@Base 2.9
 _ZNSt23_Rb_tree_const_iteratorISt4pairIKNSt7__cxx1112basic_stringIcSt11char_traitsIcESaIcEEES6_EEC2ERKSt17_Rb_tree_iteratorIS8_E@Base 2.9
 _ZNSt23_Rb_tree_const_iteratorISt4pairIKNSt7__cxx1112basic_stringIcSt11char_traitsIcESaIcEEEiEEC1EPKSt18_Rb_tree_node_base@Base 2.9
 _ZNSt23_Rb_tree_const_iteratorISt4pairIKNSt7__cxx1112basic_stringIcSt11char_traitsIcESaIcEEEiEEC1ERKSt17_Rb_tree_iteratorIS8_E@Base 2.9
 _ZNSt23_Rb_tree_const_iteratorISt4pairIKNSt7__cxx1112basic_stringIcSt11char_traitsIcESaIcEEEiEEC2EPKSt18_Rb_tree_node_base@Base 2.9
 _ZNSt23_Rb_tree_const_iteratorISt4pairIKNSt7__cxx1112basic_stringIcSt11char_traitsIcESaIcEEEiEEC2ERKSt17_Rb_tree_iteratorIS8_E@Base 2.9
 _ZNSt23_Rb_tree_const_iteratorISt4pairIKi14RepresentationEEC1EPKSt18_Rb_tree_node_base@Base 2.9
 _ZNSt23_Rb_tree_const_iteratorISt4pairIKi14RepresentationEEC1ERKSt17_Rb_tree_iteratorIS3_E@Base 2.8.4
 _ZNSt23_Rb_tree_const_iteratorISt4pairIKi14RepresentationEEC2EPKSt18_Rb_tree_node_base@Base 2.9
 _ZNSt23_Rb_tree_const_iteratorISt4pairIKi14RepresentationEEC2ERKSt17_Rb_tree_iteratorIS3_E@Base 2.8.4
 _ZNSt23_Rb_tree_const_iteratorISt4pairIKiiEEC1ERKSt17_Rb_tree_iteratorIS2_E@Base 2.9
 _ZNSt23_Rb_tree_const_iteratorISt4pairIKiiEEC2ERKSt17_Rb_tree_iteratorIS2_E@Base 2.9
 _ZNSt23_Rb_tree_const_iteratorISt4pairIKiiEEppEi@Base 2.9
 _ZNSt23_Rb_tree_const_iteratorISt4pairIKiiEEppEv@Base 2.9.2+dfsg
 _ZNSt27__uninitialized_default_n_1ILb0EE18__uninit_default_nIP13latexFoldSavejEET_S4_T0_@Base 2.9.2+dfsg
 _ZNSt27__uninitialized_default_n_1ILb0EE18__uninit_default_nIP18PositionCacheEntryjEET_S4_T0_@Base 2.9.2+dfsg
 _ZNSt27__uninitialized_default_n_1ILb0EE18__uninit_default_nIP5StylejEET_S4_T0_@Base 2.9.2+dfsg
 _ZNSt27__uninitialized_default_n_1ILb0EE18__uninit_default_nIPNSt7__cxx1112basic_stringIcSt11char_traitsIcESaIcEEEjEET_S9_T0_@Base 2.9.2+dfsg
 _ZNSt27__uninitialized_default_n_1ILb1EE18__uninit_default_nIPP10LineLayoutjEET_S5_T0_@Base 2.9.2+dfsg
 _ZNSt27__uninitialized_default_n_1ILb1EE18__uninit_default_nIPcjEET_S3_T0_@Base 2.9.2+dfsg
 _ZNSt27__uninitialized_default_n_1ILb1EE18__uninit_default_nIPijEET_S3_T0_@Base 2.9.2+dfsg
 _ZNSt3mapI12KeyModifiersjSt4lessIS0_ESaISt4pairIKS0_jEEE11lower_boundERS4_@Base 2.9
 _ZNSt3mapI12KeyModifiersjSt4lessIS0_ESaISt4pairIKS0_jEEE3endEv@Base 2.9
 _ZNSt3mapI12KeyModifiersjSt4lessIS0_ESaISt4pairIKS0_jEEE5clearEv@Base 2.9
 _ZNSt3mapI12KeyModifiersjSt4lessIS0_ESaISt4pairIKS0_jEEEC1Ev@Base 2.9
 _ZNSt3mapI12KeyModifiersjSt4lessIS0_ESaISt4pairIKS0_jEEEC2Ev@Base 2.9
 _ZNSt3mapI12KeyModifiersjSt4lessIS0_ESaISt4pairIKS0_jEEED1Ev@Base 2.9
 _ZNSt3mapI12KeyModifiersjSt4lessIS0_ESaISt4pairIKS0_jEEED2Ev@Base 2.9
 _ZNSt3mapI12KeyModifiersjSt4lessIS0_ESaISt4pairIKS0_jEEEixEOS0_@Base 2.9.2+dfsg
 _ZNSt3mapI17FontSpecificationP12FontRealisedSt4lessIS0_ESaISt4pairIKS0_S2_EEE11lower_boundERS6_@Base 2.8.4
 _ZNSt3mapI17FontSpecificationP12FontRealisedSt4lessIS0_ESaISt4pairIKS0_S2_EEE3endEv@Base 2.8.4
 _ZNSt3mapI17FontSpecificationP12FontRealisedSt4lessIS0_ESaISt4pairIKS0_S2_EEE4findERS6_@Base 2.8.4
 _ZNSt3mapI17FontSpecificationP12FontRealisedSt4lessIS0_ESaISt4pairIKS0_S2_EEE5beginEv@Base 2.8.4
 _ZNSt3mapI17FontSpecificationP12FontRealisedSt4lessIS0_ESaISt4pairIKS0_S2_EEE5clearEv@Base 2.8.4
 _ZNSt3mapI17FontSpecificationP12FontRealisedSt4lessIS0_ESaISt4pairIKS0_S2_EEEC1Ev@Base 2.8.4
 _ZNSt3mapI17FontSpecificationP12FontRealisedSt4lessIS0_ESaISt4pairIKS0_S2_EEEC2Ev@Base 2.8.4
 _ZNSt3mapI17FontSpecificationP12FontRealisedSt4lessIS0_ESaISt4pairIKS0_S2_EEED1Ev@Base 2.8.4
 _ZNSt3mapI17FontSpecificationP12FontRealisedSt4lessIS0_ESaISt4pairIKS0_S2_EEED2Ev@Base 2.8.4
 _ZNSt3mapI17FontSpecificationP12FontRealisedSt4lessIS0_ESaISt4pairIKS0_S2_EEEixERS6_@Base 2.8.4
 _ZNSt3mapINSt7__cxx1112basic_stringIcSt11char_traitsIcESaIcEEEN12LexerVerilog11SymbolValueESt4lessIS5_ESaISt4pairIKS5_S7_EEE11lower_boundERSB_@Base 2.9
 _ZNSt3mapINSt7__cxx1112basic_stringIcSt11char_traitsIcESaIcEEEN12LexerVerilog11SymbolValueESt4lessIS5_ESaISt4pairIKS5_S7_EEE3endEv@Base 2.9
 _ZNSt3mapINSt7__cxx1112basic_stringIcSt11char_traitsIcESaIcEEEN12LexerVerilog11SymbolValueESt4lessIS5_ESaISt4pairIKS5_S7_EEE4findERSB_@Base 2.9
 _ZNSt3mapINSt7__cxx1112basic_stringIcSt11char_traitsIcESaIcEEEN12LexerVerilog11SymbolValueESt4lessIS5_ESaISt4pairIKS5_S7_EEE5beginEv@Base 2.9
 _ZNSt3mapINSt7__cxx1112basic_stringIcSt11char_traitsIcESaIcEEEN12LexerVerilog11SymbolValueESt4lessIS5_ESaISt4pairIKS5_S7_EEE5clearEv@Base 2.9
 _ZNSt3mapINSt7__cxx1112basic_stringIcSt11char_traitsIcESaIcEEEN12LexerVerilog11SymbolValueESt4lessIS5_ESaISt4pairIKS5_S7_EEE5eraseERSB_@Base 2.9
 _ZNSt3mapINSt7__cxx1112basic_stringIcSt11char_traitsIcESaIcEEEN12LexerVerilog11SymbolValueESt4lessIS5_ESaISt4pairIKS5_S7_EEEC1ERKSE_@Base 2.9
 _ZNSt3mapINSt7__cxx1112basic_stringIcSt11char_traitsIcESaIcEEEN12LexerVerilog11SymbolValueESt4lessIS5_ESaISt4pairIKS5_S7_EEEC1Ev@Base 2.9
 _ZNSt3mapINSt7__cxx1112basic_stringIcSt11char_traitsIcESaIcEEEN12LexerVerilog11SymbolValueESt4lessIS5_ESaISt4pairIKS5_S7_EEEC2ERKSE_@Base 2.9
 _ZNSt3mapINSt7__cxx1112basic_stringIcSt11char_traitsIcESaIcEEEN12LexerVerilog11SymbolValueESt4lessIS5_ESaISt4pairIKS5_S7_EEEC2Ev@Base 2.9
 _ZNSt3mapINSt7__cxx1112basic_stringIcSt11char_traitsIcESaIcEEEN12LexerVerilog11SymbolValueESt4lessIS5_ESaISt4pairIKS5_S7_EEED1Ev@Base 2.9
 _ZNSt3mapINSt7__cxx1112basic_stringIcSt11char_traitsIcESaIcEEEN12LexerVerilog11SymbolValueESt4lessIS5_ESaISt4pairIKS5_S7_EEED2Ev@Base 2.9
 _ZNSt3mapINSt7__cxx1112basic_stringIcSt11char_traitsIcESaIcEEEN12LexerVerilog11SymbolValueESt4lessIS5_ESaISt4pairIKS5_S7_EEEixERSB_@Base 2.9
 _ZNSt3mapINSt7__cxx1112basic_stringIcSt11char_traitsIcESaIcEEEN8LexerCPP11SymbolValueESt4lessIS5_ESaISt4pairIKS5_S7_EEE11lower_boundERSB_@Base 2.9
 _ZNSt3mapINSt7__cxx1112basic_stringIcSt11char_traitsIcESaIcEEEN8LexerCPP11SymbolValueESt4lessIS5_ESaISt4pairIKS5_S7_EEE3endEv@Base 2.9
 _ZNSt3mapINSt7__cxx1112basic_stringIcSt11char_traitsIcESaIcEEEN8LexerCPP11SymbolValueESt4lessIS5_ESaISt4pairIKS5_S7_EEE4findERSB_@Base 2.9
 _ZNSt3mapINSt7__cxx1112basic_stringIcSt11char_traitsIcESaIcEEEN8LexerCPP11SymbolValueESt4lessIS5_ESaISt4pairIKS5_S7_EEE5clearEv@Base 2.9
 _ZNSt3mapINSt7__cxx1112basic_stringIcSt11char_traitsIcESaIcEEEN8LexerCPP11SymbolValueESt4lessIS5_ESaISt4pairIKS5_S7_EEE5eraseERSB_@Base 2.9
 _ZNSt3mapINSt7__cxx1112basic_stringIcSt11char_traitsIcESaIcEEEN8LexerCPP11SymbolValueESt4lessIS5_ESaISt4pairIKS5_S7_EEEC1ERKSE_@Base 2.9
 _ZNSt3mapINSt7__cxx1112basic_stringIcSt11char_traitsIcESaIcEEEN8LexerCPP11SymbolValueESt4lessIS5_ESaISt4pairIKS5_S7_EEEC1Ev@Base 2.9
 _ZNSt3mapINSt7__cxx1112basic_stringIcSt11char_traitsIcESaIcEEEN8LexerCPP11SymbolValueESt4lessIS5_ESaISt4pairIKS5_S7_EEEC2ERKSE_@Base 2.9
 _ZNSt3mapINSt7__cxx1112basic_stringIcSt11char_traitsIcESaIcEEEN8LexerCPP11SymbolValueESt4lessIS5_ESaISt4pairIKS5_S7_EEEC2Ev@Base 2.9
 _ZNSt3mapINSt7__cxx1112basic_stringIcSt11char_traitsIcESaIcEEEN8LexerCPP11SymbolValueESt4lessIS5_ESaISt4pairIKS5_S7_EEED1Ev@Base 2.9
 _ZNSt3mapINSt7__cxx1112basic_stringIcSt11char_traitsIcESaIcEEEN8LexerCPP11SymbolValueESt4lessIS5_ESaISt4pairIKS5_S7_EEED2Ev@Base 2.9
 _ZNSt3mapINSt7__cxx1112basic_stringIcSt11char_traitsIcESaIcEEEN8LexerCPP11SymbolValueESt4lessIS5_ESaISt4pairIKS5_S7_EEEixERSB_@Base 2.9
 _ZNSt3mapINSt7__cxx1112basic_stringIcSt11char_traitsIcESaIcEEEN9OptionSetI10OptionsAsmE6OptionESt4lessIS5_ESaISt4pairIKS5_S9_EEE11lower_boundERSD_@Base 2.9
 _ZNSt3mapINSt7__cxx1112basic_stringIcSt11char_traitsIcESaIcEEEN9OptionSetI10OptionsAsmE6OptionESt4lessIS5_ESaISt4pairIKS5_S9_EEE3endEv@Base 2.9
 _ZNSt3mapINSt7__cxx1112basic_stringIcSt11char_traitsIcESaIcEEEN9OptionSetI10OptionsAsmE6OptionESt4lessIS5_ESaISt4pairIKS5_S9_EEE4findERSD_@Base 2.9
 _ZNSt3mapINSt7__cxx1112basic_stringIcSt11char_traitsIcESaIcEEEN9OptionSetI10OptionsAsmE6OptionESt4lessIS5_ESaISt4pairIKS5_S9_EEEC1Ev@Base 2.9
 _ZNSt3mapINSt7__cxx1112basic_stringIcSt11char_traitsIcESaIcEEEN9OptionSetI10OptionsAsmE6OptionESt4lessIS5_ESaISt4pairIKS5_S9_EEEC2Ev@Base 2.9
 _ZNSt3mapINSt7__cxx1112basic_stringIcSt11char_traitsIcESaIcEEEN9OptionSetI10OptionsAsmE6OptionESt4lessIS5_ESaISt4pairIKS5_S9_EEED1Ev@Base 2.9
 _ZNSt3mapINSt7__cxx1112basic_stringIcSt11char_traitsIcESaIcEEEN9OptionSetI10OptionsAsmE6OptionESt4lessIS5_ESaISt4pairIKS5_S9_EEED2Ev@Base 2.9
 _ZNSt3mapINSt7__cxx1112basic_stringIcSt11char_traitsIcESaIcEEEN9OptionSetI10OptionsAsmE6OptionESt4lessIS5_ESaISt4pairIKS5_S9_EEEixEOS5_@Base 2.9.2+dfsg
 _ZNSt3mapINSt7__cxx1112basic_stringIcSt11char_traitsIcESaIcEEEN9OptionSetI10OptionsSQLE6OptionESt4lessIS5_ESaISt4pairIKS5_S9_EEE11lower_boundERSD_@Base 2.9
 _ZNSt3mapINSt7__cxx1112basic_stringIcSt11char_traitsIcESaIcEEEN9OptionSetI10OptionsSQLE6OptionESt4lessIS5_ESaISt4pairIKS5_S9_EEE3endEv@Base 2.9
 _ZNSt3mapINSt7__cxx1112basic_stringIcSt11char_traitsIcESaIcEEEN9OptionSetI10OptionsSQLE6OptionESt4lessIS5_ESaISt4pairIKS5_S9_EEE4findERSD_@Base 2.9
 _ZNSt3mapINSt7__cxx1112basic_stringIcSt11char_traitsIcESaIcEEEN9OptionSetI10OptionsSQLE6OptionESt4lessIS5_ESaISt4pairIKS5_S9_EEEC1Ev@Base 2.9
 _ZNSt3mapINSt7__cxx1112basic_stringIcSt11char_traitsIcESaIcEEEN9OptionSetI10OptionsSQLE6OptionESt4lessIS5_ESaISt4pairIKS5_S9_EEEC2Ev@Base 2.9
 _ZNSt3mapINSt7__cxx1112basic_stringIcSt11char_traitsIcESaIcEEEN9OptionSetI10OptionsSQLE6OptionESt4lessIS5_ESaISt4pairIKS5_S9_EEED1Ev@Base 2.9
 _ZNSt3mapINSt7__cxx1112basic_stringIcSt11char_traitsIcESaIcEEEN9OptionSetI10OptionsSQLE6OptionESt4lessIS5_ESaISt4pairIKS5_S9_EEED2Ev@Base 2.9
 _ZNSt3mapINSt7__cxx1112basic_stringIcSt11char_traitsIcESaIcEEEN9OptionSetI10OptionsSQLE6OptionESt4lessIS5_ESaISt4pairIKS5_S9_EEEixEOS5_@Base 2.9.2+dfsg
 _ZNSt3mapINSt7__cxx1112basic_stringIcSt11char_traitsIcESaIcEEEN9OptionSetI11OptionsPerlE6OptionESt4lessIS5_ESaISt4pairIKS5_S9_EEE11lower_boundERSD_@Base 2.9
 _ZNSt3mapINSt7__cxx1112basic_stringIcSt11char_traitsIcESaIcEEEN9OptionSetI11OptionsPerlE6OptionESt4lessIS5_ESaISt4pairIKS5_S9_EEE3endEv@Base 2.9
 _ZNSt3mapINSt7__cxx1112basic_stringIcSt11char_traitsIcESaIcEEEN9OptionSetI11OptionsPerlE6OptionESt4lessIS5_ESaISt4pairIKS5_S9_EEE4findERSD_@Base 2.9
 _ZNSt3mapINSt7__cxx1112basic_stringIcSt11char_traitsIcESaIcEEEN9OptionSetI11OptionsPerlE6OptionESt4lessIS5_ESaISt4pairIKS5_S9_EEEC1Ev@Base 2.9
 _ZNSt3mapINSt7__cxx1112basic_stringIcSt11char_traitsIcESaIcEEEN9OptionSetI11OptionsPerlE6OptionESt4lessIS5_ESaISt4pairIKS5_S9_EEEC2Ev@Base 2.9
 _ZNSt3mapINSt7__cxx1112basic_stringIcSt11char_traitsIcESaIcEEEN9OptionSetI11OptionsPerlE6OptionESt4lessIS5_ESaISt4pairIKS5_S9_EEED1Ev@Base 2.9
 _ZNSt3mapINSt7__cxx1112basic_stringIcSt11char_traitsIcESaIcEEEN9OptionSetI11OptionsPerlE6OptionESt4lessIS5_ESaISt4pairIKS5_S9_EEED2Ev@Base 2.9
 _ZNSt3mapINSt7__cxx1112basic_stringIcSt11char_traitsIcESaIcEEEN9OptionSetI11OptionsPerlE6OptionESt4lessIS5_ESaISt4pairIKS5_S9_EEEixEOS5_@Base 2.9.2+dfsg
 _ZNSt3mapINSt7__cxx1112basic_stringIcSt11char_traitsIcESaIcEEEN9OptionSetI11OptionsRustE6OptionESt4lessIS5_ESaISt4pairIKS5_S9_EEE11lower_boundERSD_@Base 2.9
 _ZNSt3mapINSt7__cxx1112basic_stringIcSt11char_traitsIcESaIcEEEN9OptionSetI11OptionsRustE6OptionESt4lessIS5_ESaISt4pairIKS5_S9_EEE3endEv@Base 2.9
 _ZNSt3mapINSt7__cxx1112basic_stringIcSt11char_traitsIcESaIcEEEN9OptionSetI11OptionsRustE6OptionESt4lessIS5_ESaISt4pairIKS5_S9_EEE4findERSD_@Base 2.9
 _ZNSt3mapINSt7__cxx1112basic_stringIcSt11char_traitsIcESaIcEEEN9OptionSetI11OptionsRustE6OptionESt4lessIS5_ESaISt4pairIKS5_S9_EEEC1Ev@Base 2.9
 _ZNSt3mapINSt7__cxx1112basic_stringIcSt11char_traitsIcESaIcEEEN9OptionSetI11OptionsRustE6OptionESt4lessIS5_ESaISt4pairIKS5_S9_EEEC2Ev@Base 2.9
 _ZNSt3mapINSt7__cxx1112basic_stringIcSt11char_traitsIcESaIcEEEN9OptionSetI11OptionsRustE6OptionESt4lessIS5_ESaISt4pairIKS5_S9_EEED1Ev@Base 2.9
 _ZNSt3mapINSt7__cxx1112basic_stringIcSt11char_traitsIcESaIcEEEN9OptionSetI11OptionsRustE6OptionESt4lessIS5_ESaISt4pairIKS5_S9_EEED2Ev@Base 2.9
 _ZNSt3mapINSt7__cxx1112basic_stringIcSt11char_traitsIcESaIcEEEN9OptionSetI11OptionsRustE6OptionESt4lessIS5_ESaISt4pairIKS5_S9_EEEixEOS5_@Base 2.9.2+dfsg
 _ZNSt3mapINSt7__cxx1112basic_stringIcSt11char_traitsIcESaIcEEEN9OptionSetI12OptionsBasicE6OptionESt4lessIS5_ESaISt4pairIKS5_S9_EEE11lower_boundERSD_@Base 2.9
 _ZNSt3mapINSt7__cxx1112basic_stringIcSt11char_traitsIcESaIcEEEN9OptionSetI12OptionsBasicE6OptionESt4lessIS5_ESaISt4pairIKS5_S9_EEE3endEv@Base 2.9
 _ZNSt3mapINSt7__cxx1112basic_stringIcSt11char_traitsIcESaIcEEEN9OptionSetI12OptionsBasicE6OptionESt4lessIS5_ESaISt4pairIKS5_S9_EEE4findERSD_@Base 2.9
 _ZNSt3mapINSt7__cxx1112basic_stringIcSt11char_traitsIcESaIcEEEN9OptionSetI12OptionsBasicE6OptionESt4lessIS5_ESaISt4pairIKS5_S9_EEEC1Ev@Base 2.9
 _ZNSt3mapINSt7__cxx1112basic_stringIcSt11char_traitsIcESaIcEEEN9OptionSetI12OptionsBasicE6OptionESt4lessIS5_ESaISt4pairIKS5_S9_EEEC2Ev@Base 2.9
 _ZNSt3mapINSt7__cxx1112basic_stringIcSt11char_traitsIcESaIcEEEN9OptionSetI12OptionsBasicE6OptionESt4lessIS5_ESaISt4pairIKS5_S9_EEED1Ev@Base 2.9
 _ZNSt3mapINSt7__cxx1112basic_stringIcSt11char_traitsIcESaIcEEEN9OptionSetI12OptionsBasicE6OptionESt4lessIS5_ESaISt4pairIKS5_S9_EEED2Ev@Base 2.9
 _ZNSt3mapINSt7__cxx1112basic_stringIcSt11char_traitsIcESaIcEEEN9OptionSetI12OptionsBasicE6OptionESt4lessIS5_ESaISt4pairIKS5_S9_EEEixEOS5_@Base 2.9.2+dfsg
 _ZNSt3mapINSt7__cxx1112basic_stringIcSt11char_traitsIcESaIcEEEN9OptionSetI14OptionsHaskellE6OptionESt4lessIS5_ESaISt4pairIKS5_S9_EEE11lower_boundERSD_@Base 2.9
 _ZNSt3mapINSt7__cxx1112basic_stringIcSt11char_traitsIcESaIcEEEN9OptionSetI14OptionsHaskellE6OptionESt4lessIS5_ESaISt4pairIKS5_S9_EEE3endEv@Base 2.9
 _ZNSt3mapINSt7__cxx1112basic_stringIcSt11char_traitsIcESaIcEEEN9OptionSetI14OptionsHaskellE6OptionESt4lessIS5_ESaISt4pairIKS5_S9_EEE4findERSD_@Base 2.9
 _ZNSt3mapINSt7__cxx1112basic_stringIcSt11char_traitsIcESaIcEEEN9OptionSetI14OptionsHaskellE6OptionESt4lessIS5_ESaISt4pairIKS5_S9_EEEC1Ev@Base 2.9
 _ZNSt3mapINSt7__cxx1112basic_stringIcSt11char_traitsIcESaIcEEEN9OptionSetI14OptionsHaskellE6OptionESt4lessIS5_ESaISt4pairIKS5_S9_EEEC2Ev@Base 2.9
 _ZNSt3mapINSt7__cxx1112basic_stringIcSt11char_traitsIcESaIcEEEN9OptionSetI14OptionsHaskellE6OptionESt4lessIS5_ESaISt4pairIKS5_S9_EEED1Ev@Base 2.9
 _ZNSt3mapINSt7__cxx1112basic_stringIcSt11char_traitsIcESaIcEEEN9OptionSetI14OptionsHaskellE6OptionESt4lessIS5_ESaISt4pairIKS5_S9_EEED2Ev@Base 2.9
 _ZNSt3mapINSt7__cxx1112basic_stringIcSt11char_traitsIcESaIcEEEN9OptionSetI14OptionsHaskellE6OptionESt4lessIS5_ESaISt4pairIKS5_S9_EEEixEOS5_@Base 2.9.2+dfsg
 _ZNSt3mapINSt7__cxx1112basic_stringIcSt11char_traitsIcESaIcEEEN9OptionSetI15OptionsRegistryE6OptionESt4lessIS5_ESaISt4pairIKS5_S9_EEE11lower_boundERSD_@Base 2.9
 _ZNSt3mapINSt7__cxx1112basic_stringIcSt11char_traitsIcESaIcEEEN9OptionSetI15OptionsRegistryE6OptionESt4lessIS5_ESaISt4pairIKS5_S9_EEE3endEv@Base 2.9
 _ZNSt3mapINSt7__cxx1112basic_stringIcSt11char_traitsIcESaIcEEEN9OptionSetI15OptionsRegistryE6OptionESt4lessIS5_ESaISt4pairIKS5_S9_EEE4findERSD_@Base 2.9
 _ZNSt3mapINSt7__cxx1112basic_stringIcSt11char_traitsIcESaIcEEEN9OptionSetI15OptionsRegistryE6OptionESt4lessIS5_ESaISt4pairIKS5_S9_EEEC1Ev@Base 2.9
 _ZNSt3mapINSt7__cxx1112basic_stringIcSt11char_traitsIcESaIcEEEN9OptionSetI15OptionsRegistryE6OptionESt4lessIS5_ESaISt4pairIKS5_S9_EEEC2Ev@Base 2.9
 _ZNSt3mapINSt7__cxx1112basic_stringIcSt11char_traitsIcESaIcEEEN9OptionSetI15OptionsRegistryE6OptionESt4lessIS5_ESaISt4pairIKS5_S9_EEED1Ev@Base 2.9
 _ZNSt3mapINSt7__cxx1112basic_stringIcSt11char_traitsIcESaIcEEEN9OptionSetI15OptionsRegistryE6OptionESt4lessIS5_ESaISt4pairIKS5_S9_EEED2Ev@Base 2.9
 _ZNSt3mapINSt7__cxx1112basic_stringIcSt11char_traitsIcESaIcEEEN9OptionSetI15OptionsRegistryE6OptionESt4lessIS5_ESaISt4pairIKS5_S9_EEEixEOS5_@Base 2.9.2+dfsg
 _ZNSt3mapINSt7__cxx1112basic_stringIcSt11char_traitsIcESaIcEEEN9OptionSetI19OptionsVisualPrologE6OptionESt4lessIS5_ESaISt4pairIKS5_S9_EEE3endEv@Base 2.9
 _ZNSt3mapINSt7__cxx1112basic_stringIcSt11char_traitsIcESaIcEEEN9OptionSetI19OptionsVisualPrologE6OptionESt4lessIS5_ESaISt4pairIKS5_S9_EEE4findERSD_@Base 2.9
 _ZNSt3mapINSt7__cxx1112basic_stringIcSt11char_traitsIcESaIcEEEN9OptionSetI19OptionsVisualPrologE6OptionESt4lessIS5_ESaISt4pairIKS5_S9_EEEC1Ev@Base 2.9
 _ZNSt3mapINSt7__cxx1112basic_stringIcSt11char_traitsIcESaIcEEEN9OptionSetI19OptionsVisualPrologE6OptionESt4lessIS5_ESaISt4pairIKS5_S9_EEEC2Ev@Base 2.9
 _ZNSt3mapINSt7__cxx1112basic_stringIcSt11char_traitsIcESaIcEEEN9OptionSetI19OptionsVisualPrologE6OptionESt4lessIS5_ESaISt4pairIKS5_S9_EEED1Ev@Base 2.9
 _ZNSt3mapINSt7__cxx1112basic_stringIcSt11char_traitsIcESaIcEEEN9OptionSetI19OptionsVisualPrologE6OptionESt4lessIS5_ESaISt4pairIKS5_S9_EEED2Ev@Base 2.9
 _ZNSt3mapINSt7__cxx1112basic_stringIcSt11char_traitsIcESaIcEEEN9OptionSetI8OptionsDE6OptionESt4lessIS5_ESaISt4pairIKS5_S9_EEE11lower_boundERSD_@Base 2.9
 _ZNSt3mapINSt7__cxx1112basic_stringIcSt11char_traitsIcESaIcEEEN9OptionSetI8OptionsDE6OptionESt4lessIS5_ESaISt4pairIKS5_S9_EEE3endEv@Base 2.9
 _ZNSt3mapINSt7__cxx1112basic_stringIcSt11char_traitsIcESaIcEEEN9OptionSetI8OptionsDE6OptionESt4lessIS5_ESaISt4pairIKS5_S9_EEE4findERSD_@Base 2.9
 _ZNSt3mapINSt7__cxx1112basic_stringIcSt11char_traitsIcESaIcEEEN9OptionSetI8OptionsDE6OptionESt4lessIS5_ESaISt4pairIKS5_S9_EEEC1Ev@Base 2.9
 _ZNSt3mapINSt7__cxx1112basic_stringIcSt11char_traitsIcESaIcEEEN9OptionSetI8OptionsDE6OptionESt4lessIS5_ESaISt4pairIKS5_S9_EEEC2Ev@Base 2.9
 _ZNSt3mapINSt7__cxx1112basic_stringIcSt11char_traitsIcESaIcEEEN9OptionSetI8OptionsDE6OptionESt4lessIS5_ESaISt4pairIKS5_S9_EEED1Ev@Base 2.9
 _ZNSt3mapINSt7__cxx1112basic_stringIcSt11char_traitsIcESaIcEEEN9OptionSetI8OptionsDE6OptionESt4lessIS5_ESaISt4pairIKS5_S9_EEED2Ev@Base 2.9
 _ZNSt3mapINSt7__cxx1112basic_stringIcSt11char_traitsIcESaIcEEEN9OptionSetI8OptionsDE6OptionESt4lessIS5_ESaISt4pairIKS5_S9_EEEixEOS5_@Base 2.9.2+dfsg
 _ZNSt3mapINSt7__cxx1112basic_stringIcSt11char_traitsIcESaIcEEES5_St4lessIS5_ESaISt4pairIKS5_S5_EEE11lower_boundERS9_@Base 2.9
 _ZNSt3mapINSt7__cxx1112basic_stringIcSt11char_traitsIcESaIcEEES5_St4lessIS5_ESaISt4pairIKS5_S5_EEE3endEv@Base 2.9
 _ZNSt3mapINSt7__cxx1112basic_stringIcSt11char_traitsIcESaIcEEES5_St4lessIS5_ESaISt4pairIKS5_S5_EEE4findERS9_@Base 2.9
 _ZNSt3mapINSt7__cxx1112basic_stringIcSt11char_traitsIcESaIcEEES5_St4lessIS5_ESaISt4pairIKS5_S5_EEEC1Ev@Base 2.9
 _ZNSt3mapINSt7__cxx1112basic_stringIcSt11char_traitsIcESaIcEEES5_St4lessIS5_ESaISt4pairIKS5_S5_EEEC2Ev@Base 2.9
 _ZNSt3mapINSt7__cxx1112basic_stringIcSt11char_traitsIcESaIcEEES5_St4lessIS5_ESaISt4pairIKS5_S5_EEED1Ev@Base 2.9
 _ZNSt3mapINSt7__cxx1112basic_stringIcSt11char_traitsIcESaIcEEES5_St4lessIS5_ESaISt4pairIKS5_S5_EEED2Ev@Base 2.9
 _ZNSt3mapINSt7__cxx1112basic_stringIcSt11char_traitsIcESaIcEEES5_St4lessIS5_ESaISt4pairIKS5_S5_EEEixEOS5_@Base 2.9.2+dfsg
 _ZNSt3mapINSt7__cxx1112basic_stringIcSt11char_traitsIcESaIcEEES5_St4lessIS5_ESaISt4pairIKS5_S5_EEEixERS9_@Base 2.9
 _ZNSt3mapINSt7__cxx1112basic_stringIcSt11char_traitsIcESaIcEEEiSt4lessIS5_ESaISt4pairIKS5_iEEE11lower_boundERS9_@Base 2.9
 _ZNSt3mapINSt7__cxx1112basic_stringIcSt11char_traitsIcESaIcEEEiSt4lessIS5_ESaISt4pairIKS5_iEEE3endEv@Base 2.9
 _ZNSt3mapINSt7__cxx1112basic_stringIcSt11char_traitsIcESaIcEEEiSt4lessIS5_ESaISt4pairIKS5_iEEE5clearEv@Base 2.9
 _ZNSt3mapINSt7__cxx1112basic_stringIcSt11char_traitsIcESaIcEEEiSt4lessIS5_ESaISt4pairIKS5_iEEEC1EOSC_@Base 2.9.2+dfsg
 _ZNSt3mapINSt7__cxx1112basic_stringIcSt11char_traitsIcESaIcEEEiSt4lessIS5_ESaISt4pairIKS5_iEEEC1Ev@Base 2.9
 _ZNSt3mapINSt7__cxx1112basic_stringIcSt11char_traitsIcESaIcEEEiSt4lessIS5_ESaISt4pairIKS5_iEEEC2EOSC_@Base 2.9.2+dfsg
 _ZNSt3mapINSt7__cxx1112basic_stringIcSt11char_traitsIcESaIcEEEiSt4lessIS5_ESaISt4pairIKS5_iEEEC2Ev@Base 2.9
 _ZNSt3mapINSt7__cxx1112basic_stringIcSt11char_traitsIcESaIcEEEiSt4lessIS5_ESaISt4pairIKS5_iEEED1Ev@Base 2.9
 _ZNSt3mapINSt7__cxx1112basic_stringIcSt11char_traitsIcESaIcEEEiSt4lessIS5_ESaISt4pairIKS5_iEEED2Ev@Base 2.9
 _ZNSt3mapINSt7__cxx1112basic_stringIcSt11char_traitsIcESaIcEEEiSt4lessIS5_ESaISt4pairIKS5_iEEEixERS9_@Base 2.9
 _ZNSt3mapIi14RepresentationSt4lessIiESaISt4pairIKiS0_EEE11lower_boundERS4_@Base 2.8.4
 _ZNSt3mapIi14RepresentationSt4lessIiESaISt4pairIKiS0_EEE3endEv@Base 2.8.4
 _ZNSt3mapIi14RepresentationSt4lessIiESaISt4pairIKiS0_EEE4findERS4_@Base 2.8.4
 _ZNSt3mapIi14RepresentationSt4lessIiESaISt4pairIKiS0_EEE5clearEv@Base 2.8.4
 _ZNSt3mapIi14RepresentationSt4lessIiESaISt4pairIKiS0_EEE5eraseB5cxx11ESt17_Rb_tree_iteratorIS5_E@Base 2.9.2+dfsg
 _ZNSt3mapIi14RepresentationSt4lessIiESaISt4pairIKiS0_EEEC1Ev@Base 2.8.4
 _ZNSt3mapIi14RepresentationSt4lessIiESaISt4pairIKiS0_EEEC2Ev@Base 2.8.4
 _ZNSt3mapIi14RepresentationSt4lessIiESaISt4pairIKiS0_EEED1Ev@Base 2.8.4
 _ZNSt3mapIi14RepresentationSt4lessIiESaISt4pairIKiS0_EEED2Ev@Base 2.8.4
 _ZNSt3mapIi14RepresentationSt4lessIiESaISt4pairIKiS0_EEEixEOi@Base 2.9.2+dfsg
 _ZNSt3mapIiiSt4lessIiESaISt4pairIKiiEEE11lower_boundERS3_@Base 2.9
 _ZNSt3mapIiiSt4lessIiESaISt4pairIKiiEEE11upper_boundERS3_@Base 2.9
 _ZNSt3mapIiiSt4lessIiESaISt4pairIKiiEEE3endEv@Base 2.9
 _ZNSt3mapIiiSt4lessIiESaISt4pairIKiiEEE4findERS3_@Base 2.9
 _ZNSt3mapIiiSt4lessIiESaISt4pairIKiiEEE5eraseESt23_Rb_tree_const_iteratorIS4_ES8_@Base 2.9.2+dfsg
 _ZNSt3mapIiiSt4lessIiESaISt4pairIKiiEEEC1Ev@Base 2.9
 _ZNSt3mapIiiSt4lessIiESaISt4pairIKiiEEEC2Ev@Base 2.9
 _ZNSt3mapIiiSt4lessIiESaISt4pairIKiiEEED1Ev@Base 2.9
 _ZNSt3mapIiiSt4lessIiESaISt4pairIKiiEEED2Ev@Base 2.9
 _ZNSt3mapIiiSt4lessIiESaISt4pairIKiiEEEixERS3_@Base 2.9
 _ZNSt4pairIK12KeyModifiersjEC1IJOS0_EJEEESt21piecewise_construct_tSt5tupleIJDpT_EES6_IJDpT0_EE@Base 2.9.2+dfsg
 _ZNSt4pairIK12KeyModifiersjEC1IJOS0_EJLj0EEJEJEEERSt5tupleIJDpT_EERS5_IJDpT1_EESt12_Index_tupleIJXspT0_EEESE_IJXspT2_EEE@Base 2.9.2+dfsg
 _ZNSt4pairIK12KeyModifiersjEC2IJOS0_EJEEESt21piecewise_construct_tSt5tupleIJDpT_EES6_IJDpT0_EE@Base 2.9.2+dfsg
 _ZNSt4pairIK12KeyModifiersjEC2IJOS0_EJLj0EEJEJEEERSt5tupleIJDpT_EERS5_IJDpT1_EESt12_Index_tupleIJXspT0_EEESE_IJXspT2_EEE@Base 2.9.2+dfsg
 _ZNSt4pairIK17FontSpecificationP12FontRealisedEC1IJRS1_EJEEESt21piecewise_construct_tSt5tupleIJDpT_EES8_IJDpT0_EE@Base 2.9.2+dfsg
 _ZNSt4pairIK17FontSpecificationP12FontRealisedEC1IJRS1_EJLj0EEJEJEEERSt5tupleIJDpT_EERS7_IJDpT1_EESt12_Index_tupleIJXspT0_EEESG_IJXspT2_EEE@Base 2.9.2+dfsg
 _ZNSt4pairIK17FontSpecificationP12FontRealisedEC2IJRS1_EJEEESt21piecewise_construct_tSt5tupleIJDpT_EES8_IJDpT0_EE@Base 2.9.2+dfsg
 _ZNSt4pairIK17FontSpecificationP12FontRealisedEC2IJRS1_EJLj0EEJEJEEERSt5tupleIJDpT_EERS7_IJDpT1_EESt12_Index_tupleIJXspT0_EEESG_IJXspT2_EEE@Base 2.9.2+dfsg
 _ZNSt4pairIKNSt7__cxx1112basic_stringIcSt11char_traitsIcESaIcEEEN12LexerVerilog11SymbolValueEEC1ERKS9_@Base 2.9
 _ZNSt4pairIKNSt7__cxx1112basic_stringIcSt11char_traitsIcESaIcEEEN12LexerVerilog11SymbolValueEEC1IJRS6_EJEEESt21piecewise_construct_tSt5tupleIJDpT_EESD_IJDpT0_EE@Base 2.9.2+dfsg
 _ZNSt4pairIKNSt7__cxx1112basic_stringIcSt11char_traitsIcESaIcEEEN12LexerVerilog11SymbolValueEEC1IJRS6_EJLj0EEJEJEEERSt5tupleIJDpT_EERSC_IJDpT1_EESt12_Index_tupleIJXspT0_EEESL_IJXspT2_EEE@Base 2.9.2+dfsg
 _ZNSt4pairIKNSt7__cxx1112basic_stringIcSt11char_traitsIcESaIcEEEN12LexerVerilog11SymbolValueEEC2ERKS9_@Base 2.9
 _ZNSt4pairIKNSt7__cxx1112basic_stringIcSt11char_traitsIcESaIcEEEN12LexerVerilog11SymbolValueEEC2IJRS6_EJEEESt21piecewise_construct_tSt5tupleIJDpT_EESD_IJDpT0_EE@Base 2.9.2+dfsg
 _ZNSt4pairIKNSt7__cxx1112basic_stringIcSt11char_traitsIcESaIcEEEN12LexerVerilog11SymbolValueEEC2IJRS6_EJLj0EEJEJEEERSt5tupleIJDpT_EERSC_IJDpT1_EESt12_Index_tupleIJXspT0_EEESL_IJXspT2_EEE@Base 2.9.2+dfsg
 _ZNSt4pairIKNSt7__cxx1112basic_stringIcSt11char_traitsIcESaIcEEEN12LexerVerilog11SymbolValueEED1Ev@Base 2.9
 _ZNSt4pairIKNSt7__cxx1112basic_stringIcSt11char_traitsIcESaIcEEEN12LexerVerilog11SymbolValueEED2Ev@Base 2.9
 _ZNSt4pairIKNSt7__cxx1112basic_stringIcSt11char_traitsIcESaIcEEEN8LexerCPP11SymbolValueEEC1ERKS9_@Base 2.9
 _ZNSt4pairIKNSt7__cxx1112basic_stringIcSt11char_traitsIcESaIcEEEN8LexerCPP11SymbolValueEEC1IJRS6_EJEEESt21piecewise_construct_tSt5tupleIJDpT_EESD_IJDpT0_EE@Base 2.9.2+dfsg
 _ZNSt4pairIKNSt7__cxx1112basic_stringIcSt11char_traitsIcESaIcEEEN8LexerCPP11SymbolValueEEC1IJRS6_EJLj0EEJEJEEERSt5tupleIJDpT_EERSC_IJDpT1_EESt12_Index_tupleIJXspT0_EEESL_IJXspT2_EEE@Base 2.9.2+dfsg
 _ZNSt4pairIKNSt7__cxx1112basic_stringIcSt11char_traitsIcESaIcEEEN8LexerCPP11SymbolValueEEC2ERKS9_@Base 2.9
 _ZNSt4pairIKNSt7__cxx1112basic_stringIcSt11char_traitsIcESaIcEEEN8LexerCPP11SymbolValueEEC2IJRS6_EJEEESt21piecewise_construct_tSt5tupleIJDpT_EESD_IJDpT0_EE@Base 2.9.2+dfsg
 _ZNSt4pairIKNSt7__cxx1112basic_stringIcSt11char_traitsIcESaIcEEEN8LexerCPP11SymbolValueEEC2IJRS6_EJLj0EEJEJEEERSt5tupleIJDpT_EERSC_IJDpT1_EESt12_Index_tupleIJXspT0_EEESL_IJXspT2_EEE@Base 2.9.2+dfsg
 _ZNSt4pairIKNSt7__cxx1112basic_stringIcSt11char_traitsIcESaIcEEEN8LexerCPP11SymbolValueEED1Ev@Base 2.9
 _ZNSt4pairIKNSt7__cxx1112basic_stringIcSt11char_traitsIcESaIcEEEN8LexerCPP11SymbolValueEED2Ev@Base 2.9
 _ZNSt4pairIKNSt7__cxx1112basic_stringIcSt11char_traitsIcESaIcEEEN9OptionSetI10OptionsAsmE6OptionEEC1IJOS5_EJEEESt21piecewise_construct_tSt5tupleIJDpT_EESF_IJDpT0_EE@Base 2.9.2+dfsg
 _ZNSt4pairIKNSt7__cxx1112basic_stringIcSt11char_traitsIcESaIcEEEN9OptionSetI10OptionsAsmE6OptionEEC1IJOS5_EJLj0EEJEJEEERSt5tupleIJDpT_EERSE_IJDpT1_EESt12_Index_tupleIJXspT0_EEESN_IJXspT2_EEE@Base 2.9.2+dfsg
 _ZNSt4pairIKNSt7__cxx1112basic_stringIcSt11char_traitsIcESaIcEEEN9OptionSetI10OptionsAsmE6OptionEEC2IJOS5_EJEEESt21piecewise_construct_tSt5tupleIJDpT_EESF_IJDpT0_EE@Base 2.9.2+dfsg
 _ZNSt4pairIKNSt7__cxx1112basic_stringIcSt11char_traitsIcESaIcEEEN9OptionSetI10OptionsAsmE6OptionEEC2IJOS5_EJLj0EEJEJEEERSt5tupleIJDpT_EERSE_IJDpT1_EESt12_Index_tupleIJXspT0_EEESN_IJXspT2_EEE@Base 2.9.2+dfsg
 _ZNSt4pairIKNSt7__cxx1112basic_stringIcSt11char_traitsIcESaIcEEEN9OptionSetI10OptionsAsmE6OptionEED1Ev@Base 2.9
 _ZNSt4pairIKNSt7__cxx1112basic_stringIcSt11char_traitsIcESaIcEEEN9OptionSetI10OptionsAsmE6OptionEED2Ev@Base 2.9
 _ZNSt4pairIKNSt7__cxx1112basic_stringIcSt11char_traitsIcESaIcEEEN9OptionSetI10OptionsSQLE6OptionEEC1IJOS5_EJEEESt21piecewise_construct_tSt5tupleIJDpT_EESF_IJDpT0_EE@Base 2.9.2+dfsg
 _ZNSt4pairIKNSt7__cxx1112basic_stringIcSt11char_traitsIcESaIcEEEN9OptionSetI10OptionsSQLE6OptionEEC1IJOS5_EJLj0EEJEJEEERSt5tupleIJDpT_EERSE_IJDpT1_EESt12_Index_tupleIJXspT0_EEESN_IJXspT2_EEE@Base 2.9.2+dfsg
 _ZNSt4pairIKNSt7__cxx1112basic_stringIcSt11char_traitsIcESaIcEEEN9OptionSetI10OptionsSQLE6OptionEEC2IJOS5_EJEEESt21piecewise_construct_tSt5tupleIJDpT_EESF_IJDpT0_EE@Base 2.9.2+dfsg
 _ZNSt4pairIKNSt7__cxx1112basic_stringIcSt11char_traitsIcESaIcEEEN9OptionSetI10OptionsSQLE6OptionEEC2IJOS5_EJLj0EEJEJEEERSt5tupleIJDpT_EERSE_IJDpT1_EESt12_Index_tupleIJXspT0_EEESN_IJXspT2_EEE@Base 2.9.2+dfsg
 _ZNSt4pairIKNSt7__cxx1112basic_stringIcSt11char_traitsIcESaIcEEEN9OptionSetI10OptionsSQLE6OptionEED1Ev@Base 2.9
 _ZNSt4pairIKNSt7__cxx1112basic_stringIcSt11char_traitsIcESaIcEEEN9OptionSetI10OptionsSQLE6OptionEED2Ev@Base 2.9
 _ZNSt4pairIKNSt7__cxx1112basic_stringIcSt11char_traitsIcESaIcEEEN9OptionSetI11OptionsPerlE6OptionEEC1IJOS5_EJEEESt21piecewise_construct_tSt5tupleIJDpT_EESF_IJDpT0_EE@Base 2.9.2+dfsg
 _ZNSt4pairIKNSt7__cxx1112basic_stringIcSt11char_traitsIcESaIcEEEN9OptionSetI11OptionsPerlE6OptionEEC1IJOS5_EJLj0EEJEJEEERSt5tupleIJDpT_EERSE_IJDpT1_EESt12_Index_tupleIJXspT0_EEESN_IJXspT2_EEE@Base 2.9.2+dfsg
 _ZNSt4pairIKNSt7__cxx1112basic_stringIcSt11char_traitsIcESaIcEEEN9OptionSetI11OptionsPerlE6OptionEEC2IJOS5_EJEEESt21piecewise_construct_tSt5tupleIJDpT_EESF_IJDpT0_EE@Base 2.9.2+dfsg
 _ZNSt4pairIKNSt7__cxx1112basic_stringIcSt11char_traitsIcESaIcEEEN9OptionSetI11OptionsPerlE6OptionEEC2IJOS5_EJLj0EEJEJEEERSt5tupleIJDpT_EERSE_IJDpT1_EESt12_Index_tupleIJXspT0_EEESN_IJXspT2_EEE@Base 2.9.2+dfsg
 _ZNSt4pairIKNSt7__cxx1112basic_stringIcSt11char_traitsIcESaIcEEEN9OptionSetI11OptionsPerlE6OptionEED1Ev@Base 2.9
 _ZNSt4pairIKNSt7__cxx1112basic_stringIcSt11char_traitsIcESaIcEEEN9OptionSetI11OptionsPerlE6OptionEED2Ev@Base 2.9
 _ZNSt4pairIKNSt7__cxx1112basic_stringIcSt11char_traitsIcESaIcEEEN9OptionSetI11OptionsRustE6OptionEEC1IJOS5_EJEEESt21piecewise_construct_tSt5tupleIJDpT_EESF_IJDpT0_EE@Base 2.9.2+dfsg
 _ZNSt4pairIKNSt7__cxx1112basic_stringIcSt11char_traitsIcESaIcEEEN9OptionSetI11OptionsRustE6OptionEEC1IJOS5_EJLj0EEJEJEEERSt5tupleIJDpT_EERSE_IJDpT1_EESt12_Index_tupleIJXspT0_EEESN_IJXspT2_EEE@Base 2.9.2+dfsg
 _ZNSt4pairIKNSt7__cxx1112basic_stringIcSt11char_traitsIcESaIcEEEN9OptionSetI11OptionsRustE6OptionEEC2IJOS5_EJEEESt21piecewise_construct_tSt5tupleIJDpT_EESF_IJDpT0_EE@Base 2.9.2+dfsg
 _ZNSt4pairIKNSt7__cxx1112basic_stringIcSt11char_traitsIcESaIcEEEN9OptionSetI11OptionsRustE6OptionEEC2IJOS5_EJLj0EEJEJEEERSt5tupleIJDpT_EERSE_IJDpT1_EESt12_Index_tupleIJXspT0_EEESN_IJXspT2_EEE@Base 2.9.2+dfsg
 _ZNSt4pairIKNSt7__cxx1112basic_stringIcSt11char_traitsIcESaIcEEEN9OptionSetI11OptionsRustE6OptionEED1Ev@Base 2.9
 _ZNSt4pairIKNSt7__cxx1112basic_stringIcSt11char_traitsIcESaIcEEEN9OptionSetI11OptionsRustE6OptionEED2Ev@Base 2.9
 _ZNSt4pairIKNSt7__cxx1112basic_stringIcSt11char_traitsIcESaIcEEEN9OptionSetI12OptionsBasicE6OptionEEC1IJOS5_EJEEESt21piecewise_construct_tSt5tupleIJDpT_EESF_IJDpT0_EE@Base 2.9.2+dfsg
 _ZNSt4pairIKNSt7__cxx1112basic_stringIcSt11char_traitsIcESaIcEEEN9OptionSetI12OptionsBasicE6OptionEEC1IJOS5_EJLj0EEJEJEEERSt5tupleIJDpT_EERSE_IJDpT1_EESt12_Index_tupleIJXspT0_EEESN_IJXspT2_EEE@Base 2.9.2+dfsg
 _ZNSt4pairIKNSt7__cxx1112basic_stringIcSt11char_traitsIcESaIcEEEN9OptionSetI12OptionsBasicE6OptionEEC2IJOS5_EJEEESt21piecewise_construct_tSt5tupleIJDpT_EESF_IJDpT0_EE@Base 2.9.2+dfsg
 _ZNSt4pairIKNSt7__cxx1112basic_stringIcSt11char_traitsIcESaIcEEEN9OptionSetI12OptionsBasicE6OptionEEC2IJOS5_EJLj0EEJEJEEERSt5tupleIJDpT_EERSE_IJDpT1_EESt12_Index_tupleIJXspT0_EEESN_IJXspT2_EEE@Base 2.9.2+dfsg
 _ZNSt4pairIKNSt7__cxx1112basic_stringIcSt11char_traitsIcESaIcEEEN9OptionSetI12OptionsBasicE6OptionEED1Ev@Base 2.9
 _ZNSt4pairIKNSt7__cxx1112basic_stringIcSt11char_traitsIcESaIcEEEN9OptionSetI12OptionsBasicE6OptionEED2Ev@Base 2.9
 _ZNSt4pairIKNSt7__cxx1112basic_stringIcSt11char_traitsIcESaIcEEEN9OptionSetI14OptionsHaskellE6OptionEEC1IJOS5_EJEEESt21piecewise_construct_tSt5tupleIJDpT_EESF_IJDpT0_EE@Base 2.9.2+dfsg
 _ZNSt4pairIKNSt7__cxx1112basic_stringIcSt11char_traitsIcESaIcEEEN9OptionSetI14OptionsHaskellE6OptionEEC1IJOS5_EJLj0EEJEJEEERSt5tupleIJDpT_EERSE_IJDpT1_EESt12_Index_tupleIJXspT0_EEESN_IJXspT2_EEE@Base 2.9.2+dfsg
 _ZNSt4pairIKNSt7__cxx1112basic_stringIcSt11char_traitsIcESaIcEEEN9OptionSetI14OptionsHaskellE6OptionEEC2IJOS5_EJEEESt21piecewise_construct_tSt5tupleIJDpT_EESF_IJDpT0_EE@Base 2.9.2+dfsg
 _ZNSt4pairIKNSt7__cxx1112basic_stringIcSt11char_traitsIcESaIcEEEN9OptionSetI14OptionsHaskellE6OptionEEC2IJOS5_EJLj0EEJEJEEERSt5tupleIJDpT_EERSE_IJDpT1_EESt12_Index_tupleIJXspT0_EEESN_IJXspT2_EEE@Base 2.9.2+dfsg
 _ZNSt4pairIKNSt7__cxx1112basic_stringIcSt11char_traitsIcESaIcEEEN9OptionSetI14OptionsHaskellE6OptionEED1Ev@Base 2.9
 _ZNSt4pairIKNSt7__cxx1112basic_stringIcSt11char_traitsIcESaIcEEEN9OptionSetI14OptionsHaskellE6OptionEED2Ev@Base 2.9
 _ZNSt4pairIKNSt7__cxx1112basic_stringIcSt11char_traitsIcESaIcEEEN9OptionSetI15OptionsRegistryE6OptionEEC1IJOS5_EJEEESt21piecewise_construct_tSt5tupleIJDpT_EESF_IJDpT0_EE@Base 2.9.2+dfsg
 _ZNSt4pairIKNSt7__cxx1112basic_stringIcSt11char_traitsIcESaIcEEEN9OptionSetI15OptionsRegistryE6OptionEEC1IJOS5_EJLj0EEJEJEEERSt5tupleIJDpT_EERSE_IJDpT1_EESt12_Index_tupleIJXspT0_EEESN_IJXspT2_EEE@Base 2.9.2+dfsg
 _ZNSt4pairIKNSt7__cxx1112basic_stringIcSt11char_traitsIcESaIcEEEN9OptionSetI15OptionsRegistryE6OptionEEC2IJOS5_EJEEESt21piecewise_construct_tSt5tupleIJDpT_EESF_IJDpT0_EE@Base 2.9.2+dfsg
 _ZNSt4pairIKNSt7__cxx1112basic_stringIcSt11char_traitsIcESaIcEEEN9OptionSetI15OptionsRegistryE6OptionEEC2IJOS5_EJLj0EEJEJEEERSt5tupleIJDpT_EERSE_IJDpT1_EESt12_Index_tupleIJXspT0_EEESN_IJXspT2_EEE@Base 2.9.2+dfsg
 _ZNSt4pairIKNSt7__cxx1112basic_stringIcSt11char_traitsIcESaIcEEEN9OptionSetI15OptionsRegistryE6OptionEED1Ev@Base 2.9
 _ZNSt4pairIKNSt7__cxx1112basic_stringIcSt11char_traitsIcESaIcEEEN9OptionSetI15OptionsRegistryE6OptionEED2Ev@Base 2.9
 _ZNSt4pairIKNSt7__cxx1112basic_stringIcSt11char_traitsIcESaIcEEEN9OptionSetI19OptionsVisualPrologE6OptionEED1Ev@Base 2.9
 _ZNSt4pairIKNSt7__cxx1112basic_stringIcSt11char_traitsIcESaIcEEEN9OptionSetI19OptionsVisualPrologE6OptionEED2Ev@Base 2.9
 _ZNSt4pairIKNSt7__cxx1112basic_stringIcSt11char_traitsIcESaIcEEEN9OptionSetI8OptionsDE6OptionEEC1IJOS5_EJEEESt21piecewise_construct_tSt5tupleIJDpT_EESF_IJDpT0_EE@Base 2.9.2+dfsg
 _ZNSt4pairIKNSt7__cxx1112basic_stringIcSt11char_traitsIcESaIcEEEN9OptionSetI8OptionsDE6OptionEEC1IJOS5_EJLj0EEJEJEEERSt5tupleIJDpT_EERSE_IJDpT1_EESt12_Index_tupleIJXspT0_EEESN_IJXspT2_EEE@Base 2.9.2+dfsg
 _ZNSt4pairIKNSt7__cxx1112basic_stringIcSt11char_traitsIcESaIcEEEN9OptionSetI8OptionsDE6OptionEEC2IJOS5_EJEEESt21piecewise_construct_tSt5tupleIJDpT_EESF_IJDpT0_EE@Base 2.9.2+dfsg
 _ZNSt4pairIKNSt7__cxx1112basic_stringIcSt11char_traitsIcESaIcEEEN9OptionSetI8OptionsDE6OptionEEC2IJOS5_EJLj0EEJEJEEERSt5tupleIJDpT_EERSE_IJDpT1_EESt12_Index_tupleIJXspT0_EEESN_IJXspT2_EEE@Base 2.9.2+dfsg
 _ZNSt4pairIKNSt7__cxx1112basic_stringIcSt11char_traitsIcESaIcEEEN9OptionSetI8OptionsDE6OptionEED1Ev@Base 2.9
 _ZNSt4pairIKNSt7__cxx1112basic_stringIcSt11char_traitsIcESaIcEEEN9OptionSetI8OptionsDE6OptionEED2Ev@Base 2.9
 _ZNSt4pairIKNSt7__cxx1112basic_stringIcSt11char_traitsIcESaIcEEES5_EC1IJOS5_EJEEESt21piecewise_construct_tSt5tupleIJDpT_EESB_IJDpT0_EE@Base 2.9.2+dfsg
 _ZNSt4pairIKNSt7__cxx1112basic_stringIcSt11char_traitsIcESaIcEEES5_EC1IJOS5_EJLj0EEJEJEEERSt5tupleIJDpT_EERSA_IJDpT1_EESt12_Index_tupleIJXspT0_EEESJ_IJXspT2_EEE@Base 2.9.2+dfsg
 _ZNSt4pairIKNSt7__cxx1112basic_stringIcSt11char_traitsIcESaIcEEES5_EC1IJRS6_EJEEESt21piecewise_construct_tSt5tupleIJDpT_EESB_IJDpT0_EE@Base 2.9.2+dfsg
 _ZNSt4pairIKNSt7__cxx1112basic_stringIcSt11char_traitsIcESaIcEEES5_EC1IJRS6_EJLj0EEJEJEEERSt5tupleIJDpT_EERSA_IJDpT1_EESt12_Index_tupleIJXspT0_EEESJ_IJXspT2_EEE@Base 2.9.2+dfsg
 _ZNSt4pairIKNSt7__cxx1112basic_stringIcSt11char_traitsIcESaIcEEES5_EC2IJOS5_EJEEESt21piecewise_construct_tSt5tupleIJDpT_EESB_IJDpT0_EE@Base 2.9.2+dfsg
 _ZNSt4pairIKNSt7__cxx1112basic_stringIcSt11char_traitsIcESaIcEEES5_EC2IJOS5_EJLj0EEJEJEEERSt5tupleIJDpT_EERSA_IJDpT1_EESt12_Index_tupleIJXspT0_EEESJ_IJXspT2_EEE@Base 2.9.2+dfsg
 _ZNSt4pairIKNSt7__cxx1112basic_stringIcSt11char_traitsIcESaIcEEES5_EC2IJRS6_EJEEESt21piecewise_construct_tSt5tupleIJDpT_EESB_IJDpT0_EE@Base 2.9.2+dfsg
 _ZNSt4pairIKNSt7__cxx1112basic_stringIcSt11char_traitsIcESaIcEEES5_EC2IJRS6_EJLj0EEJEJEEERSt5tupleIJDpT_EERSA_IJDpT1_EESt12_Index_tupleIJXspT0_EEESJ_IJXspT2_EEE@Base 2.9.2+dfsg
 _ZNSt4pairIKNSt7__cxx1112basic_stringIcSt11char_traitsIcESaIcEEES5_ED1Ev@Base 2.9
 _ZNSt4pairIKNSt7__cxx1112basic_stringIcSt11char_traitsIcESaIcEEES5_ED2Ev@Base 2.9
 _ZNSt4pairIKNSt7__cxx1112basic_stringIcSt11char_traitsIcESaIcEEEiEC1IJRS6_EJEEESt21piecewise_construct_tSt5tupleIJDpT_EESB_IJDpT0_EE@Base 2.9.2+dfsg
 _ZNSt4pairIKNSt7__cxx1112basic_stringIcSt11char_traitsIcESaIcEEEiEC1IJRS6_EJLj0EEJEJEEERSt5tupleIJDpT_EERSA_IJDpT1_EESt12_Index_tupleIJXspT0_EEESJ_IJXspT2_EEE@Base 2.9.2+dfsg
 _ZNSt4pairIKNSt7__cxx1112basic_stringIcSt11char_traitsIcESaIcEEEiEC2IJRS6_EJEEESt21piecewise_construct_tSt5tupleIJDpT_EESB_IJDpT0_EE@Base 2.9.2+dfsg
 _ZNSt4pairIKNSt7__cxx1112basic_stringIcSt11char_traitsIcESaIcEEEiEC2IJRS6_EJLj0EEJEJEEERSt5tupleIJDpT_EERSA_IJDpT1_EESt12_Index_tupleIJXspT0_EEESJ_IJXspT2_EEE@Base 2.9.2+dfsg
 _ZNSt4pairIKNSt7__cxx1112basic_stringIcSt11char_traitsIcESaIcEEEiED1Ev@Base 2.9
 _ZNSt4pairIKNSt7__cxx1112basic_stringIcSt11char_traitsIcESaIcEEEiED2Ev@Base 2.9
 _ZNSt4pairIKi14RepresentationEC1IJOiEJEEESt21piecewise_construct_tSt5tupleIJDpT_EES6_IJDpT0_EE@Base 2.9.2+dfsg
 _ZNSt4pairIKi14RepresentationEC1IJOiEJLj0EEJEJEEERSt5tupleIJDpT_EERS5_IJDpT1_EESt12_Index_tupleIJXspT0_EEESE_IJXspT2_EEE@Base 2.9.2+dfsg
 _ZNSt4pairIKi14RepresentationEC2IJOiEJEEESt21piecewise_construct_tSt5tupleIJDpT_EES6_IJDpT0_EE@Base 2.9.2+dfsg
 _ZNSt4pairIKi14RepresentationEC2IJOiEJLj0EEJEJEEERSt5tupleIJDpT_EERS5_IJDpT1_EESt12_Index_tupleIJXspT0_EEESE_IJXspT2_EEE@Base 2.9.2+dfsg
 _ZNSt4pairIKi14RepresentationED1Ev@Base 2.8.4
 _ZNSt4pairIKi14RepresentationED2Ev@Base 2.8.4
 _ZNSt4pairIKiiEC1IJRS0_EJEEESt21piecewise_construct_tSt5tupleIJDpT_EES5_IJDpT0_EE@Base 2.9.2+dfsg
 _ZNSt4pairIKiiEC1IJRS0_EJLj0EEJEJEEERSt5tupleIJDpT_EERS4_IJDpT1_EESt12_Index_tupleIJXspT0_EEESD_IJXspT2_EEE@Base 2.9.2+dfsg
 _ZNSt4pairIKiiEC2IJRS0_EJEEESt21piecewise_construct_tSt5tupleIJDpT_EES5_IJDpT0_EE@Base 2.9.2+dfsg
 _ZNSt4pairIKiiEC2IJRS0_EJLj0EEJEJEEERSt5tupleIJDpT_EERS4_IJDpT1_EESt12_Index_tupleIJXspT0_EEESD_IJXspT2_EEE@Base 2.9.2+dfsg
 _ZNSt4pairIPSt18_Rb_tree_node_baseS1_EC1IRPSt13_Rb_tree_nodeIS_IK12KeyModifiersjEERS1_Lb1EEEOT_OT0_@Base 2.9.3
 _ZNSt4pairIPSt18_Rb_tree_node_baseS1_EC1IRPSt13_Rb_tree_nodeIS_IK17FontSpecificationP12FontRealisedEERS1_Lb1EEEOT_OT0_@Base 2.9.3
 _ZNSt4pairIPSt18_Rb_tree_node_baseS1_EC1IRPSt13_Rb_tree_nodeIS_IKNSt7__cxx1112basic_stringIcSt11char_traitsIcESaIcEEEN12LexerVerilog11SymbolValueEEERS1_Lb1EEEOT_OT0_@Base 2.9.3
 _ZNSt4pairIPSt18_Rb_tree_node_baseS1_EC1IRPSt13_Rb_tree_nodeIS_IKNSt7__cxx1112basic_stringIcSt11char_traitsIcESaIcEEEN8LexerCPP11SymbolValueEEERS1_Lb1EEEOT_OT0_@Base 2.9.3
 _ZNSt4pairIPSt18_Rb_tree_node_baseS1_EC1IRPSt13_Rb_tree_nodeIS_IKNSt7__cxx1112basic_stringIcSt11char_traitsIcESaIcEEEN9OptionSetI10OptionsAsmE6OptionEEERS1_Lb1EEEOT_OT0_@Base 2.9.3
 _ZNSt4pairIPSt18_Rb_tree_node_baseS1_EC1IRPSt13_Rb_tree_nodeIS_IKNSt7__cxx1112basic_stringIcSt11char_traitsIcESaIcEEEN9OptionSetI10OptionsSQLE6OptionEEERS1_Lb1EEEOT_OT0_@Base 2.9.3
 _ZNSt4pairIPSt18_Rb_tree_node_baseS1_EC1IRPSt13_Rb_tree_nodeIS_IKNSt7__cxx1112basic_stringIcSt11char_traitsIcESaIcEEEN9OptionSetI11OptionsPerlE6OptionEEERS1_Lb1EEEOT_OT0_@Base 2.9.3
 _ZNSt4pairIPSt18_Rb_tree_node_baseS1_EC1IRPSt13_Rb_tree_nodeIS_IKNSt7__cxx1112basic_stringIcSt11char_traitsIcESaIcEEEN9OptionSetI11OptionsRustE6OptionEEERS1_Lb1EEEOT_OT0_@Base 2.9.3
 _ZNSt4pairIPSt18_Rb_tree_node_baseS1_EC1IRPSt13_Rb_tree_nodeIS_IKNSt7__cxx1112basic_stringIcSt11char_traitsIcESaIcEEEN9OptionSetI12OptionsBasicE6OptionEEERS1_Lb1EEEOT_OT0_@Base 2.9.3
 _ZNSt4pairIPSt18_Rb_tree_node_baseS1_EC1IRPSt13_Rb_tree_nodeIS_IKNSt7__cxx1112basic_stringIcSt11char_traitsIcESaIcEEEN9OptionSetI14OptionsHaskellE6OptionEEERS1_Lb1EEEOT_OT0_@Base 2.9.3
 _ZNSt4pairIPSt18_Rb_tree_node_baseS1_EC1IRPSt13_Rb_tree_nodeIS_IKNSt7__cxx1112basic_stringIcSt11char_traitsIcESaIcEEEN9OptionSetI15OptionsRegistryE6OptionEEERS1_Lb1EEEOT_OT0_@Base 2.9.3
 _ZNSt4pairIPSt18_Rb_tree_node_baseS1_EC1IRPSt13_Rb_tree_nodeIS_IKNSt7__cxx1112basic_stringIcSt11char_traitsIcESaIcEEEN9OptionSetI8OptionsDE6OptionEEERS1_Lb1EEEOT_OT0_@Base 2.9.3
 _ZNSt4pairIPSt18_Rb_tree_node_baseS1_EC1IRPSt13_Rb_tree_nodeIS_IKNSt7__cxx1112basic_stringIcSt11char_traitsIcESaIcEEESA_EERS1_Lb1EEEOT_OT0_@Base 2.9.3
 _ZNSt4pairIPSt18_Rb_tree_node_baseS1_EC1IRPSt13_Rb_tree_nodeIS_IKNSt7__cxx1112basic_stringIcSt11char_traitsIcESaIcEEEiEERS1_Lb1EEEOT_OT0_@Base 2.9.3
 _ZNSt4pairIPSt18_Rb_tree_node_baseS1_EC1IRPSt13_Rb_tree_nodeIS_IKi14RepresentationEERS1_Lb1EEEOT_OT0_@Base 2.9.3
 _ZNSt4pairIPSt18_Rb_tree_node_baseS1_EC1IRPSt13_Rb_tree_nodeIS_IKiiEERS1_Lb1EEEOT_OT0_@Base 2.9.3
 _ZNSt4pairIPSt18_Rb_tree_node_baseS1_EC1IRS1_Lb1EEEOT_RKS1_@Base 2.9.3
 _ZNSt4pairIPSt18_Rb_tree_node_baseS1_EC1IRS1_Lb1EEERKS1_OT_@Base 2.9.3
 _ZNSt4pairIPSt18_Rb_tree_node_baseS1_EC1IRS1_S4_Lb1EEEOT_OT0_@Base 2.9.3
 _ZNSt4pairIPSt18_Rb_tree_node_baseS1_EC2IRPSt13_Rb_tree_nodeIS_IK12KeyModifiersjEERS1_Lb1EEEOT_OT0_@Base 2.9.3
 _ZNSt4pairIPSt18_Rb_tree_node_baseS1_EC2IRPSt13_Rb_tree_nodeIS_IK17FontSpecificationP12FontRealisedEERS1_Lb1EEEOT_OT0_@Base 2.9.3
 _ZNSt4pairIPSt18_Rb_tree_node_baseS1_EC2IRPSt13_Rb_tree_nodeIS_IKNSt7__cxx1112basic_stringIcSt11char_traitsIcESaIcEEEN12LexerVerilog11SymbolValueEEERS1_Lb1EEEOT_OT0_@Base 2.9.3
 _ZNSt4pairIPSt18_Rb_tree_node_baseS1_EC2IRPSt13_Rb_tree_nodeIS_IKNSt7__cxx1112basic_stringIcSt11char_traitsIcESaIcEEEN8LexerCPP11SymbolValueEEERS1_Lb1EEEOT_OT0_@Base 2.9.3
 _ZNSt4pairIPSt18_Rb_tree_node_baseS1_EC2IRPSt13_Rb_tree_nodeIS_IKNSt7__cxx1112basic_stringIcSt11char_traitsIcESaIcEEEN9OptionSetI10OptionsAsmE6OptionEEERS1_Lb1EEEOT_OT0_@Base 2.9.3
 _ZNSt4pairIPSt18_Rb_tree_node_baseS1_EC2IRPSt13_Rb_tree_nodeIS_IKNSt7__cxx1112basic_stringIcSt11char_traitsIcESaIcEEEN9OptionSetI10OptionsSQLE6OptionEEERS1_Lb1EEEOT_OT0_@Base 2.9.3
 _ZNSt4pairIPSt18_Rb_tree_node_baseS1_EC2IRPSt13_Rb_tree_nodeIS_IKNSt7__cxx1112basic_stringIcSt11char_traitsIcESaIcEEEN9OptionSetI11OptionsPerlE6OptionEEERS1_Lb1EEEOT_OT0_@Base 2.9.3
 _ZNSt4pairIPSt18_Rb_tree_node_baseS1_EC2IRPSt13_Rb_tree_nodeIS_IKNSt7__cxx1112basic_stringIcSt11char_traitsIcESaIcEEEN9OptionSetI11OptionsRustE6OptionEEERS1_Lb1EEEOT_OT0_@Base 2.9.3
 _ZNSt4pairIPSt18_Rb_tree_node_baseS1_EC2IRPSt13_Rb_tree_nodeIS_IKNSt7__cxx1112basic_stringIcSt11char_traitsIcESaIcEEEN9OptionSetI12OptionsBasicE6OptionEEERS1_Lb1EEEOT_OT0_@Base 2.9.3
 _ZNSt4pairIPSt18_Rb_tree_node_baseS1_EC2IRPSt13_Rb_tree_nodeIS_IKNSt7__cxx1112basic_stringIcSt11char_traitsIcESaIcEEEN9OptionSetI14OptionsHaskellE6OptionEEERS1_Lb1EEEOT_OT0_@Base 2.9.3
 _ZNSt4pairIPSt18_Rb_tree_node_baseS1_EC2IRPSt13_Rb_tree_nodeIS_IKNSt7__cxx1112basic_stringIcSt11char_traitsIcESaIcEEEN9OptionSetI15OptionsRegistryE6OptionEEERS1_Lb1EEEOT_OT0_@Base 2.9.3
 _ZNSt4pairIPSt18_Rb_tree_node_baseS1_EC2IRPSt13_Rb_tree_nodeIS_IKNSt7__cxx1112basic_stringIcSt11char_traitsIcESaIcEEEN9OptionSetI8OptionsDE6OptionEEERS1_Lb1EEEOT_OT0_@Base 2.9.3
 _ZNSt4pairIPSt18_Rb_tree_node_baseS1_EC2IRPSt13_Rb_tree_nodeIS_IKNSt7__cxx1112basic_stringIcSt11char_traitsIcESaIcEEESA_EERS1_Lb1EEEOT_OT0_@Base 2.9.3
 _ZNSt4pairIPSt18_Rb_tree_node_baseS1_EC2IRPSt13_Rb_tree_nodeIS_IKNSt7__cxx1112basic_stringIcSt11char_traitsIcESaIcEEEiEERS1_Lb1EEEOT_OT0_@Base 2.9.3
 _ZNSt4pairIPSt18_Rb_tree_node_baseS1_EC2IRPSt13_Rb_tree_nodeIS_IKi14RepresentationEERS1_Lb1EEEOT_OT0_@Base 2.9.3
 _ZNSt4pairIPSt18_Rb_tree_node_baseS1_EC2IRPSt13_Rb_tree_nodeIS_IKiiEERS1_Lb1EEEOT_OT0_@Base 2.9.3
 _ZNSt4pairIPSt18_Rb_tree_node_baseS1_EC2IRS1_Lb1EEEOT_RKS1_@Base 2.9.3
 _ZNSt4pairIPSt18_Rb_tree_node_baseS1_EC2IRS1_Lb1EEERKS1_OT_@Base 2.9.3
 _ZNSt4pairIPSt18_Rb_tree_node_baseS1_EC2IRS1_S4_Lb1EEEOT_OT0_@Base 2.9.3
 _ZNSt4pairISt17_Rb_tree_iteratorIS_IKNSt7__cxx1112basic_stringIcSt11char_traitsIcESaIcEEEN12LexerVerilog11SymbolValueEEESB_EC1ISB_SB_Lb1EEEOT_OT0_@Base 2.9.3
 _ZNSt4pairISt17_Rb_tree_iteratorIS_IKNSt7__cxx1112basic_stringIcSt11char_traitsIcESaIcEEEN12LexerVerilog11SymbolValueEEESB_EC2ISB_SB_Lb1EEEOT_OT0_@Base 2.9.3
 _ZNSt4pairISt17_Rb_tree_iteratorIS_IKNSt7__cxx1112basic_stringIcSt11char_traitsIcESaIcEEEN8LexerCPP11SymbolValueEEESB_EC1ISB_SB_Lb1EEEOT_OT0_@Base 2.9.3
 _ZNSt4pairISt17_Rb_tree_iteratorIS_IKNSt7__cxx1112basic_stringIcSt11char_traitsIcESaIcEEEN8LexerCPP11SymbolValueEEESB_EC2ISB_SB_Lb1EEEOT_OT0_@Base 2.9.3
 _ZNSt5tupleIJO12KeyModifiersEEC1EOS2_@Base 2.9.2+dfsg
 _ZNSt5tupleIJO12KeyModifiersEEC1IJS0_ELb1EEEDpOT_@Base 2.9.3
 _ZNSt5tupleIJO12KeyModifiersEEC2EOS2_@Base 2.9.2+dfsg
 _ZNSt5tupleIJO12KeyModifiersEEC2IJS0_ELb1EEEDpOT_@Base 2.9.3
 _ZNSt5tupleIJONSt7__cxx1112basic_stringIcSt11char_traitsIcESaIcEEEEEC1EOS7_@Base 2.9.2+dfsg
 _ZNSt5tupleIJONSt7__cxx1112basic_stringIcSt11char_traitsIcESaIcEEEEEC1IJS5_ELb1EEEDpOT_@Base 2.9.3
 _ZNSt5tupleIJONSt7__cxx1112basic_stringIcSt11char_traitsIcESaIcEEEEEC2EOS7_@Base 2.9.2+dfsg
 _ZNSt5tupleIJONSt7__cxx1112basic_stringIcSt11char_traitsIcESaIcEEEEEC2IJS5_ELb1EEEDpOT_@Base 2.9.3
 _ZNSt5tupleIJOiEEC1EOS1_@Base 2.9.2+dfsg
 _ZNSt5tupleIJOiEEC1IJiELb1EEEDpOT_@Base 2.9.3
 _ZNSt5tupleIJOiEEC2EOS1_@Base 2.9.2+dfsg
 _ZNSt5tupleIJOiEEC2IJiELb1EEEDpOT_@Base 2.9.3
 _ZNSt5tupleIJRK17FontSpecificationEEC1EOS3_@Base 2.9.2+dfsg
 _ZNSt5tupleIJRK17FontSpecificationEEC1IvLb1EEES2_@Base 2.9.3
 _ZNSt5tupleIJRK17FontSpecificationEEC2EOS3_@Base 2.9.2+dfsg
 _ZNSt5tupleIJRK17FontSpecificationEEC2IvLb1EEES2_@Base 2.9.3
 _ZNSt5tupleIJRKNSt7__cxx1112basic_stringIcSt11char_traitsIcESaIcEEEEEC1EOS8_@Base 2.9.2+dfsg
 _ZNSt5tupleIJRKNSt7__cxx1112basic_stringIcSt11char_traitsIcESaIcEEEEEC1IvLb1EEES7_@Base 2.9.3
 _ZNSt5tupleIJRKNSt7__cxx1112basic_stringIcSt11char_traitsIcESaIcEEEEEC2EOS8_@Base 2.9.2+dfsg
 _ZNSt5tupleIJRKNSt7__cxx1112basic_stringIcSt11char_traitsIcESaIcEEEEEC2IvLb1EEES7_@Base 2.9.3
 _ZNSt5tupleIJRKiEEC1EOS2_@Base 2.9.2+dfsg
 _ZNSt5tupleIJRKiEEC1IvLb1EEES1_@Base 2.9.3
 _ZNSt5tupleIJRKiEEC2EOS2_@Base 2.9.2+dfsg
 _ZNSt5tupleIJRKiEEC2IvLb1EEES1_@Base 2.9.3
 _ZNSt6vectorI13latexFoldSaveSaIS0_EE15_M_erase_at_endEPS0_@Base 2.8.4
 _ZNSt6vectorI13latexFoldSaveSaIS0_EE17_M_default_appendEj@Base 2.9.2+dfsg
 _ZNSt6vectorI13latexFoldSaveSaIS0_EE6resizeEj@Base 2.9.2+dfsg
 _ZNSt6vectorI13latexFoldSaveSaIS0_EEC1Ev@Base 2.8.4
 _ZNSt6vectorI13latexFoldSaveSaIS0_EEC2Ev@Base 2.8.4
 _ZNSt6vectorI13latexFoldSaveSaIS0_EED1Ev@Base 2.8.4
 _ZNSt6vectorI13latexFoldSaveSaIS0_EED2Ev@Base 2.8.4
 _ZNSt6vectorI13latexFoldSaveSaIS0_EEixEj@Base 2.9
 _ZNSt6vectorI14SelectionRangeSaIS0_EE12emplace_backIJS0_EEEvDpOT_@Base 2.9.2+dfsg
 _ZNSt6vectorI14SelectionRangeSaIS0_EE15_M_erase_at_endEPS0_@Base 2.8.4
 _ZNSt6vectorI14SelectionRangeSaIS0_EE19_M_emplace_back_auxIJRKS0_EEEvDpOT_@Base 2.9.2+dfsg
 _ZNSt6vectorI14SelectionRangeSaIS0_EE19_M_emplace_back_auxIJS0_EEEvDpOT_@Base 2.9.2+dfsg
 _ZNSt6vectorI14SelectionRangeSaIS0_EE20_M_allocate_and_copyIN9__gnu_cxx17__normal_iteratorIPKS0_S2_EEEEPS0_jT_SA_@Base 2.9
 _ZNSt6vectorI14SelectionRangeSaIS0_EE3endEv@Base 2.8.4
 _ZNSt6vectorI14SelectionRangeSaIS0_EE5beginEv@Base 2.8.4
 _ZNSt6vectorI14SelectionRangeSaIS0_EE5clearEv@Base 2.8.4
 _ZNSt6vectorI14SelectionRangeSaIS0_EE5eraseEN9__gnu_cxx17__normal_iteratorIPKS0_S2_EE@Base 2.9.2+dfsg
 _ZNSt6vectorI14SelectionRangeSaIS0_EE8_M_eraseEN9__gnu_cxx17__normal_iteratorIPS0_S2_EE@Base 2.8.4
 _ZNSt6vectorI14SelectionRangeSaIS0_EE8pop_backEv@Base 2.8.4
 _ZNSt6vectorI14SelectionRangeSaIS0_EE9push_backEOS0_@Base 2.9.2+dfsg
 _ZNSt6vectorI14SelectionRangeSaIS0_EE9push_backERKS0_@Base 2.8.4
 _ZNSt6vectorI14SelectionRangeSaIS0_EEC1ERKS2_@Base 2.8.4
 _ZNSt6vectorI14SelectionRangeSaIS0_EEC1Ev@Base 2.8.4
 _ZNSt6vectorI14SelectionRangeSaIS0_EEC2ERKS2_@Base 2.8.4
 _ZNSt6vectorI14SelectionRangeSaIS0_EEC2Ev@Base 2.8.4
 _ZNSt6vectorI14SelectionRangeSaIS0_EED1Ev@Base 2.8.4
 _ZNSt6vectorI14SelectionRangeSaIS0_EED2Ev@Base 2.8.4
 _ZNSt6vectorI14SelectionRangeSaIS0_EEaSERKS2_@Base 2.8.4
 _ZNSt6vectorI14SelectionRangeSaIS0_EEixEj@Base 2.9
 _ZNSt6vectorI14WordClassifierSaIS0_EE12emplace_backIJS0_EEEvDpOT_@Base 2.9.2+dfsg
 _ZNSt6vectorI14WordClassifierSaIS0_EE19_M_emplace_back_auxIJS0_EEEvDpOT_@Base 2.9.2+dfsg
 _ZNSt6vectorI14WordClassifierSaIS0_EE3endEv@Base 2.8.4
 _ZNSt6vectorI14WordClassifierSaIS0_EE5beginEv@Base 2.8.4
 _ZNSt6vectorI14WordClassifierSaIS0_EE9push_backEOS0_@Base 2.9.2+dfsg
 _ZNSt6vectorI14WordClassifierSaIS0_EEC1Ev@Base 2.8.4
 _ZNSt6vectorI14WordClassifierSaIS0_EEC2Ev@Base 2.8.4
 _ZNSt6vectorI14WordClassifierSaIS0_EED1Ev@Base 2.8.4
 _ZNSt6vectorI14WordClassifierSaIS0_EED2Ev@Base 2.8.4
 _ZNSt6vectorI14WordClassifierSaIS0_EEixEj@Base 2.9
 _ZNSt6vectorI18PositionCacheEntrySaIS0_EE15_M_erase_at_endEPS0_@Base 2.8.4
 _ZNSt6vectorI18PositionCacheEntrySaIS0_EE17_M_default_appendEj@Base 2.9.2+dfsg
 _ZNSt6vectorI18PositionCacheEntrySaIS0_EE6resizeEj@Base 2.9.2+dfsg
 _ZNSt6vectorI18PositionCacheEntrySaIS0_EEC1Ev@Base 2.8.4
 _ZNSt6vectorI18PositionCacheEntrySaIS0_EEC2Ev@Base 2.8.4
 _ZNSt6vectorI18PositionCacheEntrySaIS0_EED1Ev@Base 2.8.4
 _ZNSt6vectorI18PositionCacheEntrySaIS0_EED2Ev@Base 2.8.4
 _ZNSt6vectorI18PositionCacheEntrySaIS0_EEixEj@Base 2.9
 _ZNSt6vectorI5StyleSaIS0_EE15_M_erase_at_endEPS0_@Base 2.8.4
 _ZNSt6vectorI5StyleSaIS0_EE17_M_default_appendEj@Base 2.9.2+dfsg
 _ZNSt6vectorI5StyleSaIS0_EE5clearEv@Base 2.8.4
 _ZNSt6vectorI5StyleSaIS0_EE6resizeEj@Base 2.9.2+dfsg
 _ZNSt6vectorI5StyleSaIS0_EEC1Ev@Base 2.8.4
 _ZNSt6vectorI5StyleSaIS0_EEC2Ev@Base 2.8.4
 _ZNSt6vectorI5StyleSaIS0_EED1Ev@Base 2.8.4
 _ZNSt6vectorI5StyleSaIS0_EED2Ev@Base 2.8.4
 _ZNSt6vectorI5StyleSaIS0_EEixEj@Base 2.9
 _ZNSt6vectorI9DrawPhaseSaIS0_EE12emplace_backIJS0_EEEvDpOT_@Base 2.9.2+dfsg
 _ZNSt6vectorI9DrawPhaseSaIS0_EE19_M_emplace_back_auxIJRKS0_EEEvDpOT_@Base 2.9.2+dfsg
 _ZNSt6vectorI9DrawPhaseSaIS0_EE19_M_emplace_back_auxIJS0_EEEvDpOT_@Base 2.9.2+dfsg
 _ZNSt6vectorI9DrawPhaseSaIS0_EE3endEv@Base 2.9
 _ZNSt6vectorI9DrawPhaseSaIS0_EE5beginEv@Base 2.9
 _ZNSt6vectorI9DrawPhaseSaIS0_EE9push_backEOS0_@Base 2.9.2+dfsg
 _ZNSt6vectorI9DrawPhaseSaIS0_EE9push_backERKS0_@Base 2.9
 _ZNSt6vectorI9DrawPhaseSaIS0_EEC1Ev@Base 2.9
 _ZNSt6vectorI9DrawPhaseSaIS0_EEC2Ev@Base 2.9
 _ZNSt6vectorI9DrawPhaseSaIS0_EED1Ev@Base 2.9
 _ZNSt6vectorI9DrawPhaseSaIS0_EED2Ev@Base 2.9
 _ZNSt6vectorIN11SparseStateINSt7__cxx1112basic_stringIcSt11char_traitsIcESaIcEEEE5StateESaIS8_EE12emplace_backIJS8_EEEvDpOT_@Base 2.9.2+dfsg
 _ZNSt6vectorIN11SparseStateINSt7__cxx1112basic_stringIcSt11char_traitsIcESaIcEEEE5StateESaIS8_EE15_M_erase_at_endEPS8_@Base 2.9
 _ZNSt6vectorIN11SparseStateINSt7__cxx1112basic_stringIcSt11char_traitsIcESaIcEEEE5StateESaIS8_EE15_M_range_insertIN9__gnu_cxx17__normal_iteratorIPKS8_SA_EEEEvNSD_IPS8_SA_EET_SJ_St20forward_iterator_tag@Base 2.9
 _ZNSt6vectorIN11SparseStateINSt7__cxx1112basic_stringIcSt11char_traitsIcESaIcEEEE5StateESaIS8_EE18_M_insert_dispatchIN9__gnu_cxx17__normal_iteratorIPKS8_SA_EEEEvNSD_IPS8_SA_EET_SJ_St12__false_type@Base 2.9
 _ZNSt6vectorIN11SparseStateINSt7__cxx1112basic_stringIcSt11char_traitsIcESaIcEEEE5StateESaIS8_EE19_M_emplace_back_auxIJS8_EEEvDpOT_@Base 2.9.2+dfsg
 _ZNSt6vectorIN11SparseStateINSt7__cxx1112basic_stringIcSt11char_traitsIcESaIcEEEE5StateESaIS8_EE3endEv@Base 2.9
 _ZNSt6vectorIN11SparseStateINSt7__cxx1112basic_stringIcSt11char_traitsIcESaIcEEEE5StateESaIS8_EE4backEv@Base 2.9
 _ZNSt6vectorIN11SparseStateINSt7__cxx1112basic_stringIcSt11char_traitsIcESaIcEEEE5StateESaIS8_EE5beginEv@Base 2.9
 _ZNSt6vectorIN11SparseStateINSt7__cxx1112basic_stringIcSt11char_traitsIcESaIcEEEE5StateESaIS8_EE5eraseEN9__gnu_cxx17__normal_iteratorIPKS8_SA_EESF_@Base 2.9.2+dfsg
 _ZNSt6vectorIN11SparseStateINSt7__cxx1112basic_stringIcSt11char_traitsIcESaIcEEEE5StateESaIS8_EE6insertIN9__gnu_cxx17__normal_iteratorIPKS8_SA_EEvEENSD_IPS8_SA_EESG_T_SJ_@Base 2.9.2+dfsg
 _ZNSt6vectorIN11SparseStateINSt7__cxx1112basic_stringIcSt11char_traitsIcESaIcEEEE5StateESaIS8_EE8_M_eraseEN9__gnu_cxx17__normal_iteratorIPS8_SA_EESE_@Base 2.9
 _ZNSt6vectorIN11SparseStateINSt7__cxx1112basic_stringIcSt11char_traitsIcESaIcEEEE5StateESaIS8_EE9push_backEOS8_@Base 2.9.2+dfsg
 _ZNSt6vectorIN11SparseStateINSt7__cxx1112basic_stringIcSt11char_traitsIcESaIcEEEE5StateESaIS8_EEC1Ev@Base 2.9
 _ZNSt6vectorIN11SparseStateINSt7__cxx1112basic_stringIcSt11char_traitsIcESaIcEEEE5StateESaIS8_EEC2Ev@Base 2.9
 _ZNSt6vectorIN11SparseStateINSt7__cxx1112basic_stringIcSt11char_traitsIcESaIcEEEE5StateESaIS8_EED1Ev@Base 2.9
 _ZNSt6vectorIN11SparseStateINSt7__cxx1112basic_stringIcSt11char_traitsIcESaIcEEEE5StateESaIS8_EED2Ev@Base 2.9
 _ZNSt6vectorIN11SparseStateINSt7__cxx1112basic_stringIcSt11char_traitsIcESaIcEEEE5StateESaIS8_EEixEj@Base 2.9
 _ZNSt6vectorIN11SparseStateIjE5StateESaIS2_EE12emplace_backIJS2_EEEvDpOT_@Base 2.9.2+dfsg
 _ZNSt6vectorIN11SparseStateIjE5StateESaIS2_EE15_M_erase_at_endEPS2_@Base 2.8.4
 _ZNSt6vectorIN11SparseStateIjE5StateESaIS2_EE19_M_emplace_back_auxIJS2_EEEvDpOT_@Base 2.9.2+dfsg
 _ZNSt6vectorIN11SparseStateIjE5StateESaIS2_EE3endEv@Base 2.8.4
 _ZNSt6vectorIN11SparseStateIjE5StateESaIS2_EE5beginEv@Base 2.8.4
 _ZNSt6vectorIN11SparseStateIjE5StateESaIS2_EE5eraseEN9__gnu_cxx17__normal_iteratorIPKS2_S4_EES9_@Base 2.9.2+dfsg
 _ZNSt6vectorIN11SparseStateIjE5StateESaIS2_EE8_M_eraseEN9__gnu_cxx17__normal_iteratorIPS2_S4_EES8_@Base 2.8.4
 _ZNSt6vectorIN11SparseStateIjE5StateESaIS2_EE9push_backEOS2_@Base 2.9.2+dfsg
 _ZNSt6vectorIN11SparseStateIjE5StateESaIS2_EEC1Ev@Base 2.8.4
 _ZNSt6vectorIN11SparseStateIjE5StateESaIS2_EEC2Ev@Base 2.8.4
 _ZNSt6vectorIN11SparseStateIjE5StateESaIS2_EED1Ev@Base 2.8.4
 _ZNSt6vectorIN11SparseStateIjE5StateESaIS2_EED2Ev@Base 2.8.4
 _ZNSt6vectorIN11SparseStateIjE5StateESaIS2_EEixEj@Base 2.9
 _ZNSt6vectorIN8Document19WatcherWithUserDataESaIS1_EE19_M_emplace_back_auxIJRKS1_EEEvDpOT_@Base 2.9.2+dfsg
 _ZNSt6vectorIN8Document19WatcherWithUserDataESaIS1_EE3endEv@Base 2.8.4
 _ZNSt6vectorIN8Document19WatcherWithUserDataESaIS1_EE5beginEv@Base 2.8.4
 _ZNSt6vectorIN8Document19WatcherWithUserDataESaIS1_EE5eraseEN9__gnu_cxx17__normal_iteratorIPKS1_S3_EE@Base 2.9.2+dfsg
 _ZNSt6vectorIN8Document19WatcherWithUserDataESaIS1_EE8_M_eraseEN9__gnu_cxx17__normal_iteratorIPS1_S3_EE@Base 2.8.4
 _ZNSt6vectorIN8Document19WatcherWithUserDataESaIS1_EE9push_backERKS1_@Base 2.8.4
 _ZNSt6vectorIN8Document19WatcherWithUserDataESaIS1_EEC1Ev@Base 2.8.4
 _ZNSt6vectorIN8Document19WatcherWithUserDataESaIS1_EEC2Ev@Base 2.8.4
 _ZNSt6vectorIN8Document19WatcherWithUserDataESaIS1_EED1Ev@Base 2.8.4
 _ZNSt6vectorIN8Document19WatcherWithUserDataESaIS1_EED2Ev@Base 2.8.4
 _ZNSt6vectorINSt7__cxx1112basic_stringIcSt11char_traitsIcESaIcEEESaIS5_EE12emplace_backIJS5_EEEvDpOT_@Base 2.9.2+dfsg
 _ZNSt6vectorINSt7__cxx1112basic_stringIcSt11char_traitsIcESaIcEEESaIS5_EE13_M_insert_auxIJS5_EEEvN9__gnu_cxx17__normal_iteratorIPS5_S7_EEDpOT_@Base 2.9.2+dfsg
 _ZNSt6vectorINSt7__cxx1112basic_stringIcSt11char_traitsIcESaIcEEESaIS5_EE15_M_erase_at_endEPS5_@Base 2.9
 _ZNSt6vectorINSt7__cxx1112basic_stringIcSt11char_traitsIcESaIcEEESaIS5_EE15_M_range_insertIN9__gnu_cxx17__normal_iteratorIPS5_S7_EEEEvSC_T_SD_St20forward_iterator_tag@Base 2.9
 _ZNSt6vectorINSt7__cxx1112basic_stringIcSt11char_traitsIcESaIcEEESaIS5_EE18_M_insert_dispatchIN9__gnu_cxx17__normal_iteratorIPS5_S7_EEEEvSC_T_SD_St12__false_type@Base 2.9
 _ZNSt6vectorINSt7__cxx1112basic_stringIcSt11char_traitsIcESaIcEEESaIS5_EE19_M_emplace_back_auxIJRKS5_EEEvDpOT_@Base 2.9.2+dfsg
 _ZNSt6vectorINSt7__cxx1112basic_stringIcSt11char_traitsIcESaIcEEESaIS5_EE19_M_emplace_back_auxIJS5_EEEvDpOT_@Base 2.9.2+dfsg
 _ZNSt6vectorINSt7__cxx1112basic_stringIcSt11char_traitsIcESaIcEEESaIS5_EE19_M_range_initializeIN9__gnu_cxx17__normal_iteratorIPS5_S7_EEEEvT_SD_St20forward_iterator_tag@Base 2.9
 _ZNSt6vectorINSt7__cxx1112basic_stringIcSt11char_traitsIcESaIcEEESaIS5_EE21_M_default_initializeEj@Base 2.9.2+dfsg
 _ZNSt6vectorINSt7__cxx1112basic_stringIcSt11char_traitsIcESaIcEEESaIS5_EE22_M_initialize_dispatchIN9__gnu_cxx17__normal_iteratorIPS5_S7_EEEEvT_SD_St12__false_type@Base 2.9
 _ZNSt6vectorINSt7__cxx1112basic_stringIcSt11char_traitsIcESaIcEEESaIS5_EE2atEj@Base 2.9
 _ZNSt6vectorINSt7__cxx1112basic_stringIcSt11char_traitsIcESaIcEEESaIS5_EE3endEv@Base 2.9
 _ZNSt6vectorINSt7__cxx1112basic_stringIcSt11char_traitsIcESaIcEEESaIS5_EE4backEv@Base 2.9
 _ZNSt6vectorINSt7__cxx1112basic_stringIcSt11char_traitsIcESaIcEEESaIS5_EE5beginEv@Base 2.9
 _ZNSt6vectorINSt7__cxx1112basic_stringIcSt11char_traitsIcESaIcEEESaIS5_EE5eraseEN9__gnu_cxx17__normal_iteratorIPKS5_S7_EE@Base 2.9.2+dfsg
 _ZNSt6vectorINSt7__cxx1112basic_stringIcSt11char_traitsIcESaIcEEESaIS5_EE5eraseEN9__gnu_cxx17__normal_iteratorIPKS5_S7_EESC_@Base 2.9.2+dfsg
 _ZNSt6vectorINSt7__cxx1112basic_stringIcSt11char_traitsIcESaIcEEESaIS5_EE6insertEN9__gnu_cxx17__normal_iteratorIPKS5_S7_EEOS5_@Base 2.9.2+dfsg
 _ZNSt6vectorINSt7__cxx1112basic_stringIcSt11char_traitsIcESaIcEEESaIS5_EE6insertIN9__gnu_cxx17__normal_iteratorIPS5_S7_EEvEESC_NSA_IPKS5_S7_EET_SG_@Base 2.9.2+dfsg
 _ZNSt6vectorINSt7__cxx1112basic_stringIcSt11char_traitsIcESaIcEEESaIS5_EE7emplaceIJS5_EEEN9__gnu_cxx17__normal_iteratorIPS5_S7_EENSA_IPKS5_S7_EEDpOT_@Base 2.9.2+dfsg
 _ZNSt6vectorINSt7__cxx1112basic_stringIcSt11char_traitsIcESaIcEEESaIS5_EE8_M_eraseEN9__gnu_cxx17__normal_iteratorIPS5_S7_EE@Base 2.9
 _ZNSt6vectorINSt7__cxx1112basic_stringIcSt11char_traitsIcESaIcEEESaIS5_EE8_M_eraseEN9__gnu_cxx17__normal_iteratorIPS5_S7_EESB_@Base 2.9
 _ZNSt6vectorINSt7__cxx1112basic_stringIcSt11char_traitsIcESaIcEEESaIS5_EE9push_backEOS5_@Base 2.9.2+dfsg
 _ZNSt6vectorINSt7__cxx1112basic_stringIcSt11char_traitsIcESaIcEEESaIS5_EE9push_backERKS5_@Base 2.9
 _ZNSt6vectorINSt7__cxx1112basic_stringIcSt11char_traitsIcESaIcEEESaIS5_EEC1Ev@Base 2.9
 _ZNSt6vectorINSt7__cxx1112basic_stringIcSt11char_traitsIcESaIcEEESaIS5_EEC1EjRKS6_@Base 2.9.2+dfsg
 _ZNSt6vectorINSt7__cxx1112basic_stringIcSt11char_traitsIcESaIcEEESaIS5_EEC1IN9__gnu_cxx17__normal_iteratorIPS5_S7_EEvEET_SD_RKS6_@Base 2.9.2+dfsg
 _ZNSt6vectorINSt7__cxx1112basic_stringIcSt11char_traitsIcESaIcEEESaIS5_EEC2Ev@Base 2.9
 _ZNSt6vectorINSt7__cxx1112basic_stringIcSt11char_traitsIcESaIcEEESaIS5_EEC2EjRKS6_@Base 2.9.2+dfsg
 _ZNSt6vectorINSt7__cxx1112basic_stringIcSt11char_traitsIcESaIcEEESaIS5_EEC2IN9__gnu_cxx17__normal_iteratorIPS5_S7_EEvEET_SD_RKS6_@Base 2.9.2+dfsg
 _ZNSt6vectorINSt7__cxx1112basic_stringIcSt11char_traitsIcESaIcEEESaIS5_EED1Ev@Base 2.9
 _ZNSt6vectorINSt7__cxx1112basic_stringIcSt11char_traitsIcESaIcEEESaIS5_EED2Ev@Base 2.9
 _ZNSt6vectorINSt7__cxx1112basic_stringIcSt11char_traitsIcESaIcEEESaIS5_EEixEj@Base 2.9
 _ZNSt6vectorIP10LineLayoutSaIS1_EE15_M_erase_at_endEPS1_@Base 2.8.4
 _ZNSt6vectorIP10LineLayoutSaIS1_EE17_M_default_appendEj@Base 2.9.2+dfsg
 _ZNSt6vectorIP10LineLayoutSaIS1_EE5clearEv@Base 2.8.4
 _ZNSt6vectorIP10LineLayoutSaIS1_EE6resizeEj@Base 2.9.2+dfsg
 _ZNSt6vectorIP10LineLayoutSaIS1_EEC1Ev@Base 2.8.4
 _ZNSt6vectorIP10LineLayoutSaIS1_EEC2Ev@Base 2.8.4
 _ZNSt6vectorIP10LineLayoutSaIS1_EED1Ev@Base 2.8.4
 _ZNSt6vectorIP10LineLayoutSaIS1_EED2Ev@Base 2.8.4
 _ZNSt6vectorIP10LineLayoutSaIS1_EEixEj@Base 2.9
 _ZNSt6vectorIP11LexerModuleSaIS1_EE19_M_emplace_back_auxIJRKS1_EEEvDpOT_@Base 2.9.2+dfsg
 _ZNSt6vectorIP11LexerModuleSaIS1_EE3endEv@Base 2.8.4
 _ZNSt6vectorIP11LexerModuleSaIS1_EE5beginEv@Base 2.8.4
 _ZNSt6vectorIP11LexerModuleSaIS1_EE9push_backERKS1_@Base 2.8.4
 _ZNSt6vectorIP11LexerModuleSaIS1_EEC1Ev@Base 2.8.4
 _ZNSt6vectorIP11LexerModuleSaIS1_EEC2Ev@Base 2.8.4
 _ZNSt6vectorIP11LexerModuleSaIS1_EED1Ev@Base 2.8.4
 _ZNSt6vectorIP11LexerModuleSaIS1_EED2Ev@Base 2.8.4
 _ZNSt6vectorIP14SelectionRangeSaIS1_EE12emplace_backIJS1_EEEvDpOT_@Base 2.9.2+dfsg
 _ZNSt6vectorIP14SelectionRangeSaIS1_EE19_M_emplace_back_auxIJS1_EEEvDpOT_@Base 2.9.2+dfsg
 _ZNSt6vectorIP14SelectionRangeSaIS1_EE3endEv@Base 2.8.4
 _ZNSt6vectorIP14SelectionRangeSaIS1_EE4rendEv@Base 2.8.4
 _ZNSt6vectorIP14SelectionRangeSaIS1_EE5beginEv@Base 2.8.4
 _ZNSt6vectorIP14SelectionRangeSaIS1_EE6rbeginEv@Base 2.8.4
 _ZNSt6vectorIP14SelectionRangeSaIS1_EE9push_backEOS1_@Base 2.9.2+dfsg
 _ZNSt6vectorIP14SelectionRangeSaIS1_EEC1Ev@Base 2.8.4
 _ZNSt6vectorIP14SelectionRangeSaIS1_EEC2Ev@Base 2.8.4
 _ZNSt6vectorIP14SelectionRangeSaIS1_EED1Ev@Base 2.8.4
 _ZNSt6vectorIP14SelectionRangeSaIS1_EED2Ev@Base 2.8.4
 _ZNSt6vectorIPcSaIS0_EE15_M_erase_at_endEPS0_@Base 2.8.4
 _ZNSt6vectorIPcSaIS0_EE19_M_emplace_back_auxIJRKS0_EEEvDpOT_@Base 2.9.2+dfsg
 _ZNSt6vectorIPcSaIS0_EE3endEv@Base 2.8.4
 _ZNSt6vectorIPcSaIS0_EE5beginEv@Base 2.8.4
 _ZNSt6vectorIPcSaIS0_EE5clearEv@Base 2.8.4
 _ZNSt6vectorIPcSaIS0_EE9push_backERKS0_@Base 2.8.4
 _ZNSt6vectorIPcSaIS0_EEC1Ev@Base 2.8.4
 _ZNSt6vectorIPcSaIS0_EEC2Ev@Base 2.8.4
 _ZNSt6vectorIPcSaIS0_EED1Ev@Base 2.8.4
 _ZNSt6vectorIPcSaIS0_EED2Ev@Base 2.8.4
 _ZNSt6vectorIcSaIcEE21_M_default_initializeEj@Base 2.9.2+dfsg
 _ZNSt6vectorIcSaIcEEC1EjRKS0_@Base 2.9.2+dfsg
 _ZNSt6vectorIcSaIcEEC2EjRKS0_@Base 2.9.2+dfsg
 _ZNSt6vectorIcSaIcEED1Ev@Base 2.8.4
 _ZNSt6vectorIcSaIcEED2Ev@Base 2.8.4
 _ZNSt6vectorIcSaIcEEixEj@Base 2.9
 _ZNSt6vectorIiSaIiEE13_M_insert_auxIJRKiEEEvN9__gnu_cxx17__normal_iteratorIPiS1_EEDpOT_@Base 2.9.2+dfsg
 _ZNSt6vectorIiSaIiEE13_M_insert_auxIJiEEEvN9__gnu_cxx17__normal_iteratorIPiS1_EEDpOT_@Base 2.9.2+dfsg
 _ZNSt6vectorIiSaIiEE14_M_fill_insertEN9__gnu_cxx17__normal_iteratorIPiS1_EEjRKi@Base 2.9
 _ZNSt6vectorIiSaIiEE15_M_erase_at_endEPi@Base 2.8.4
 _ZNSt6vectorIiSaIiEE17_M_default_appendEj@Base 2.9.2+dfsg
 _ZNSt6vectorIiSaIiEE19_M_emplace_back_auxIJRKiEEEvDpOT_@Base 2.9.2+dfsg
 _ZNSt6vectorIiSaIiEE20_M_allocate_and_copyISt13move_iteratorIPiEEES4_jT_S6_@Base 2.9.2+dfsg
 _ZNSt6vectorIiSaIiEE3endEv@Base 2.8.4
 _ZNSt6vectorIiSaIiEE5beginEv@Base 2.8.4
 _ZNSt6vectorIiSaIiEE5clearEv@Base 2.8.4
 _ZNSt6vectorIiSaIiEE6insertEN9__gnu_cxx17__normal_iteratorIPKiS1_EERS4_@Base 2.9.2+dfsg
 _ZNSt6vectorIiSaIiEE6insertEN9__gnu_cxx17__normal_iteratorIPKiS1_EEjRS4_@Base 2.9.2+dfsg
 _ZNSt6vectorIiSaIiEE6resizeEj@Base 2.9.2+dfsg
 _ZNSt6vectorIiSaIiEE6resizeEjRKi@Base 2.9.2+dfsg
 _ZNSt6vectorIiSaIiEE7reserveEj@Base 2.9
 _ZNSt6vectorIiSaIiEE9push_backERKi@Base 2.8.4
 _ZNSt6vectorIiSaIiEEC1ERKS1_@Base 2.8.4
 _ZNSt6vectorIiSaIiEEC1Ev@Base 2.8.4
 _ZNSt6vectorIiSaIiEEC2ERKS1_@Base 2.8.4
 _ZNSt6vectorIiSaIiEEC2Ev@Base 2.8.4
 _ZNSt6vectorIiSaIiEED1Ev@Base 2.8.4
 _ZNSt6vectorIiSaIiEED2Ev@Base 2.8.4
 _ZNSt6vectorIiSaIiEEixEj@Base 2.9
 _ZNSt7__equalILb0EE5equalIPN11SparseStateINSt7__cxx1112basic_stringIcSt11char_traitsIcESaIcEEEE5StateEPKSA_EEbT_SE_T0_@Base 2.9
 _ZNSt8_Rb_treeI12KeyModifiersSt4pairIKS0_jESt10_Select1stIS3_ESt4lessIS0_ESaIS3_EE11_M_get_nodeEv@Base 2.9
 _ZNSt8_Rb_treeI12KeyModifiersSt4pairIKS0_jESt10_Select1stIS3_ESt4lessIS0_ESaIS3_EE11_M_leftmostEv@Base 2.9
 _ZNSt8_Rb_treeI12KeyModifiersSt4pairIKS0_jESt10_Select1stIS3_ESt4lessIS0_ESaIS3_EE11_M_put_nodeEPSt13_Rb_tree_nodeIS3_E@Base 2.9
 _ZNSt8_Rb_treeI12KeyModifiersSt4pairIKS0_jESt10_Select1stIS3_ESt4lessIS0_ESaIS3_EE11lower_boundERS2_@Base 2.9
 _ZNSt8_Rb_treeI12KeyModifiersSt4pairIKS0_jESt10_Select1stIS3_ESt4lessIS0_ESaIS3_EE12_M_drop_nodeEPSt13_Rb_tree_nodeIS3_E@Base 2.9
 _ZNSt8_Rb_treeI12KeyModifiersSt4pairIKS0_jESt10_Select1stIS3_ESt4lessIS0_ESaIS3_EE12_M_rightmostEv@Base 2.9
 _ZNSt8_Rb_treeI12KeyModifiersSt4pairIKS0_jESt10_Select1stIS3_ESt4lessIS0_ESaIS3_EE13_Rb_tree_implIS7_Lb1EE13_M_initializeEv@Base 2.9.2+dfsg
 _ZNSt8_Rb_treeI12KeyModifiersSt4pairIKS0_jESt10_Select1stIS3_ESt4lessIS0_ESaIS3_EE13_Rb_tree_implIS7_Lb1EE8_M_resetEv@Base 2.9.2+dfsg
 _ZNSt8_Rb_treeI12KeyModifiersSt4pairIKS0_jESt10_Select1stIS3_ESt4lessIS0_ESaIS3_EE13_Rb_tree_implIS7_Lb1EEC1Ev@Base 2.9.2+dfsg
 _ZNSt8_Rb_treeI12KeyModifiersSt4pairIKS0_jESt10_Select1stIS3_ESt4lessIS0_ESaIS3_EE13_Rb_tree_implIS7_Lb1EEC2Ev@Base 2.9.2+dfsg
 _ZNSt8_Rb_treeI12KeyModifiersSt4pairIKS0_jESt10_Select1stIS3_ESt4lessIS0_ESaIS3_EE13_Rb_tree_implIS7_Lb1EED1Ev@Base 2.9.2+dfsg
 _ZNSt8_Rb_treeI12KeyModifiersSt4pairIKS0_jESt10_Select1stIS3_ESt4lessIS0_ESaIS3_EE13_Rb_tree_implIS7_Lb1EED2Ev@Base 2.9.2+dfsg
 _ZNSt8_Rb_treeI12KeyModifiersSt4pairIKS0_jESt10_Select1stIS3_ESt4lessIS0_ESaIS3_EE14_M_create_nodeIJRKSt21piecewise_construct_tSt5tupleIJOS0_EESE_IJEEEEEPSt13_Rb_tree_nodeIS3_EDpOT_@Base 2.9.2+dfsg
 _ZNSt8_Rb_treeI12KeyModifiersSt4pairIKS0_jESt10_Select1stIS3_ESt4lessIS0_ESaIS3_EE14_M_insert_nodeEPSt18_Rb_tree_node_baseSB_PSt13_Rb_tree_nodeIS3_E@Base 2.9.2+dfsg
 _ZNSt8_Rb_treeI12KeyModifiersSt4pairIKS0_jESt10_Select1stIS3_ESt4lessIS0_ESaIS3_EE14_M_lower_boundEPSt13_Rb_tree_nodeIS3_EPSt18_Rb_tree_node_baseRS2_@Base 2.9.3
 _ZNSt8_Rb_treeI12KeyModifiersSt4pairIKS0_jESt10_Select1stIS3_ESt4lessIS0_ESaIS3_EE15_M_destroy_nodeEPSt13_Rb_tree_nodeIS3_E@Base 2.9
 _ZNSt8_Rb_treeI12KeyModifiersSt4pairIKS0_jESt10_Select1stIS3_ESt4lessIS0_ESaIS3_EE17_M_construct_nodeIJRKSt21piecewise_construct_tSt5tupleIJOS0_EESE_IJEEEEEvPSt13_Rb_tree_nodeIS3_EDpOT_@Base 2.9.2+dfsg
 _ZNSt8_Rb_treeI12KeyModifiersSt4pairIKS0_jESt10_Select1stIS3_ESt4lessIS0_ESaIS3_EE21_M_get_Node_allocatorEv@Base 2.9
 _ZNSt8_Rb_treeI12KeyModifiersSt4pairIKS0_jESt10_Select1stIS3_ESt4lessIS0_ESaIS3_EE22_M_emplace_hint_uniqueIJRKSt21piecewise_construct_tSt5tupleIJOS0_EESE_IJEEEEESt17_Rb_tree_iteratorIS3_ESt23_Rb_tree_const_iteratorIS3_EDpOT_@Base 2.9.2+dfsg
 _ZNSt8_Rb_treeI12KeyModifiersSt4pairIKS0_jESt10_Select1stIS3_ESt4lessIS0_ESaIS3_EE24_M_get_insert_unique_posERS2_@Base 2.9
 _ZNSt8_Rb_treeI12KeyModifiersSt4pairIKS0_jESt10_Select1stIS3_ESt4lessIS0_ESaIS3_EE29_M_get_insert_hint_unique_posESt23_Rb_tree_const_iteratorIS3_ERS2_@Base 2.9
 _ZNSt8_Rb_treeI12KeyModifiersSt4pairIKS0_jESt10_Select1stIS3_ESt4lessIS0_ESaIS3_EE3endEv@Base 2.9
 _ZNSt8_Rb_treeI12KeyModifiersSt4pairIKS0_jESt10_Select1stIS3_ESt4lessIS0_ESaIS3_EE5beginEv@Base 2.9
 _ZNSt8_Rb_treeI12KeyModifiersSt4pairIKS0_jESt10_Select1stIS3_ESt4lessIS0_ESaIS3_EE5clearEv@Base 2.9
 _ZNSt8_Rb_treeI12KeyModifiersSt4pairIKS0_jESt10_Select1stIS3_ESt4lessIS0_ESaIS3_EE6_M_endEv@Base 2.9
 _ZNSt8_Rb_treeI12KeyModifiersSt4pairIKS0_jESt10_Select1stIS3_ESt4lessIS0_ESaIS3_EE6_S_keyEPKSt13_Rb_tree_nodeIS3_E@Base 2.9
 _ZNSt8_Rb_treeI12KeyModifiersSt4pairIKS0_jESt10_Select1stIS3_ESt4lessIS0_ESaIS3_EE6_S_keyEPKSt18_Rb_tree_node_base@Base 2.9
 _ZNSt8_Rb_treeI12KeyModifiersSt4pairIKS0_jESt10_Select1stIS3_ESt4lessIS0_ESaIS3_EE7_S_leftEPKSt18_Rb_tree_node_base@Base 2.9
 _ZNSt8_Rb_treeI12KeyModifiersSt4pairIKS0_jESt10_Select1stIS3_ESt4lessIS0_ESaIS3_EE7_S_leftEPSt18_Rb_tree_node_base@Base 2.9
 _ZNSt8_Rb_treeI12KeyModifiersSt4pairIKS0_jESt10_Select1stIS3_ESt4lessIS0_ESaIS3_EE8_M_beginEv@Base 2.9
 _ZNSt8_Rb_treeI12KeyModifiersSt4pairIKS0_jESt10_Select1stIS3_ESt4lessIS0_ESaIS3_EE8_M_eraseEPSt13_Rb_tree_nodeIS3_E@Base 2.9
 _ZNSt8_Rb_treeI12KeyModifiersSt4pairIKS0_jESt10_Select1stIS3_ESt4lessIS0_ESaIS3_EE8_S_rightEPKSt18_Rb_tree_node_base@Base 2.9
 _ZNSt8_Rb_treeI12KeyModifiersSt4pairIKS0_jESt10_Select1stIS3_ESt4lessIS0_ESaIS3_EE8_S_rightEPSt18_Rb_tree_node_base@Base 2.9
 _ZNSt8_Rb_treeI12KeyModifiersSt4pairIKS0_jESt10_Select1stIS3_ESt4lessIS0_ESaIS3_EE8_S_valueEPKSt13_Rb_tree_nodeIS3_E@Base 2.9
 _ZNSt8_Rb_treeI12KeyModifiersSt4pairIKS0_jESt10_Select1stIS3_ESt4lessIS0_ESaIS3_EE8_S_valueEPKSt18_Rb_tree_node_base@Base 2.9
 _ZNSt8_Rb_treeI12KeyModifiersSt4pairIKS0_jESt10_Select1stIS3_ESt4lessIS0_ESaIS3_EEC1Ev@Base 2.9
 _ZNSt8_Rb_treeI12KeyModifiersSt4pairIKS0_jESt10_Select1stIS3_ESt4lessIS0_ESaIS3_EEC2Ev@Base 2.9
 _ZNSt8_Rb_treeI12KeyModifiersSt4pairIKS0_jESt10_Select1stIS3_ESt4lessIS0_ESaIS3_EED1Ev@Base 2.9
 _ZNSt8_Rb_treeI12KeyModifiersSt4pairIKS0_jESt10_Select1stIS3_ESt4lessIS0_ESaIS3_EED2Ev@Base 2.9
 _ZNSt8_Rb_treeI17FontSpecificationSt4pairIKS0_P12FontRealisedESt10_Select1stIS5_ESt4lessIS0_ESaIS5_EE11_M_get_nodeEv@Base 2.8.4
 _ZNSt8_Rb_treeI17FontSpecificationSt4pairIKS0_P12FontRealisedESt10_Select1stIS5_ESt4lessIS0_ESaIS5_EE11_M_leftmostEv@Base 2.8.4
 _ZNSt8_Rb_treeI17FontSpecificationSt4pairIKS0_P12FontRealisedESt10_Select1stIS5_ESt4lessIS0_ESaIS5_EE11_M_put_nodeEPSt13_Rb_tree_nodeIS5_E@Base 2.8.4
 _ZNSt8_Rb_treeI17FontSpecificationSt4pairIKS0_P12FontRealisedESt10_Select1stIS5_ESt4lessIS0_ESaIS5_EE11lower_boundERS2_@Base 2.8.4
 _ZNSt8_Rb_treeI17FontSpecificationSt4pairIKS0_P12FontRealisedESt10_Select1stIS5_ESt4lessIS0_ESaIS5_EE12_M_drop_nodeEPSt13_Rb_tree_nodeIS5_E@Base 2.9
 _ZNSt8_Rb_treeI17FontSpecificationSt4pairIKS0_P12FontRealisedESt10_Select1stIS5_ESt4lessIS0_ESaIS5_EE12_M_rightmostEv@Base 2.8.4
 _ZNSt8_Rb_treeI17FontSpecificationSt4pairIKS0_P12FontRealisedESt10_Select1stIS5_ESt4lessIS0_ESaIS5_EE13_Rb_tree_implIS9_Lb1EE13_M_initializeEv@Base 2.9.2+dfsg
 _ZNSt8_Rb_treeI17FontSpecificationSt4pairIKS0_P12FontRealisedESt10_Select1stIS5_ESt4lessIS0_ESaIS5_EE13_Rb_tree_implIS9_Lb1EE8_M_resetEv@Base 2.9.2+dfsg
 _ZNSt8_Rb_treeI17FontSpecificationSt4pairIKS0_P12FontRealisedESt10_Select1stIS5_ESt4lessIS0_ESaIS5_EE13_Rb_tree_implIS9_Lb1EEC1Ev@Base 2.9.2+dfsg
 _ZNSt8_Rb_treeI17FontSpecificationSt4pairIKS0_P12FontRealisedESt10_Select1stIS5_ESt4lessIS0_ESaIS5_EE13_Rb_tree_implIS9_Lb1EEC2Ev@Base 2.9.2+dfsg
 _ZNSt8_Rb_treeI17FontSpecificationSt4pairIKS0_P12FontRealisedESt10_Select1stIS5_ESt4lessIS0_ESaIS5_EE13_Rb_tree_implIS9_Lb1EED1Ev@Base 2.9.2+dfsg
 _ZNSt8_Rb_treeI17FontSpecificationSt4pairIKS0_P12FontRealisedESt10_Select1stIS5_ESt4lessIS0_ESaIS5_EE13_Rb_tree_implIS9_Lb1EED2Ev@Base 2.9.2+dfsg
 _ZNSt8_Rb_treeI17FontSpecificationSt4pairIKS0_P12FontRealisedESt10_Select1stIS5_ESt4lessIS0_ESaIS5_EE14_M_create_nodeIJRKSt21piecewise_construct_tSt5tupleIJRS2_EESG_IJEEEEEPSt13_Rb_tree_nodeIS5_EDpOT_@Base 2.9.2+dfsg
 _ZNSt8_Rb_treeI17FontSpecificationSt4pairIKS0_P12FontRealisedESt10_Select1stIS5_ESt4lessIS0_ESaIS5_EE14_M_insert_nodeEPSt18_Rb_tree_node_baseSD_PSt13_Rb_tree_nodeIS5_E@Base 2.9.2+dfsg
 _ZNSt8_Rb_treeI17FontSpecificationSt4pairIKS0_P12FontRealisedESt10_Select1stIS5_ESt4lessIS0_ESaIS5_EE14_M_lower_boundEPSt13_Rb_tree_nodeIS5_EPSt18_Rb_tree_node_baseRS2_@Base 2.9.3
 _ZNSt8_Rb_treeI17FontSpecificationSt4pairIKS0_P12FontRealisedESt10_Select1stIS5_ESt4lessIS0_ESaIS5_EE15_M_destroy_nodeEPSt13_Rb_tree_nodeIS5_E@Base 2.8.4
 _ZNSt8_Rb_treeI17FontSpecificationSt4pairIKS0_P12FontRealisedESt10_Select1stIS5_ESt4lessIS0_ESaIS5_EE17_M_construct_nodeIJRKSt21piecewise_construct_tSt5tupleIJRS2_EESG_IJEEEEEvPSt13_Rb_tree_nodeIS5_EDpOT_@Base 2.9.2+dfsg
 _ZNSt8_Rb_treeI17FontSpecificationSt4pairIKS0_P12FontRealisedESt10_Select1stIS5_ESt4lessIS0_ESaIS5_EE21_M_get_Node_allocatorEv@Base 2.8.4
 _ZNSt8_Rb_treeI17FontSpecificationSt4pairIKS0_P12FontRealisedESt10_Select1stIS5_ESt4lessIS0_ESaIS5_EE22_M_emplace_hint_uniqueIJRKSt21piecewise_construct_tSt5tupleIJRS2_EESG_IJEEEEESt17_Rb_tree_iteratorIS5_ESt23_Rb_tree_const_iteratorIS5_EDpOT_@Base 2.9.2+dfsg
 _ZNSt8_Rb_treeI17FontSpecificationSt4pairIKS0_P12FontRealisedESt10_Select1stIS5_ESt4lessIS0_ESaIS5_EE24_M_get_insert_unique_posERS2_@Base 2.8.4
 _ZNSt8_Rb_treeI17FontSpecificationSt4pairIKS0_P12FontRealisedESt10_Select1stIS5_ESt4lessIS0_ESaIS5_EE29_M_get_insert_hint_unique_posESt23_Rb_tree_const_iteratorIS5_ERS2_@Base 2.8.4
 _ZNSt8_Rb_treeI17FontSpecificationSt4pairIKS0_P12FontRealisedESt10_Select1stIS5_ESt4lessIS0_ESaIS5_EE3endEv@Base 2.8.4
 _ZNSt8_Rb_treeI17FontSpecificationSt4pairIKS0_P12FontRealisedESt10_Select1stIS5_ESt4lessIS0_ESaIS5_EE4findERS2_@Base 2.8.4
 _ZNSt8_Rb_treeI17FontSpecificationSt4pairIKS0_P12FontRealisedESt10_Select1stIS5_ESt4lessIS0_ESaIS5_EE5beginEv@Base 2.8.4
 _ZNSt8_Rb_treeI17FontSpecificationSt4pairIKS0_P12FontRealisedESt10_Select1stIS5_ESt4lessIS0_ESaIS5_EE5clearEv@Base 2.8.4
 _ZNSt8_Rb_treeI17FontSpecificationSt4pairIKS0_P12FontRealisedESt10_Select1stIS5_ESt4lessIS0_ESaIS5_EE6_M_endEv@Base 2.8.4
 _ZNSt8_Rb_treeI17FontSpecificationSt4pairIKS0_P12FontRealisedESt10_Select1stIS5_ESt4lessIS0_ESaIS5_EE6_S_keyEPKSt13_Rb_tree_nodeIS5_E@Base 2.8.4
 _ZNSt8_Rb_treeI17FontSpecificationSt4pairIKS0_P12FontRealisedESt10_Select1stIS5_ESt4lessIS0_ESaIS5_EE6_S_keyEPKSt18_Rb_tree_node_base@Base 2.8.4
 _ZNSt8_Rb_treeI17FontSpecificationSt4pairIKS0_P12FontRealisedESt10_Select1stIS5_ESt4lessIS0_ESaIS5_EE7_S_leftEPSt18_Rb_tree_node_base@Base 2.8.4
 _ZNSt8_Rb_treeI17FontSpecificationSt4pairIKS0_P12FontRealisedESt10_Select1stIS5_ESt4lessIS0_ESaIS5_EE8_M_beginEv@Base 2.8.4
 _ZNSt8_Rb_treeI17FontSpecificationSt4pairIKS0_P12FontRealisedESt10_Select1stIS5_ESt4lessIS0_ESaIS5_EE8_M_eraseEPSt13_Rb_tree_nodeIS5_E@Base 2.8.4
 _ZNSt8_Rb_treeI17FontSpecificationSt4pairIKS0_P12FontRealisedESt10_Select1stIS5_ESt4lessIS0_ESaIS5_EE8_S_rightEPSt18_Rb_tree_node_base@Base 2.8.4
 _ZNSt8_Rb_treeI17FontSpecificationSt4pairIKS0_P12FontRealisedESt10_Select1stIS5_ESt4lessIS0_ESaIS5_EE8_S_valueEPKSt13_Rb_tree_nodeIS5_E@Base 2.8.4
 _ZNSt8_Rb_treeI17FontSpecificationSt4pairIKS0_P12FontRealisedESt10_Select1stIS5_ESt4lessIS0_ESaIS5_EE8_S_valueEPKSt18_Rb_tree_node_base@Base 2.8.4
 _ZNSt8_Rb_treeI17FontSpecificationSt4pairIKS0_P12FontRealisedESt10_Select1stIS5_ESt4lessIS0_ESaIS5_EEC1Ev@Base 2.8.4
 _ZNSt8_Rb_treeI17FontSpecificationSt4pairIKS0_P12FontRealisedESt10_Select1stIS5_ESt4lessIS0_ESaIS5_EEC2Ev@Base 2.8.4
 _ZNSt8_Rb_treeI17FontSpecificationSt4pairIKS0_P12FontRealisedESt10_Select1stIS5_ESt4lessIS0_ESaIS5_EED1Ev@Base 2.8.4
 _ZNSt8_Rb_treeI17FontSpecificationSt4pairIKS0_P12FontRealisedESt10_Select1stIS5_ESt4lessIS0_ESaIS5_EED2Ev@Base 2.8.4
 _ZNSt8_Rb_treeINSt7__cxx1112basic_stringIcSt11char_traitsIcESaIcEEESt4pairIKS5_N12LexerVerilog11SymbolValueEESt10_Select1stISA_ESt4lessIS5_ESaISA_EE10_S_maximumEPSt18_Rb_tree_node_base@Base 2.9
 _ZNSt8_Rb_treeINSt7__cxx1112basic_stringIcSt11char_traitsIcESaIcEEESt4pairIKS5_N12LexerVerilog11SymbolValueEESt10_Select1stISA_ESt4lessIS5_ESaISA_EE10_S_minimumEPSt18_Rb_tree_node_base@Base 2.9
 _ZNSt8_Rb_treeINSt7__cxx1112basic_stringIcSt11char_traitsIcESaIcEEESt4pairIKS5_N12LexerVerilog11SymbolValueEESt10_Select1stISA_ESt4lessIS5_ESaISA_EE11_Alloc_nodeC1ERSG_@Base 2.9
 _ZNSt8_Rb_treeINSt7__cxx1112basic_stringIcSt11char_traitsIcESaIcEEESt4pairIKS5_N12LexerVerilog11SymbolValueEESt10_Select1stISA_ESt4lessIS5_ESaISA_EE11_Alloc_nodeC2ERSG_@Base 2.9
 _ZNSt8_Rb_treeINSt7__cxx1112basic_stringIcSt11char_traitsIcESaIcEEESt4pairIKS5_N12LexerVerilog11SymbolValueEESt10_Select1stISA_ESt4lessIS5_ESaISA_EE11_M_get_nodeEv@Base 2.9
 _ZNSt8_Rb_treeINSt7__cxx1112basic_stringIcSt11char_traitsIcESaIcEEESt4pairIKS5_N12LexerVerilog11SymbolValueEESt10_Select1stISA_ESt4lessIS5_ESaISA_EE11_M_leftmostEv@Base 2.9
